
../IOTKit_CM33_S_NS/IOTKit_CM33_s/Objects/IOTKit_CM33_s.axf:     file format elf32-littlearm


Disassembly of section ER_ROM:

10000000 <__Vectors>:
10000000:	f8 ff 1f 38 01 26 00 10 39 20 00 10 91 25 00 10     ...8.&..9 ...%..
10000010:	39 20 00 10 39 20 00 10 39 20 00 10 39 20 00 10     9 ..9 ..9 ..9 ..
	...
1000002c:	39 20 00 10 39 20 00 10 00 00 00 00 39 20 00 10     9 ..9 ......9 ..
1000003c:	29 2a 00 10 39 20 00 10 39 20 00 10 39 20 00 10     )*..9 ..9 ..9 ..
1000004c:	39 20 00 10 39 20 00 10 39 20 00 10 00 00 00 00     9 ..9 ..9 ......
	...
10000064:	39 20 00 10 39 20 00 10 39 20 00 10 39 20 00 10     9 ..9 ..9 ..9 ..
	...
100000c0:	f5 2b 00 10 05 2c 00 10 39 20 00 10 39 20 00 10     .+...,..9 ..9 ..
100000d0:	39 20 00 10 39 20 00 10 39 20 00 10 39 20 00 10     9 ..9 ..9 ..9 ..
100000e0:	39 20 00 10 39 20 00 10 39 20 00 10 39 20 00 10     9 ..9 ..9 ..9 ..
100000f0:	39 20 00 10 39 20 00 10 39 20 00 10 39 20 00 10     9 ..9 ..9 ..9 ..
10000100:	39 20 00 10 39 20 00 10 39 20 00 10 39 20 00 10     9 ..9 ..9 ..9 ..
10000110:	39 20 00 10 39 20 00 10 39 20 00 10 39 20 00 10     9 ..9 ..9 ..9 ..
10000120:	39 20 00 10 39 20 00 10 39 20 00 10 39 20 00 10     9 ..9 ..9 ..9 ..
10000130:	39 20 00 10 39 20 00 10 39 20 00 10 39 20 00 10     9 ..9 ..9 ..9 ..
10000140:	39 20 00 10 39 20 00 10 39 20 00 10 39 20 00 10     9 ..9 ..9 ..9 ..
10000150:	39 20 00 10 39 20 00 10 39 20 00 10 39 20 00 10     9 ..9 ..9 ..9 ..
10000160:	39 20 00 10 39 20 00 10 39 20 00 10 39 20 00 10     9 ..9 ..9 ..9 ..
10000170:	39 20 00 10 39 20 00 10 39 20 00 10 39 20 00 10     9 ..9 ..9 ..9 ..
10000180:	39 20 00 10 39 20 00 10 39 20 00 10 39 20 00 10     9 ..9 ..9 ..9 ..
10000190:	39 20 00 10 39 20 00 10 39 20 00 10 39 20 00 10     9 ..9 ..9 ..9 ..
100001a0:	39 20 00 10 39 20 00 10 39 20 00 10 39 20 00 10     9 ..9 ..9 ..9 ..
100001b0:	39 20 00 10 39 20 00 10 39 20 00 10 39 20 00 10     9 ..9 ..9 ..9 ..
100001c0:	39 20 00 10 39 20 00 10 39 20 00 10 39 20 00 10     9 ..9 ..9 ..9 ..
100001d0:	39 20 00 10 39 20 00 10 39 20 00 10 39 20 00 10     9 ..9 ..9 ..9 ..
100001e0:	39 20 00 10 39 20 00 10 39 20 00 10 39 20 00 10     9 ..9 ..9 ..9 ..
100001f0:	39 20 00 10 39 20 00 10 39 20 00 10 39 20 00 10     9 ..9 ..9 ..9 ..
10000200:	39 20 00 10 39 20 00 10 39 20 00 10 39 20 00 10     9 ..9 ..9 ..9 ..
10000210:	39 20 00 10 39 20 00 10 39 20 00 10 39 20 00 10     9 ..9 ..9 ..9 ..
10000220:	39 20 00 10 39 20 00 10 39 20 00 10 39 20 00 10     9 ..9 ..9 ..9 ..
	...

10000400 <__main>:
10000400:	f000 f802 	bl	10000408 <__scatterload>
10000404:	f000 f8b4 	bl	10000570 <__rt_entry>

10000408 <__scatterload>:
10000408:	a614      	add	r6, pc, #80	; (adr r6, 1000045c <__scatterload_loop+0x4a>)
1000040a:	e896 0c00 	ldmia.w	r6, {sl, fp}
1000040e:	44b2      	add	sl, r6
10000410:	44b3      	add	fp, r6

10000412 <__scatterload_loop>:
10000412:	45da      	cmp	sl, fp
10000414:	d101      	bne.n	1000041a <__scatterload_loop+0x8>
10000416:	f000 f8ab 	bl	10000570 <__rt_entry>
1000041a:	e8ba 000f 	ldmia.w	sl!, {r0, r1, r2, r3}
1000041e:	a60f      	add	r6, pc, #60	; (adr r6, 1000045c <__scatterload_loop+0x4a>)
10000420:	e896 0030 	ldmia.w	r6, {r4, r5}
10000424:	eba5 0504 	sub.w	r5, r5, r4
10000428:	eb04 0706 	add.w	r7, r4, r6
1000042c:	ebaa 0407 	sub.w	r4, sl, r7
10000430:	f1a7 0701 	sub.w	r7, r7, #1
10000434:	ea4f 1515 	mov.w	r5, r5, lsr #4
10000438:	ea4f 1434 	mov.w	r4, r4, ror #4
1000043c:	f1a4 0401 	sub.w	r4, r4, #1
10000440:	42ac      	cmp	r4, r5
10000442:	d301      	bcc.n	10000448 <__scatterload_loop+0x36>
10000444:	f000 f894 	bl	10000570 <__rt_entry>
10000448:	f013 0f01 	tst.w	r3, #1
1000044c:	bf18      	it	ne
1000044e:	1afb      	subne	r3, r7, r3
10000450:	f043 0301 	orr.w	r3, r3, #1
10000454:	f000 f801 	bl	1000045a <__scatterload_loop+0x48>
10000458:	e7db      	b.n	10000412 <__scatterload_loop>
1000045a:	4718      	bx	r3
1000045c:	00005ff4 	.word	0x00005ff4
10000460:	00006014 	.word	0x00006014

10000464 <__scatterload_copy>:
10000464:	3a10      	subs	r2, #16
10000466:	bf24      	itt	cs
10000468:	c878      	ldmiacs	r0!, {r3, r4, r5, r6}
1000046a:	c178      	stmiacs	r1!, {r3, r4, r5, r6}
1000046c:	d8fa      	bhi.n	10000464 <__scatterload_copy>
1000046e:	0752      	lsls	r2, r2, #29
10000470:	bf24      	itt	cs
10000472:	c830      	ldmiacs	r0!, {r4, r5}
10000474:	c130      	stmiacs	r1!, {r4, r5}
10000476:	bf44      	itt	mi
10000478:	6804      	ldrmi	r4, [r0, #0]
1000047a:	600c      	strmi	r4, [r1, #0]
1000047c:	4770      	bx	lr
	...

10000480 <__scatterload_null>:
10000480:	4770      	bx	lr
	...

10000484 <__scatterload_zeroinit>:
10000484:	2300      	movs	r3, #0
10000486:	2400      	movs	r4, #0
10000488:	2500      	movs	r5, #0
1000048a:	2600      	movs	r6, #0
1000048c:	3a10      	subs	r2, #16
1000048e:	bf28      	it	cs
10000490:	c178      	stmiacs	r1!, {r3, r4, r5, r6}
10000492:	d8fb      	bhi.n	1000048c <__scatterload_zeroinit+0x8>
10000494:	0752      	lsls	r2, r2, #29
10000496:	bf28      	it	cs
10000498:	c130      	stmiacs	r1!, {r4, r5}
1000049a:	bf48      	it	mi
1000049c:	600b      	strmi	r3, [r1, #0]
1000049e:	4770      	bx	lr

100004a0 <_printf_n>:
100004a0:	296e      	cmp	r1, #110	; 0x6e
100004a2:	f000 81b1 	beq.w	10000808 <_printf_charcount>

100004a6 <_printf_p>:
100004a6:	2970      	cmp	r1, #112	; 0x70
100004a8:	f000 82e7 	beq.w	10000a7a <_printf_hex_ptr>

100004ac <_printf_f>:
100004ac:	2966      	cmp	r1, #102	; 0x66
100004ae:	f004 8240 	beq.w	10004932 <_printf_fp_dec>

100004b2 <_printf_e>:
100004b2:	2965      	cmp	r1, #101	; 0x65
100004b4:	f004 823d 	beq.w	10004932 <_printf_fp_dec>

100004b8 <_printf_g>:
100004b8:	2967      	cmp	r1, #103	; 0x67
100004ba:	f004 823a 	beq.w	10004932 <_printf_fp_dec>

100004be <_printf_a>:
100004be:	2961      	cmp	r1, #97	; 0x61
100004c0:	f004 8239 	beq.w	10004936 <_printf_fp_hex>

100004c4 <_printf_ll>:
100004c4:	6803      	ldr	r3, [r0, #0]
100004c6:	0a1b      	lsrs	r3, r3, #8
100004c8:	bf28      	it	cs
100004ca:	f041 0180 	orrcs.w	r1, r1, #128	; 0x80

100004ce <_printf_i>:
100004ce:	2969      	cmp	r1, #105	; 0x69
100004d0:	f000 815e 	beq.w	10000790 <_printf_int_dec>

100004d4 <_printf_d>:
100004d4:	2964      	cmp	r1, #100	; 0x64
100004d6:	f000 815b 	beq.w	10000790 <_printf_int_dec>

100004da <_printf_u>:
100004da:	2975      	cmp	r1, #117	; 0x75
100004dc:	f000 8158 	beq.w	10000790 <_printf_int_dec>

100004e0 <_printf_o>:
100004e0:	296f      	cmp	r1, #111	; 0x6f
100004e2:	f000 8275 	beq.w	100009d0 <_printf_int_oct>

100004e6 <_printf_x>:
100004e6:	2978      	cmp	r1, #120	; 0x78
100004e8:	f000 82b3 	beq.w	10000a52 <_printf_int_hex>

100004ec <_printf_lli>:
100004ec:	29e9      	cmp	r1, #233	; 0xe9
100004ee:	f000 820f 	beq.w	10000910 <_printf_longlong_dec>

100004f2 <_printf_lld>:
100004f2:	29e4      	cmp	r1, #228	; 0xe4
100004f4:	f000 820c 	beq.w	10000910 <_printf_longlong_dec>

100004f8 <_printf_llu>:
100004f8:	29f5      	cmp	r1, #245	; 0xf5
100004fa:	f000 8209 	beq.w	10000910 <_printf_longlong_dec>

100004fe <_printf_llo>:
100004fe:	29ef      	cmp	r1, #239	; 0xef
10000500:	f000 8272 	beq.w	100009e8 <_printf_ll_oct>

10000504 <_printf_llx>:
10000504:	29f8      	cmp	r1, #248	; 0xf8
10000506:	f000 82b2 	beq.w	10000a6e <_printf_ll_hex>

1000050a <_printf_l>:
1000050a:	6803      	ldr	r3, [r0, #0]
1000050c:	09db      	lsrs	r3, r3, #7
1000050e:	bf28      	it	cs
10000510:	f041 0180 	orrcs.w	r1, r1, #128	; 0x80

10000514 <_printf_c>:
10000514:	2963      	cmp	r1, #99	; 0x63
10000516:	f000 87cb 	beq.w	100014b0 <_printf_char>

1000051a <_printf_s>:
1000051a:	2973      	cmp	r1, #115	; 0x73
1000051c:	f000 87d0 	beq.w	100014c0 <_printf_string>

10000520 <_printf_lc>:
10000520:	29e3      	cmp	r1, #227	; 0xe3
10000522:	f000 87db 	beq.w	100014dc <_printf_wchar>

10000526 <_printf_ls>:
10000526:	29f3      	cmp	r1, #243	; 0xf3
10000528:	f000 87e0 	beq.w	100014ec <_printf_wstring>

1000052c <_printf_percent_end>:
1000052c:	2000      	movs	r0, #0
1000052e:	4770      	bx	lr

10000530 <__rt_lib_init>:
10000530:	b51f      	push	{r0, r1, r2, r3, r4, lr}

10000532 <__rt_lib_init_fp_1>:
10000532:	f004 f9f1 	bl	10004918 <_fp_init>

10000536 <__rt_lib_init_heap_2>:
10000536:	480a      	ldr	r0, [pc, #40]	; (10000560 <__lit__00000000>)
10000538:	490a      	ldr	r1, [pc, #40]	; (10000564 <__lit__00000001>)
1000053a:	f001 fb63 	bl	10001c04 <_init_alloc>

1000053e <__rt_lib_init_heap_1>:
1000053e:	f001 f8a5 	bl	1000168c <__rt_locale>
10000542:	0004      	movs	r4, r0

10000544 <__rt_lib_init_lc_collate_1>:
10000544:	2000      	movs	r0, #0
10000546:	2100      	movs	r1, #0
10000548:	f004 f9d0 	bl	100048ec <_get_lc_ctype>
1000054c:	1c40      	adds	r0, r0, #1
1000054e:	6060      	str	r0, [r4, #4]

10000550 <__rt_lib_init_lc_ctype_1>:
10000550:	2000      	movs	r0, #0
10000552:	2100      	movs	r1, #0
10000554:	f004 f9b4 	bl	100048c0 <_get_lc_numeric>
10000558:	60e0      	str	r0, [r4, #12]

1000055a <__rt_lib_init_atexit_1>:
1000055a:	f000 ffcf 	bl	100014fc <_initio>

1000055e <__rt_lib_init_alloca_1>:
1000055e:	bd1f      	pop	{r0, r1, r2, r3, r4, pc}

10000560 <__lit__00000000>:
10000560:	0a40 3800                                   @..8

10000564 <__lit__00000001>:
10000564:	1640 3800                                   @..8

10000568 <__rt_lib_shutdown>:
10000568:	b510      	push	{r4, lr}

1000056a <__rt_lib_shutdown_cpp_1>:
1000056a:	f001 f830 	bl	100015ce <_terminateio>

1000056e <__rt_lib_shutdown_fp_trap_1>:
1000056e:	bd10      	pop	{r4, pc}

10000570 <__rt_entry>:
10000570:	f8df d00c 	ldr.w	sp, [pc, #12]	; 10000580 <__lit__00000000>

10000574 <__rt_entry_li>:
10000574:	f7ff ffdc 	bl	10000530 <__rt_lib_init>

10000578 <__rt_entry_main>:
10000578:	f003 f9f2 	bl	10003960 <main>
1000057c:	f001 fb16 	bl	10001bac <exit>

10000580 <__lit__00000000>:
10000580:	fff8 381f                                   ...8

10000584 <__rt_exit>:
10000584:	b403      	push	{r0, r1}

10000586 <__rt_exit_ls>:
10000586:	f7ff ffef 	bl	10000568 <__rt_lib_shutdown>

1000058a <__rt_exit_exit>:
1000058a:	bc03      	pop	{r0, r1}
1000058c:	f001 fcb8 	bl	10001f00 <_sys_exit>

10000590 <printf>:
10000590:	b40f      	push	{r0, r1, r2, r3}
10000592:	4904      	ldr	r1, [pc, #16]	; (100005a4 <printf+0x14>)
10000594:	b510      	push	{r4, lr}
10000596:	aa03      	add	r2, sp, #12
10000598:	9802      	ldr	r0, [sp, #8]
1000059a:	f000 f949 	bl	10000830 <_printf_char_file>
1000059e:	bc10      	pop	{r4}
100005a0:	f85d fb14 	ldr.w	pc, [sp], #20
100005a4:	3800008c 	.word	0x3800008c

100005a8 <memcmp>:
100005a8:	ea40 0301 	orr.w	r3, r0, r1
100005ac:	b510      	push	{r4, lr}
100005ae:	079b      	lsls	r3, r3, #30
100005b0:	d10f      	bne.n	100005d2 <memcmp+0x2a>
100005b2:	2a04      	cmp	r2, #4
100005b4:	d30d      	bcc.n	100005d2 <memcmp+0x2a>
100005b6:	c810      	ldmia	r0!, {r4}
100005b8:	c908      	ldmia	r1!, {r3}
100005ba:	1f12      	subs	r2, r2, #4
100005bc:	429c      	cmp	r4, r3
100005be:	d0f8      	beq.n	100005b2 <memcmp+0xa>
100005c0:	ba20      	rev	r0, r4
100005c2:	ba19      	rev	r1, r3
100005c4:	4288      	cmp	r0, r1
100005c6:	d901      	bls.n	100005cc <memcmp+0x24>
100005c8:	2001      	movs	r0, #1
100005ca:	bd10      	pop	{r4, pc}
100005cc:	f04f 30ff 	mov.w	r0, #4294967295	; 0xffffffff
100005d0:	bd10      	pop	{r4, pc}
100005d2:	b11a      	cbz	r2, 100005dc <memcmp+0x34>
100005d4:	07d3      	lsls	r3, r2, #31
100005d6:	d003      	beq.n	100005e0 <memcmp+0x38>
100005d8:	1c52      	adds	r2, r2, #1
100005da:	e007      	b.n	100005ec <memcmp+0x44>
100005dc:	2000      	movs	r0, #0
100005de:	bd10      	pop	{r4, pc}
100005e0:	f810 3b01 	ldrb.w	r3, [r0], #1
100005e4:	f811 4b01 	ldrb.w	r4, [r1], #1
100005e8:	1b1b      	subs	r3, r3, r4
100005ea:	d107      	bne.n	100005fc <memcmp+0x54>
100005ec:	f810 3b01 	ldrb.w	r3, [r0], #1
100005f0:	f811 4b01 	ldrb.w	r4, [r1], #1
100005f4:	1b1b      	subs	r3, r3, r4
100005f6:	d101      	bne.n	100005fc <memcmp+0x54>
100005f8:	1e92      	subs	r2, r2, #2
100005fa:	d1f1      	bne.n	100005e0 <memcmp+0x38>
100005fc:	4618      	mov	r0, r3
100005fe:	bd10      	pop	{r4, pc}

10000600 <__aeabi_memclr4>:
10000600:	f04f 0200 	mov.w	r2, #0

10000604 <_memset_w>:
10000604:	b500      	push	{lr}
10000606:	4613      	mov	r3, r2
10000608:	4694      	mov	ip, r2
1000060a:	4696      	mov	lr, r2
1000060c:	3920      	subs	r1, #32
1000060e:	bf22      	ittt	cs
10000610:	e8a0 500c 	stmiacs.w	r0!, {r2, r3, ip, lr}
10000614:	e8a0 500c 	stmiacs.w	r0!, {r2, r3, ip, lr}
10000618:	f1b1 0120 	subscs.w	r1, r1, #32
1000061c:	f4bf aff7 	bcs.w	1000060e <_memset_w+0xa>
10000620:	0709      	lsls	r1, r1, #28
10000622:	bf28      	it	cs
10000624:	e8a0 500c 	stmiacs.w	r0!, {r2, r3, ip, lr}
10000628:	bf48      	it	mi
1000062a:	c00c      	stmiami	r0!, {r2, r3}
1000062c:	f85d eb04 	ldr.w	lr, [sp], #4
10000630:	0089      	lsls	r1, r1, #2
10000632:	bf28      	it	cs
10000634:	f840 2b04 	strcs.w	r2, [r0], #4
10000638:	bf08      	it	eq
1000063a:	4770      	bxeq	lr
1000063c:	bf48      	it	mi
1000063e:	f820 2b02 	strhmi.w	r2, [r0], #2
10000642:	f011 4f80 	tst.w	r1, #1073741824	; 0x40000000
10000646:	bf18      	it	ne
10000648:	f800 2b01 	strbne.w	r2, [r0], #1
1000064c:	4770      	bx	lr
	...

10000650 <strcmp>:
10000650:	b430      	push	{r4, r5}
10000652:	f04f 3c01 	mov.w	ip, #16843009	; 0x1010101
10000656:	f850 2b04 	ldr.w	r2, [r0], #4
1000065a:	f851 3b04 	ldr.w	r3, [r1], #4
1000065e:	facc f452 	uqsub8	r4, ip, r2
10000662:	1ad5      	subs	r5, r2, r3
10000664:	d120      	bne.n	100006a8 <strcmp+0x58>
10000666:	b9fc      	cbnz	r4, 100006a8 <strcmp+0x58>
10000668:	f850 2b04 	ldr.w	r2, [r0], #4
1000066c:	f851 3b04 	ldr.w	r3, [r1], #4
10000670:	facc f452 	uqsub8	r4, ip, r2
10000674:	1ad5      	subs	r5, r2, r3
10000676:	d117      	bne.n	100006a8 <strcmp+0x58>
10000678:	b9b4      	cbnz	r4, 100006a8 <strcmp+0x58>
1000067a:	f850 2b04 	ldr.w	r2, [r0], #4
1000067e:	f851 3b04 	ldr.w	r3, [r1], #4
10000682:	facc f452 	uqsub8	r4, ip, r2
10000686:	1ad5      	subs	r5, r2, r3
10000688:	d10e      	bne.n	100006a8 <strcmp+0x58>
1000068a:	b96c      	cbnz	r4, 100006a8 <strcmp+0x58>
1000068c:	f850 2b04 	ldr.w	r2, [r0], #4
10000690:	f851 3b04 	ldr.w	r3, [r1], #4
10000694:	facc f452 	uqsub8	r4, ip, r2
10000698:	1ad5      	subs	r5, r2, r3
1000069a:	d105      	bne.n	100006a8 <strcmp+0x58>
1000069c:	2c00      	cmp	r4, #0
1000069e:	d0da      	beq.n	10000656 <strcmp+0x6>
100006a0:	bc30      	pop	{r4, r5}
100006a2:	f04f 0000 	mov.w	r0, #0
100006a6:	4770      	bx	lr
100006a8:	ba29      	rev	r1, r5
100006aa:	fab1 f181 	clz	r1, r1
100006ae:	f011 0118 	ands.w	r1, r1, #24
100006b2:	f1d1 0020 	rsbs	r0, r1, #32
100006b6:	4084      	lsls	r4, r0
100006b8:	d1f2      	bne.n	100006a0 <strcmp+0x50>
100006ba:	40ca      	lsrs	r2, r1
100006bc:	40cb      	lsrs	r3, r1
100006be:	f012 02ff 	ands.w	r2, r2, #255	; 0xff
100006c2:	f013 03ff 	ands.w	r3, r3, #255	; 0xff
100006c6:	bc30      	pop	{r4, r5}
100006c8:	1ad0      	subs	r0, r2, r3
100006ca:	4770      	bx	lr

100006cc <_printf_pre_padding>:
100006cc:	b570      	push	{r4, r5, r6, lr}
100006ce:	4604      	mov	r4, r0
100006d0:	6985      	ldr	r5, [r0, #24]
100006d2:	6800      	ldr	r0, [r0, #0]
100006d4:	06c1      	lsls	r1, r0, #27
100006d6:	d501      	bpl.n	100006dc <_printf_pre_padding+0x10>
100006d8:	2630      	movs	r6, #48	; 0x30
100006da:	e000      	b.n	100006de <_printf_pre_padding+0x12>
100006dc:	2620      	movs	r6, #32
100006de:	07c0      	lsls	r0, r0, #31
100006e0:	d007      	beq.n	100006f2 <_printf_pre_padding+0x26>
100006e2:	bd70      	pop	{r4, r5, r6, pc}
100006e4:	e9d4 2101 	ldrd	r2, r1, [r4, #4]
100006e8:	4630      	mov	r0, r6
100006ea:	4790      	blx	r2
100006ec:	6a20      	ldr	r0, [r4, #32]
100006ee:	1c40      	adds	r0, r0, #1
100006f0:	6220      	str	r0, [r4, #32]
100006f2:	1e6d      	subs	r5, r5, #1
100006f4:	d5f6      	bpl.n	100006e4 <_printf_pre_padding+0x18>
100006f6:	bd70      	pop	{r4, r5, r6, pc}

100006f8 <_printf_post_padding>:
100006f8:	b570      	push	{r4, r5, r6, lr}
100006fa:	4604      	mov	r4, r0
100006fc:	6985      	ldr	r5, [r0, #24]
100006fe:	7800      	ldrb	r0, [r0, #0]
10000700:	07c0      	lsls	r0, r0, #31
10000702:	d107      	bne.n	10000714 <_printf_post_padding+0x1c>
10000704:	bd70      	pop	{r4, r5, r6, pc}
10000706:	e9d4 2101 	ldrd	r2, r1, [r4, #4]
1000070a:	2020      	movs	r0, #32
1000070c:	4790      	blx	r2
1000070e:	6a20      	ldr	r0, [r4, #32]
10000710:	1c40      	adds	r0, r0, #1
10000712:	6220      	str	r0, [r4, #32]
10000714:	1e6d      	subs	r5, r5, #1
10000716:	d5f6      	bpl.n	10000706 <_printf_post_padding+0xe>
10000718:	bd70      	pop	{r4, r5, r6, pc}

1000071a <_printf_truncate_signed>:
1000071a:	6809      	ldr	r1, [r1, #0]
1000071c:	054a      	lsls	r2, r1, #21
1000071e:	d501      	bpl.n	10000724 <_printf_truncate_signed+0xa>
10000720:	b240      	sxtb	r0, r0
10000722:	4770      	bx	lr
10000724:	05c9      	lsls	r1, r1, #23
10000726:	d5fc      	bpl.n	10000722 <_printf_truncate_signed+0x8>
10000728:	b200      	sxth	r0, r0
1000072a:	4770      	bx	lr

1000072c <_printf_truncate_unsigned>:
1000072c:	6809      	ldr	r1, [r1, #0]
1000072e:	054a      	lsls	r2, r1, #21
10000730:	d501      	bpl.n	10000736 <_printf_truncate_unsigned+0xa>
10000732:	b2c0      	uxtb	r0, r0
10000734:	4770      	bx	lr
10000736:	05c9      	lsls	r1, r1, #23
10000738:	d5fc      	bpl.n	10000734 <_printf_truncate_unsigned+0x8>
1000073a:	b280      	uxth	r0, r0
1000073c:	4770      	bx	lr

1000073e <_printf_str>:
1000073e:	b570      	push	{r4, r5, r6, lr}
10000740:	460c      	mov	r4, r1
10000742:	4605      	mov	r5, r0
10000744:	2a01      	cmp	r2, #1
10000746:	d005      	beq.n	10000754 <_printf_str+0x16>
10000748:	7828      	ldrb	r0, [r5, #0]
1000074a:	0680      	lsls	r0, r0, #26
1000074c:	d500      	bpl.n	10000750 <_printf_str+0x12>
1000074e:	69ea      	ldr	r2, [r5, #28]
10000750:	2300      	movs	r3, #0
10000752:	e002      	b.n	1000075a <_printf_str+0x1c>
10000754:	2301      	movs	r3, #1
10000756:	e005      	b.n	10000764 <_printf_str+0x26>
10000758:	1c5b      	adds	r3, r3, #1
1000075a:	4293      	cmp	r3, r2
1000075c:	d202      	bcs.n	10000764 <_printf_str+0x26>
1000075e:	5ce0      	ldrb	r0, [r4, r3]
10000760:	2800      	cmp	r0, #0
10000762:	d1f9      	bne.n	10000758 <_printf_str+0x1a>
10000764:	69a8      	ldr	r0, [r5, #24]
10000766:	18e6      	adds	r6, r4, r3
10000768:	1ac0      	subs	r0, r0, r3
1000076a:	61a8      	str	r0, [r5, #24]
1000076c:	6a28      	ldr	r0, [r5, #32]
1000076e:	4418      	add	r0, r3
10000770:	6228      	str	r0, [r5, #32]
10000772:	4628      	mov	r0, r5
10000774:	f7ff ffaa 	bl	100006cc <_printf_pre_padding>
10000778:	e004      	b.n	10000784 <_printf_str+0x46>
1000077a:	e9d5 2101 	ldrd	r2, r1, [r5, #4]
1000077e:	f814 0b01 	ldrb.w	r0, [r4], #1
10000782:	4790      	blx	r2
10000784:	42b4      	cmp	r4, r6
10000786:	d3f8      	bcc.n	1000077a <_printf_str+0x3c>
10000788:	4628      	mov	r0, r5
1000078a:	f7ff ffb5 	bl	100006f8 <_printf_post_padding>
1000078e:	bd70      	pop	{r4, r5, r6, pc}

10000790 <_printf_int_dec>:
10000790:	e92d 41f0 	stmdb	sp!, {r4, r5, r6, r7, r8, lr}
10000794:	4606      	mov	r6, r0
10000796:	2400      	movs	r4, #0
10000798:	6810      	ldr	r0, [r2, #0]
1000079a:	2975      	cmp	r1, #117	; 0x75
1000079c:	4631      	mov	r1, r6
1000079e:	a516      	add	r5, pc, #88	; (adr r5, 100007f8 <_printf_int_dec+0x68>)
100007a0:	d010      	beq.n	100007c4 <_printf_int_dec+0x34>
100007a2:	f7ff ffba 	bl	1000071a <_printf_truncate_signed>
100007a6:	2800      	cmp	r0, #0
100007a8:	da02      	bge.n	100007b0 <_printf_int_dec+0x20>
100007aa:	4240      	negs	r0, r0
100007ac:	a513      	add	r5, pc, #76	; (adr r5, 100007fc <_printf_int_dec+0x6c>)
100007ae:	e007      	b.n	100007c0 <_printf_int_dec+0x30>
100007b0:	6831      	ldr	r1, [r6, #0]
100007b2:	078a      	lsls	r2, r1, #30
100007b4:	d501      	bpl.n	100007ba <_printf_int_dec+0x2a>
100007b6:	a512      	add	r5, pc, #72	; (adr r5, 10000800 <_printf_int_dec+0x70>)
100007b8:	e002      	b.n	100007c0 <_printf_int_dec+0x30>
100007ba:	0749      	lsls	r1, r1, #29
100007bc:	d504      	bpl.n	100007c8 <_printf_int_dec+0x38>
100007be:	a511      	add	r5, pc, #68	; (adr r5, 10000804 <_printf_int_dec+0x74>)
100007c0:	2401      	movs	r4, #1
100007c2:	e001      	b.n	100007c8 <_printf_int_dec+0x38>
100007c4:	f7ff ffb2 	bl	1000072c <_printf_truncate_unsigned>
100007c8:	2100      	movs	r1, #0
100007ca:	220a      	movs	r2, #10
100007cc:	f106 0724 	add.w	r7, r6, #36	; 0x24
100007d0:	e009      	b.n	100007e6 <_printf_int_dec+0x56>
100007d2:	fbb0 fcf2 	udiv	ip, r0, r2
100007d6:	fbb0 f3f2 	udiv	r3, r0, r2
100007da:	fb02 001c 	mls	r0, r2, ip, r0
100007de:	3030      	adds	r0, #48	; 0x30
100007e0:	5478      	strb	r0, [r7, r1]
100007e2:	4618      	mov	r0, r3
100007e4:	1c49      	adds	r1, r1, #1
100007e6:	2800      	cmp	r0, #0
100007e8:	d1f3      	bne.n	100007d2 <_printf_int_dec+0x42>
100007ea:	4623      	mov	r3, r4
100007ec:	462a      	mov	r2, r5
100007ee:	4630      	mov	r0, r6
100007f0:	e8bd 41f0 	ldmia.w	sp!, {r4, r5, r6, r7, r8, lr}
100007f4:	f000 ba55 	b.w	10000ca2 <_printf_int_common>
100007f8:	00000000 	.word	0x00000000
100007fc:	0000002d 	.word	0x0000002d
10000800:	0000002b 	.word	0x0000002b
10000804:	00000020 	.word	0x00000020

10000808 <_printf_charcount>:
10000808:	6811      	ldr	r1, [r2, #0]
1000080a:	6802      	ldr	r2, [r0, #0]
1000080c:	6a00      	ldr	r0, [r0, #32]
1000080e:	0553      	lsls	r3, r2, #21
10000810:	d501      	bpl.n	10000816 <_printf_charcount+0xe>
10000812:	7008      	strb	r0, [r1, #0]
10000814:	e00a      	b.n	1000082c <_printf_charcount+0x24>
10000816:	05d3      	lsls	r3, r2, #23
10000818:	d501      	bpl.n	1000081e <_printf_charcount+0x16>
1000081a:	8008      	strh	r0, [r1, #0]
1000081c:	e006      	b.n	1000082c <_printf_charcount+0x24>
1000081e:	0613      	lsls	r3, r2, #24
10000820:	d503      	bpl.n	1000082a <_printf_charcount+0x22>
10000822:	17c2      	asrs	r2, r0, #31
10000824:	e9c1 0200 	strd	r0, r2, [r1]
10000828:	e000      	b.n	1000082c <_printf_charcount+0x24>
1000082a:	6008      	str	r0, [r1, #0]
1000082c:	2001      	movs	r0, #1
1000082e:	4770      	bx	lr

10000830 <_printf_char_file>:
10000830:	4b07      	ldr	r3, [pc, #28]	; (10000850 <_printf_char_file+0x20>)
10000832:	b570      	push	{r4, r5, r6, lr}
10000834:	460d      	mov	r5, r1
10000836:	447b      	add	r3, pc
10000838:	f000 fe1d 	bl	10001476 <_printf_char_common>
1000083c:	4604      	mov	r4, r0
1000083e:	4628      	mov	r0, r5
10000840:	f000 fe58 	bl	100014f4 <ferror>
10000844:	b110      	cbz	r0, 1000084c <_printf_char_file+0x1c>
10000846:	f04f 30ff 	mov.w	r0, #4294967295	; 0xffffffff
1000084a:	bd70      	pop	{r4, r5, r6, pc}
1000084c:	4620      	mov	r0, r4
1000084e:	bd70      	pop	{r4, r5, r6, pc}
10000850:	00004069 	.word	0x00004069

10000854 <_printf_wctomb>:
10000854:	e92d 5fff 	stmdb	sp!, {r0, r1, r2, r3, r4, r5, r6, r7, r8, r9, sl, fp, ip, lr}
10000858:	4615      	mov	r5, r2
1000085a:	468a      	mov	sl, r1
1000085c:	4604      	mov	r4, r0
1000085e:	f8df 80ac 	ldr.w	r8, [pc, #172]	; 1000090c <_printf_wctomb+0xb8>
10000862:	44f8      	add	r8, pc
10000864:	2700      	movs	r7, #0
10000866:	e9d8 1000 	ldrd	r1, r0, [r8]
1000086a:	463e      	mov	r6, r7
1000086c:	e9cd 1000 	strd	r1, r0, [sp]
10000870:	e010      	b.n	10000894 <_printf_wctomb+0x40>
10000872:	f83a 1016 	ldrh.w	r1, [sl, r6, lsl #1]
10000876:	466a      	mov	r2, sp
10000878:	a802      	add	r0, sp, #8
1000087a:	f000 fedb 	bl	10001634 <_c16rtomb>
1000087e:	1c41      	adds	r1, r0, #1
10000880:	d007      	beq.n	10000892 <_printf_wctomb+0x3e>
10000882:	7821      	ldrb	r1, [r4, #0]
10000884:	0689      	lsls	r1, r1, #26
10000886:	d503      	bpl.n	10000890 <_printf_wctomb+0x3c>
10000888:	69e2      	ldr	r2, [r4, #28]
1000088a:	1839      	adds	r1, r7, r0
1000088c:	4291      	cmp	r1, r2
1000088e:	d80d      	bhi.n	100008ac <_printf_wctomb+0x58>
10000890:	4407      	add	r7, r0
10000892:	1c76      	adds	r6, r6, #1
10000894:	7820      	ldrb	r0, [r4, #0]
10000896:	0680      	lsls	r0, r0, #26
10000898:	d502      	bpl.n	100008a0 <_printf_wctomb+0x4c>
1000089a:	69e0      	ldr	r0, [r4, #28]
1000089c:	42b8      	cmp	r0, r7
1000089e:	dd05      	ble.n	100008ac <_printf_wctomb+0x58>
100008a0:	42ae      	cmp	r6, r5
100008a2:	dbe6      	blt.n	10000872 <_printf_wctomb+0x1e>
100008a4:	f83a 0016 	ldrh.w	r0, [sl, r6, lsl #1]
100008a8:	2800      	cmp	r0, #0
100008aa:	d1e2      	bne.n	10000872 <_printf_wctomb+0x1e>
100008ac:	69a0      	ldr	r0, [r4, #24]
100008ae:	1bc0      	subs	r0, r0, r7
100008b0:	61a0      	str	r0, [r4, #24]
100008b2:	4620      	mov	r0, r4
100008b4:	f7ff ff0a 	bl	100006cc <_printf_pre_padding>
100008b8:	e9d8 1000 	ldrd	r1, r0, [r8]
100008bc:	e9cd 1000 	strd	r1, r0, [sp]
100008c0:	2000      	movs	r0, #0
100008c2:	e017      	b.n	100008f4 <_printf_wctomb+0xa0>
100008c4:	f83a 1018 	ldrh.w	r1, [sl, r8, lsl #1]
100008c8:	466a      	mov	r2, sp
100008ca:	a802      	add	r0, sp, #8
100008cc:	f000 feb2 	bl	10001634 <_c16rtomb>
100008d0:	f1b0 3fff 	cmp.w	r0, #4294967295	; 0xffffffff
100008d4:	4681      	mov	r9, r0
100008d6:	d00b      	beq.n	100008f0 <_printf_wctomb+0x9c>
100008d8:	2500      	movs	r5, #0
100008da:	f10d 0b08 	add.w	fp, sp, #8
100008de:	e005      	b.n	100008ec <_printf_wctomb+0x98>
100008e0:	e9d4 2101 	ldrd	r2, r1, [r4, #4]
100008e4:	f81b 0005 	ldrb.w	r0, [fp, r5]
100008e8:	4790      	blx	r2
100008ea:	1c6d      	adds	r5, r5, #1
100008ec:	454d      	cmp	r5, r9
100008ee:	d3f7      	bcc.n	100008e0 <_printf_wctomb+0x8c>
100008f0:	f108 0001 	add.w	r0, r8, #1
100008f4:	42b0      	cmp	r0, r6
100008f6:	4680      	mov	r8, r0
100008f8:	dbe4      	blt.n	100008c4 <_printf_wctomb+0x70>
100008fa:	6a20      	ldr	r0, [r4, #32]
100008fc:	4438      	add	r0, r7
100008fe:	6220      	str	r0, [r4, #32]
10000900:	4620      	mov	r0, r4
10000902:	f7ff fef9 	bl	100006f8 <_printf_post_padding>
10000906:	e8bd 9fff 	ldmia.w	sp!, {r0, r1, r2, r3, r4, r5, r6, r7, r8, r9, sl, fp, ip, pc}
1000090a:	0000      	.short	0x0000
1000090c:	000040d6 	.word	0x000040d6

10000910 <_printf_longlong_dec>:
10000910:	e92d 41f0 	stmdb	sp!, {r4, r5, r6, r7, r8, lr}
10000914:	4680      	mov	r8, r0
10000916:	1dd2      	adds	r2, r2, #7
10000918:	f022 0207 	bic.w	r2, r2, #7
1000091c:	2500      	movs	r5, #0
1000091e:	e9d2 0200 	ldrd	r0, r2, [r2]
10000922:	29f5      	cmp	r1, #245	; 0xf5
10000924:	a615      	add	r6, pc, #84	; (adr r6, 1000097c <_printf_longlong_dec+0x6c>)
10000926:	d014      	beq.n	10000952 <_printf_longlong_dec+0x42>
10000928:	1e01      	subs	r1, r0, #0
1000092a:	f172 0100 	sbcs.w	r1, r2, #0
1000092e:	da06      	bge.n	1000093e <_printf_longlong_dec+0x2e>
10000930:	2300      	movs	r3, #0
10000932:	ebd0 0003 	rsbs	r0, r0, r3
10000936:	eb63 0202 	sbc.w	r2, r3, r2
1000093a:	a611      	add	r6, pc, #68	; (adr r6, 10000980 <_printf_longlong_dec+0x70>)
1000093c:	e008      	b.n	10000950 <_printf_longlong_dec+0x40>
1000093e:	f8d8 1000 	ldr.w	r1, [r8]
10000942:	078b      	lsls	r3, r1, #30
10000944:	d501      	bpl.n	1000094a <_printf_longlong_dec+0x3a>
10000946:	a60f      	add	r6, pc, #60	; (adr r6, 10000984 <_printf_longlong_dec+0x74>)
10000948:	e002      	b.n	10000950 <_printf_longlong_dec+0x40>
1000094a:	0749      	lsls	r1, r1, #29
1000094c:	d501      	bpl.n	10000952 <_printf_longlong_dec+0x42>
1000094e:	a60e      	add	r6, pc, #56	; (adr r6, 10000988 <_printf_longlong_dec+0x78>)
10000950:	2501      	movs	r5, #1
10000952:	4611      	mov	r1, r2
10000954:	2400      	movs	r4, #0
10000956:	f108 0724 	add.w	r7, r8, #36	; 0x24
1000095a:	e004      	b.n	10000966 <_printf_longlong_dec+0x56>
1000095c:	f000 f95c 	bl	10000c18 <_ll_udiv10>
10000960:	3230      	adds	r2, #48	; 0x30
10000962:	553a      	strb	r2, [r7, r4]
10000964:	1c64      	adds	r4, r4, #1
10000966:	ea50 0201 	orrs.w	r2, r0, r1
1000096a:	d1f7      	bne.n	1000095c <_printf_longlong_dec+0x4c>
1000096c:	462b      	mov	r3, r5
1000096e:	4632      	mov	r2, r6
10000970:	4621      	mov	r1, r4
10000972:	4640      	mov	r0, r8
10000974:	e8bd 41f0 	ldmia.w	sp!, {r4, r5, r6, r7, r8, lr}
10000978:	f000 b993 	b.w	10000ca2 <_printf_int_common>
1000097c:	00000000 	.word	0x00000000
10000980:	0000002d 	.word	0x0000002d
10000984:	0000002b 	.word	0x0000002b
10000988:	00000020 	.word	0x00000020

1000098c <_printf_longlong_oct>:
1000098c:	b430      	push	{r4, r5}
1000098e:	2100      	movs	r1, #0
10000990:	f100 0424 	add.w	r4, r0, #36	; 0x24
10000994:	e008      	b.n	100009a8 <_printf_longlong_oct+0x1c>
10000996:	f002 0507 	and.w	r5, r2, #7
1000099a:	08d2      	lsrs	r2, r2, #3
1000099c:	3530      	adds	r5, #48	; 0x30
1000099e:	ea42 7243 	orr.w	r2, r2, r3, lsl #29
100009a2:	08db      	lsrs	r3, r3, #3
100009a4:	5465      	strb	r5, [r4, r1]
100009a6:	1c49      	adds	r1, r1, #1
100009a8:	ea52 0503 	orrs.w	r5, r2, r3
100009ac:	d1f3      	bne.n	10000996 <_printf_longlong_oct+0xa>
100009ae:	6804      	ldr	r4, [r0, #0]
100009b0:	2300      	movs	r3, #0
100009b2:	a210      	add	r2, pc, #64	; (adr r2, 100009f4 <_printf_ll_oct+0xc>)
100009b4:	0725      	lsls	r5, r4, #28
100009b6:	d508      	bpl.n	100009ca <_printf_longlong_oct+0x3e>
100009b8:	f004 0420 	and.w	r4, r4, #32
100009bc:	430c      	orrs	r4, r1
100009be:	d004      	beq.n	100009ca <_printf_longlong_oct+0x3e>
100009c0:	69c4      	ldr	r4, [r0, #28]
100009c2:	2301      	movs	r3, #1
100009c4:	a20c      	add	r2, pc, #48	; (adr r2, 100009f8 <_printf_ll_oct+0x10>)
100009c6:	1e64      	subs	r4, r4, #1
100009c8:	61c4      	str	r4, [r0, #28]
100009ca:	bc30      	pop	{r4, r5}
100009cc:	f000 b969 	b.w	10000ca2 <_printf_int_common>

100009d0 <_printf_int_oct>:
100009d0:	b510      	push	{r4, lr}
100009d2:	4604      	mov	r4, r0
100009d4:	4621      	mov	r1, r4
100009d6:	6810      	ldr	r0, [r2, #0]
100009d8:	f7ff fea8 	bl	1000072c <_printf_truncate_unsigned>
100009dc:	4602      	mov	r2, r0
100009de:	4620      	mov	r0, r4
100009e0:	e8bd 4010 	ldmia.w	sp!, {r4, lr}
100009e4:	2300      	movs	r3, #0
100009e6:	e7d1      	b.n	1000098c <_printf_longlong_oct>

100009e8 <_printf_ll_oct>:
100009e8:	1dd2      	adds	r2, r2, #7
100009ea:	f022 0107 	bic.w	r1, r2, #7
100009ee:	e9d1 2300 	ldrd	r2, r3, [r1]
100009f2:	e7cb      	b.n	1000098c <_printf_longlong_oct>
100009f4:	00000000 	.word	0x00000000
100009f8:	00000030 	.word	0x00000030

100009fc <_printf_longlong_hex>:
100009fc:	b4f0      	push	{r4, r5, r6, r7}
100009fe:	460d      	mov	r5, r1
10000a00:	8801      	ldrh	r1, [r0, #0]
10000a02:	0509      	lsls	r1, r1, #20
10000a04:	d502      	bpl.n	10000a0c <_printf_longlong_hex+0x10>
10000a06:	4c21      	ldr	r4, [pc, #132]	; (10000a8c <_printf_hex_ptr+0x12>)
10000a08:	447c      	add	r4, pc
10000a0a:	e002      	b.n	10000a12 <_printf_longlong_hex+0x16>
10000a0c:	4c1f      	ldr	r4, [pc, #124]	; (10000a8c <_printf_hex_ptr+0x12>)
10000a0e:	447c      	add	r4, pc
10000a10:	340e      	adds	r4, #14
10000a12:	2100      	movs	r1, #0
10000a14:	f100 0624 	add.w	r6, r0, #36	; 0x24
10000a18:	e008      	b.n	10000a2c <_printf_longlong_hex+0x30>
10000a1a:	f002 070f 	and.w	r7, r2, #15
10000a1e:	0912      	lsrs	r2, r2, #4
10000a20:	5de7      	ldrb	r7, [r4, r7]
10000a22:	ea42 7203 	orr.w	r2, r2, r3, lsl #28
10000a26:	091b      	lsrs	r3, r3, #4
10000a28:	5477      	strb	r7, [r6, r1]
10000a2a:	1c49      	adds	r1, r1, #1
10000a2c:	ea52 0703 	orrs.w	r7, r2, r3
10000a30:	d1f3      	bne.n	10000a1a <_printf_longlong_hex+0x1e>
10000a32:	7802      	ldrb	r2, [r0, #0]
10000a34:	2300      	movs	r3, #0
10000a36:	0712      	lsls	r2, r2, #28
10000a38:	d504      	bpl.n	10000a44 <_printf_longlong_hex+0x48>
10000a3a:	2d70      	cmp	r5, #112	; 0x70
10000a3c:	d006      	beq.n	10000a4c <_printf_longlong_hex+0x50>
10000a3e:	b109      	cbz	r1, 10000a44 <_printf_longlong_hex+0x48>
10000a40:	2302      	movs	r3, #2
10000a42:	3411      	adds	r4, #17
10000a44:	4622      	mov	r2, r4
10000a46:	bcf0      	pop	{r4, r5, r6, r7}
10000a48:	f000 b92b 	b.w	10000ca2 <_printf_int_common>
10000a4c:	2301      	movs	r3, #1
10000a4e:	3410      	adds	r4, #16
10000a50:	e7f8      	b.n	10000a44 <_printf_longlong_hex+0x48>

10000a52 <_printf_int_hex>:
10000a52:	b570      	push	{r4, r5, r6, lr}
10000a54:	4604      	mov	r4, r0
10000a56:	460d      	mov	r5, r1
10000a58:	4621      	mov	r1, r4
10000a5a:	6810      	ldr	r0, [r2, #0]
10000a5c:	f7ff fe66 	bl	1000072c <_printf_truncate_unsigned>
10000a60:	4602      	mov	r2, r0
10000a62:	4629      	mov	r1, r5
10000a64:	4620      	mov	r0, r4
10000a66:	e8bd 4070 	ldmia.w	sp!, {r4, r5, r6, lr}
10000a6a:	2300      	movs	r3, #0
10000a6c:	e7c6      	b.n	100009fc <_printf_longlong_hex>

10000a6e <_printf_ll_hex>:
10000a6e:	1dd2      	adds	r2, r2, #7
10000a70:	f022 0307 	bic.w	r3, r2, #7
10000a74:	e9d3 2300 	ldrd	r2, r3, [r3]
10000a78:	e7c0      	b.n	100009fc <_printf_longlong_hex>

10000a7a <_printf_hex_ptr>:
10000a7a:	6803      	ldr	r3, [r0, #0]
10000a7c:	6812      	ldr	r2, [r2, #0]
10000a7e:	f043 0320 	orr.w	r3, r3, #32
10000a82:	6003      	str	r3, [r0, #0]
10000a84:	2308      	movs	r3, #8
10000a86:	61c3      	str	r3, [r0, #28]
10000a88:	2300      	movs	r3, #0
10000a8a:	e7b7      	b.n	100009fc <_printf_longlong_hex>
10000a8c:	00003f38 	.word	0x00003f38

10000a90 <__printf>:
10000a90:	e92d 5ff0 	stmdb	sp!, {r4, r5, r6, r7, r8, r9, sl, fp, ip, lr}
10000a94:	4689      	mov	r9, r1
10000a96:	4604      	mov	r4, r0
10000a98:	f04f 0a00 	mov.w	sl, #0
10000a9c:	f8df b174 	ldr.w	fp, [pc, #372]	; 10000c14 <__printf+0x184>
10000aa0:	44fb      	add	fp, pc
10000aa2:	f8c0 a020 	str.w	sl, [r0, #32]
10000aa6:	4620      	mov	r0, r4
10000aa8:	68e1      	ldr	r1, [r4, #12]
10000aaa:	4788      	blx	r1
10000aac:	2800      	cmp	r0, #0
10000aae:	d074      	beq.n	10000b9a <__printf+0x10a>
10000ab0:	2825      	cmp	r0, #37	; 0x25
10000ab2:	d006      	beq.n	10000ac2 <__printf+0x32>
10000ab4:	e9d4 2101 	ldrd	r2, r1, [r4, #4]
10000ab8:	4790      	blx	r2
10000aba:	6a20      	ldr	r0, [r4, #32]
10000abc:	1c40      	adds	r0, r0, #1
10000abe:	6220      	str	r0, [r4, #32]
10000ac0:	e7f1      	b.n	10000aa6 <__printf+0x16>
10000ac2:	2600      	movs	r6, #0
10000ac4:	465f      	mov	r7, fp
10000ac6:	4620      	mov	r0, r4
10000ac8:	68e1      	ldr	r1, [r4, #12]
10000aca:	4788      	blx	r1
10000acc:	2820      	cmp	r0, #32
10000ace:	4605      	mov	r5, r0
10000ad0:	db07      	blt.n	10000ae2 <__printf+0x52>
10000ad2:	2d31      	cmp	r5, #49	; 0x31
10000ad4:	d205      	bcs.n	10000ae2 <__printf+0x52>
10000ad6:	1978      	adds	r0, r7, r5
10000ad8:	f810 0c20 	ldrb.w	r0, [r0, #-32]
10000adc:	b108      	cbz	r0, 10000ae2 <__printf+0x52>
10000ade:	4306      	orrs	r6, r0
10000ae0:	e7f1      	b.n	10000ac6 <__printf+0x36>
10000ae2:	07b0      	lsls	r0, r6, #30
10000ae4:	d501      	bpl.n	10000aea <__printf+0x5a>
10000ae6:	f026 0604 	bic.w	r6, r6, #4
10000aea:	f8c4 a01c 	str.w	sl, [r4, #28]
10000aee:	2700      	movs	r7, #0
10000af0:	f8c4 a018 	str.w	sl, [r4, #24]
10000af4:	2d2a      	cmp	r5, #42	; 0x2a
10000af6:	d009      	beq.n	10000b0c <__printf+0x7c>
10000af8:	4628      	mov	r0, r5
10000afa:	f003 fecb 	bl	10004894 <_is_digit>
10000afe:	b338      	cbz	r0, 10000b50 <__printf+0xc0>
10000b00:	eb04 0887 	add.w	r8, r4, r7, lsl #2
10000b04:	3d30      	subs	r5, #48	; 0x30
10000b06:	f8c8 5018 	str.w	r5, [r8, #24]
10000b0a:	e019      	b.n	10000b40 <__printf+0xb0>
10000b0c:	f859 1b04 	ldr.w	r1, [r9], #4
10000b10:	4620      	mov	r0, r4
10000b12:	eb04 0287 	add.w	r2, r4, r7, lsl #2
10000b16:	6191      	str	r1, [r2, #24]
10000b18:	68e1      	ldr	r1, [r4, #12]
10000b1a:	4788      	blx	r1
10000b1c:	2f01      	cmp	r7, #1
10000b1e:	4605      	mov	r5, r0
10000b20:	d118      	bne.n	10000b54 <__printf+0xc4>
10000b22:	69e0      	ldr	r0, [r4, #28]
10000b24:	2800      	cmp	r0, #0
10000b26:	da20      	bge.n	10000b6a <__printf+0xda>
10000b28:	f026 0620 	bic.w	r6, r6, #32
10000b2c:	e01d      	b.n	10000b6a <__printf+0xda>
10000b2e:	f8d8 0018 	ldr.w	r0, [r8, #24]
10000b32:	eb00 0080 	add.w	r0, r0, r0, lsl #2
10000b36:	eb05 0040 	add.w	r0, r5, r0, lsl #1
10000b3a:	3830      	subs	r0, #48	; 0x30
10000b3c:	f8c8 0018 	str.w	r0, [r8, #24]
10000b40:	4620      	mov	r0, r4
10000b42:	68e1      	ldr	r1, [r4, #12]
10000b44:	4788      	blx	r1
10000b46:	4605      	mov	r5, r0
10000b48:	f003 fea4 	bl	10004894 <_is_digit>
10000b4c:	2800      	cmp	r0, #0
10000b4e:	d1ee      	bne.n	10000b2e <__printf+0x9e>
10000b50:	2f01      	cmp	r7, #1
10000b52:	d00a      	beq.n	10000b6a <__printf+0xda>
10000b54:	2d2e      	cmp	r5, #46	; 0x2e
10000b56:	d108      	bne.n	10000b6a <__printf+0xda>
10000b58:	4620      	mov	r0, r4
10000b5a:	68e1      	ldr	r1, [r4, #12]
10000b5c:	4788      	blx	r1
10000b5e:	1c7f      	adds	r7, r7, #1
10000b60:	4605      	mov	r5, r0
10000b62:	2f02      	cmp	r7, #2
10000b64:	f046 0620 	orr.w	r6, r6, #32
10000b68:	dbc4      	blt.n	10000af4 <__printf+0x64>
10000b6a:	69a0      	ldr	r0, [r4, #24]
10000b6c:	2800      	cmp	r0, #0
10000b6e:	da03      	bge.n	10000b78 <__printf+0xe8>
10000b70:	4240      	negs	r0, r0
10000b72:	f046 0601 	orr.w	r6, r6, #1
10000b76:	61a0      	str	r0, [r4, #24]
10000b78:	07f0      	lsls	r0, r6, #31
10000b7a:	d001      	beq.n	10000b80 <__printf+0xf0>
10000b7c:	f026 0610 	bic.w	r6, r6, #16
10000b80:	2d6c      	cmp	r5, #108	; 0x6c
10000b82:	d00b      	beq.n	10000b9c <__printf+0x10c>
10000b84:	2d68      	cmp	r5, #104	; 0x68
10000b86:	d009      	beq.n	10000b9c <__printf+0x10c>
10000b88:	2d4c      	cmp	r5, #76	; 0x4c
10000b8a:	d039      	beq.n	10000c00 <__printf+0x170>
10000b8c:	2d6a      	cmp	r5, #106	; 0x6a
10000b8e:	d035      	beq.n	10000bfc <__printf+0x16c>
10000b90:	2d74      	cmp	r5, #116	; 0x74
10000b92:	d035      	beq.n	10000c00 <__printf+0x170>
10000b94:	2d7a      	cmp	r5, #122	; 0x7a
10000b96:	d033      	beq.n	10000c00 <__printf+0x170>
10000b98:	e016      	b.n	10000bc8 <__printf+0x138>
10000b9a:	e038      	b.n	10000c0e <__printf+0x17e>
10000b9c:	68e1      	ldr	r1, [r4, #12]
10000b9e:	462f      	mov	r7, r5
10000ba0:	4620      	mov	r0, r4
10000ba2:	4788      	blx	r1
10000ba4:	42b8      	cmp	r0, r7
10000ba6:	4605      	mov	r5, r0
10000ba8:	d109      	bne.n	10000bbe <__printf+0x12e>
10000baa:	2f6c      	cmp	r7, #108	; 0x6c
10000bac:	d026      	beq.n	10000bfc <__printf+0x16c>
10000bae:	f44f 6080 	mov.w	r0, #1024	; 0x400
10000bb2:	68e1      	ldr	r1, [r4, #12]
10000bb4:	4306      	orrs	r6, r0
10000bb6:	4620      	mov	r0, r4
10000bb8:	4788      	blx	r1
10000bba:	4605      	mov	r5, r0
10000bbc:	e004      	b.n	10000bc8 <__printf+0x138>
10000bbe:	2f6c      	cmp	r7, #108	; 0x6c
10000bc0:	d01a      	beq.n	10000bf8 <__printf+0x168>
10000bc2:	f44f 7080 	mov.w	r0, #256	; 0x100
10000bc6:	4306      	orrs	r6, r0
10000bc8:	b30d      	cbz	r5, 10000c0e <__printf+0x17e>
10000bca:	f1a5 0041 	sub.w	r0, r5, #65	; 0x41
10000bce:	2819      	cmp	r0, #25
10000bd0:	d802      	bhi.n	10000bd8 <__printf+0x148>
10000bd2:	3520      	adds	r5, #32
10000bd4:	f446 6600 	orr.w	r6, r6, #2048	; 0x800
10000bd8:	464a      	mov	r2, r9
10000bda:	4629      	mov	r1, r5
10000bdc:	4620      	mov	r0, r4
10000bde:	6026      	str	r6, [r4, #0]
10000be0:	464e      	mov	r6, r9
10000be2:	f7ff fc5d 	bl	100004a0 <_printf_n>
10000be6:	b180      	cbz	r0, 10000c0a <__printf+0x17a>
10000be8:	2801      	cmp	r0, #1
10000bea:	d00b      	beq.n	10000c04 <__printf+0x174>
10000bec:	1df6      	adds	r6, r6, #7
10000bee:	f026 0007 	bic.w	r0, r6, #7
10000bf2:	f100 0908 	add.w	r9, r0, #8
10000bf6:	e756      	b.n	10000aa6 <__printf+0x16>
10000bf8:	2040      	movs	r0, #64	; 0x40
10000bfa:	e7e4      	b.n	10000bc6 <__printf+0x136>
10000bfc:	2080      	movs	r0, #128	; 0x80
10000bfe:	e7d8      	b.n	10000bb2 <__printf+0x122>
10000c00:	2000      	movs	r0, #0
10000c02:	e7d6      	b.n	10000bb2 <__printf+0x122>
10000c04:	f106 0904 	add.w	r9, r6, #4
10000c08:	e74d      	b.n	10000aa6 <__printf+0x16>
10000c0a:	4628      	mov	r0, r5
10000c0c:	e752      	b.n	10000ab4 <__printf+0x24>
10000c0e:	6a20      	ldr	r0, [r4, #32]
10000c10:	e8bd 9ff0 	ldmia.w	sp!, {r4, r5, r6, r7, r8, r9, sl, fp, ip, pc}
10000c14:	00003ec8 	.word	0x00003ec8

10000c18 <_ll_udiv10>:
10000c18:	b530      	push	{r4, r5, lr}
10000c1a:	f1b0 020a 	subs.w	r2, r0, #10
10000c1e:	f171 0300 	sbcs.w	r3, r1, #0
10000c22:	ea4f 0e90 	mov.w	lr, r0, lsr #2
10000c26:	ea4e 7e81 	orr.w	lr, lr, r1, lsl #30
10000c2a:	ebb0 000e 	subs.w	r0, r0, lr
10000c2e:	eb61 0191 	sbc.w	r1, r1, r1, lsr #2
10000c32:	ea4f 1e10 	mov.w	lr, r0, lsr #4
10000c36:	ea4e 7e01 	orr.w	lr, lr, r1, lsl #28
10000c3a:	eb10 000e 	adds.w	r0, r0, lr
10000c3e:	eb41 1111 	adc.w	r1, r1, r1, lsr #4
10000c42:	ea4f 2e10 	mov.w	lr, r0, lsr #8
10000c46:	ea4e 6e01 	orr.w	lr, lr, r1, lsl #24
10000c4a:	eb10 000e 	adds.w	r0, r0, lr
10000c4e:	eb41 2111 	adc.w	r1, r1, r1, lsr #8
10000c52:	ea4f 4e10 	mov.w	lr, r0, lsr #16
10000c56:	ea4e 4e01 	orr.w	lr, lr, r1, lsl #16
10000c5a:	eb10 000e 	adds.w	r0, r0, lr
10000c5e:	eb41 4111 	adc.w	r1, r1, r1, lsr #16
10000c62:	1840      	adds	r0, r0, r1
10000c64:	f141 0100 	adc.w	r1, r1, #0
10000c68:	ea4f 00d0 	mov.w	r0, r0, lsr #3
10000c6c:	ea40 7041 	orr.w	r0, r0, r1, lsl #29
10000c70:	ea4f 01d1 	mov.w	r1, r1, lsr #3
10000c74:	ea4f 0481 	mov.w	r4, r1, lsl #2
10000c78:	ea44 7490 	orr.w	r4, r4, r0, lsr #30
10000c7c:	eb10 0580 	adds.w	r5, r0, r0, lsl #2
10000c80:	eb44 0401 	adc.w	r4, r4, r1
10000c84:	196d      	adds	r5, r5, r5
10000c86:	eb44 0404 	adc.w	r4, r4, r4
10000c8a:	1b52      	subs	r2, r2, r5
10000c8c:	41a3      	sbcs	r3, r4
10000c8e:	f04f 0300 	mov.w	r3, #0
10000c92:	bf48      	it	mi
10000c94:	320a      	addmi	r2, #10
10000c96:	d500      	bpl.n	10000c9a <_ll_udiv10+0x82>
10000c98:	bd30      	pop	{r4, r5, pc}
10000c9a:	1c40      	adds	r0, r0, #1
10000c9c:	f141 0100 	adc.w	r1, r1, #0
10000ca0:	bd30      	pop	{r4, r5, pc}

10000ca2 <_printf_int_common>:
10000ca2:	e92d 47f0 	stmdb	sp!, {r4, r5, r6, r7, r8, r9, sl, lr}
10000ca6:	460d      	mov	r5, r1
10000ca8:	4699      	mov	r9, r3
10000caa:	4692      	mov	sl, r2
10000cac:	4604      	mov	r4, r0
10000cae:	f100 0824 	add.w	r8, r0, #36	; 0x24
10000cb2:	6801      	ldr	r1, [r0, #0]
10000cb4:	0688      	lsls	r0, r1, #26
10000cb6:	d504      	bpl.n	10000cc2 <_printf_int_common+0x20>
10000cb8:	69e0      	ldr	r0, [r4, #28]
10000cba:	f021 0110 	bic.w	r1, r1, #16
10000cbe:	6021      	str	r1, [r4, #0]
10000cc0:	e000      	b.n	10000cc4 <_printf_int_common+0x22>
10000cc2:	2001      	movs	r0, #1
10000cc4:	42a8      	cmp	r0, r5
10000cc6:	dd01      	ble.n	10000ccc <_printf_int_common+0x2a>
10000cc8:	1b47      	subs	r7, r0, r5
10000cca:	e000      	b.n	10000cce <_printf_int_common+0x2c>
10000ccc:	2700      	movs	r7, #0
10000cce:	69a1      	ldr	r1, [r4, #24]
10000cd0:	197a      	adds	r2, r7, r5
10000cd2:	eb02 0009 	add.w	r0, r2, r9
10000cd6:	1a08      	subs	r0, r1, r0
10000cd8:	61a0      	str	r0, [r4, #24]
10000cda:	7820      	ldrb	r0, [r4, #0]
10000cdc:	06c0      	lsls	r0, r0, #27
10000cde:	d402      	bmi.n	10000ce6 <_printf_int_common+0x44>
10000ce0:	4620      	mov	r0, r4
10000ce2:	f7ff fcf3 	bl	100006cc <_printf_pre_padding>
10000ce6:	2600      	movs	r6, #0
10000ce8:	e008      	b.n	10000cfc <_printf_int_common+0x5a>
10000cea:	e9d4 2101 	ldrd	r2, r1, [r4, #4]
10000cee:	f81a 0006 	ldrb.w	r0, [sl, r6]
10000cf2:	4790      	blx	r2
10000cf4:	6a20      	ldr	r0, [r4, #32]
10000cf6:	1c40      	adds	r0, r0, #1
10000cf8:	1c76      	adds	r6, r6, #1
10000cfa:	6220      	str	r0, [r4, #32]
10000cfc:	454e      	cmp	r6, r9
10000cfe:	dbf4      	blt.n	10000cea <_printf_int_common+0x48>
10000d00:	7820      	ldrb	r0, [r4, #0]
10000d02:	06c0      	lsls	r0, r0, #27
10000d04:	d50a      	bpl.n	10000d1c <_printf_int_common+0x7a>
10000d06:	4620      	mov	r0, r4
10000d08:	f7ff fce0 	bl	100006cc <_printf_pre_padding>
10000d0c:	e006      	b.n	10000d1c <_printf_int_common+0x7a>
10000d0e:	e9d4 2101 	ldrd	r2, r1, [r4, #4]
10000d12:	2030      	movs	r0, #48	; 0x30
10000d14:	4790      	blx	r2
10000d16:	6a20      	ldr	r0, [r4, #32]
10000d18:	1c40      	adds	r0, r0, #1
10000d1a:	6220      	str	r0, [r4, #32]
10000d1c:	1e38      	subs	r0, r7, #0
10000d1e:	f1a7 0701 	sub.w	r7, r7, #1
10000d22:	dcf4      	bgt.n	10000d0e <_printf_int_common+0x6c>
10000d24:	e007      	b.n	10000d36 <_printf_int_common+0x94>
10000d26:	e9d4 2101 	ldrd	r2, r1, [r4, #4]
10000d2a:	f818 0005 	ldrb.w	r0, [r8, r5]
10000d2e:	4790      	blx	r2
10000d30:	6a20      	ldr	r0, [r4, #32]
10000d32:	1c40      	adds	r0, r0, #1
10000d34:	6220      	str	r0, [r4, #32]
10000d36:	1e28      	subs	r0, r5, #0
10000d38:	f1a5 0501 	sub.w	r5, r5, #1
10000d3c:	dcf3      	bgt.n	10000d26 <_printf_int_common+0x84>
10000d3e:	4620      	mov	r0, r4
10000d40:	f7ff fcda 	bl	100006f8 <_printf_post_padding>
10000d44:	7820      	ldrb	r0, [r4, #0]
10000d46:	0600      	lsls	r0, r0, #24
10000d48:	d502      	bpl.n	10000d50 <_printf_int_common+0xae>
10000d4a:	2002      	movs	r0, #2
10000d4c:	e8bd 87f0 	ldmia.w	sp!, {r4, r5, r6, r7, r8, r9, sl, pc}
10000d50:	2001      	movs	r0, #1
10000d52:	e7fb      	b.n	10000d4c <_printf_int_common+0xaa>

10000d54 <_fp_digits>:
10000d54:	e92d 4fff 	stmdb	sp!, {r0, r1, r2, r3, r4, r5, r6, r7, r8, r9, sl, fp, lr}
10000d58:	460c      	mov	r4, r1
10000d5a:	461e      	mov	r6, r3
10000d5c:	f04f 37ff 	mov.w	r7, #4294967295	; 0xffffffff
10000d60:	b08b      	sub	sp, #44	; 0x2c
10000d62:	e9d2 0100 	ldrd	r0, r1, [r2]
10000d66:	f8dd 8060 	ldr.w	r8, [sp, #96]	; 0x60
10000d6a:	900a      	str	r0, [sp, #40]	; 0x28
10000d6c:	468a      	mov	sl, r1
10000d6e:	f3c1 550a 	ubfx	r5, r1, #20, #11
10000d72:	b905      	cbnz	r5, 10000d76 <_fp_digits+0x22>
10000d74:	463d      	mov	r5, r7
10000d76:	2100      	movs	r1, #0
10000d78:	4608      	mov	r0, r1
10000d7a:	f04f 0000 	mov.w	r0, #0
10000d7e:	f1ba 0f00 	cmp.w	sl, #0
10000d82:	f400 0040 	and.w	r0, r0, #12582912	; 0xc00000
10000d86:	da05      	bge.n	10000d94 <_fp_digits+0x40>
10000d88:	eb00 0080 	add.w	r0, r0, r0, lsl #2
10000d8c:	f44f 0140 	mov.w	r1, #12582912	; 0xc00000
10000d90:	ea01 0050 	and.w	r0, r1, r0, lsr #1
10000d94:	ea4f 5990 	mov.w	r9, r0, lsr #22
10000d98:	f1b9 0f01 	cmp.w	r9, #1
10000d9c:	dd00      	ble.n	10000da0 <_fp_digits+0x4c>
10000d9e:	46b9      	mov	r9, r7
10000da0:	980a      	ldr	r0, [sp, #40]	; 0x28
10000da2:	ea50 004a 	orrs.w	r0, r0, sl, lsl #1
10000da6:	d00e      	beq.n	10000dc6 <_fp_digits+0x72>
10000da8:	f644 5010 	movw	r0, #19728	; 0x4d10
10000dac:	f2a5 35ff 	subw	r5, r5, #1023	; 0x3ff
10000db0:	4345      	muls	r5, r0
10000db2:	142f      	asrs	r7, r5, #16
10000db4:	f1b8 0f00 	cmp.w	r8, #0
10000db8:	d01e      	beq.n	10000df8 <_fp_digits+0xa4>
10000dba:	4275      	negs	r5, r6
10000dbc:	1e29      	subs	r1, r5, #0
10000dbe:	dd1e      	ble.n	10000dfe <_fp_digits+0xaa>
10000dc0:	f1c9 0200 	rsb	r2, r9, #0
10000dc4:	e01c      	b.n	10000e00 <_fp_digits+0xac>
10000dc6:	f1b8 0f01 	cmp.w	r8, #1
10000dca:	f04f 0000 	mov.w	r0, #0
10000dce:	d001      	beq.n	10000dd4 <_fp_digits+0x80>
10000dd0:	2130      	movs	r1, #48	; 0x30
10000dd2:	e003      	b.n	10000ddc <_fp_digits+0x88>
10000dd4:	43f2      	mvns	r2, r6
10000dd6:	e005      	b.n	10000de4 <_fp_digits+0x90>
10000dd8:	5421      	strb	r1, [r4, r0]
10000dda:	1c40      	adds	r0, r0, #1
10000ddc:	42b0      	cmp	r0, r6
10000dde:	dbfb      	blt.n	10000dd8 <_fp_digits+0x84>
10000de0:	4630      	mov	r0, r6
10000de2:	2200      	movs	r2, #0
10000de4:	2100      	movs	r1, #0
10000de6:	5421      	strb	r1, [r4, r0]
10000de8:	990b      	ldr	r1, [sp, #44]	; 0x2c
10000dea:	f8c1 8008 	str.w	r8, [r1, #8]
10000dee:	e9c1 2000 	strd	r2, r0, [r1]
10000df2:	b00f      	add	sp, #60	; 0x3c
10000df4:	e8bd 8ff0 	ldmia.w	sp!, {r4, r5, r6, r7, r8, r9, sl, fp, pc}
10000df8:	1bbd      	subs	r5, r7, r6
10000dfa:	1c6d      	adds	r5, r5, #1
10000dfc:	e7de      	b.n	10000dbc <_fp_digits+0x68>
10000dfe:	464a      	mov	r2, r9
10000e00:	da00      	bge.n	10000e04 <_fp_digits+0xb0>
10000e02:	4269      	negs	r1, r5
10000e04:	a806      	add	r0, sp, #24
10000e06:	f000 fcad 	bl	10001764 <_btod_etento>
10000e0a:	ab06      	add	r3, sp, #24
10000e0c:	e893 0007 	ldmia.w	r3, {r0, r1, r2}
10000e10:	ab03      	add	r3, sp, #12
10000e12:	e883 0007 	stmia.w	r3, {r0, r1, r2}
10000e16:	4650      	mov	r0, sl
10000e18:	990a      	ldr	r1, [sp, #40]	; 0x28
10000e1a:	f003 f95b 	bl	100040d4 <_btod_d2e>
10000e1e:	e88d 0007 	stmia.w	sp, {r0, r1, r2}
10000e22:	f5a0 5000 	sub.w	r0, r0, #8192	; 0x2000
10000e26:	381f      	subs	r0, #31
10000e28:	9000      	str	r0, [sp, #0]
10000e2a:	9803      	ldr	r0, [sp, #12]
10000e2c:	2d00      	cmp	r5, #0
10000e2e:	dd0a      	ble.n	10000e46 <_fp_digits+0xf2>
10000e30:	f242 011f 	movw	r1, #8223	; 0x201f
10000e34:	464a      	mov	r2, r9
10000e36:	4408      	add	r0, r1
10000e38:	2300      	movs	r3, #0
10000e3a:	a903      	add	r1, sp, #12
10000e3c:	9003      	str	r0, [sp, #12]
10000e3e:	4668      	mov	r0, sp
10000e40:	f003 fbc4 	bl	100045cc <_btod_ediv>
10000e44:	e009      	b.n	10000e5a <_fp_digits+0x106>
10000e46:	f5a0 5000 	sub.w	r0, r0, #8192	; 0x2000
10000e4a:	464a      	mov	r2, r9
10000e4c:	381f      	subs	r0, #31
10000e4e:	2300      	movs	r3, #0
10000e50:	a903      	add	r1, sp, #12
10000e52:	9003      	str	r0, [sp, #12]
10000e54:	4668      	mov	r0, sp
10000e56:	f003 fbce 	bl	100045f6 <_btod_emul>
10000e5a:	e88d 0007 	stmia.w	sp, {r0, r1, r2}
10000e5e:	0400      	lsls	r0, r0, #16
10000e60:	0c00      	lsrs	r0, r0, #16
10000e62:	d003      	beq.n	10000e6c <_fp_digits+0x118>
10000e64:	f04f 30ff 	mov.w	r0, #4294967295	; 0xffffffff
10000e68:	0841      	lsrs	r1, r0, #1
10000e6a:	e000      	b.n	10000e6e <_fp_digits+0x11a>
10000e6c:	4610      	mov	r0, r2
10000e6e:	f1b8 0f00 	cmp.w	r8, #0
10000e72:	d003      	beq.n	10000e7c <_fp_digits+0x128>
10000e74:	2200      	movs	r2, #0
10000e76:	9200      	str	r2, [sp, #0]
10000e78:	4615      	mov	r5, r2
10000e7a:	e01e      	b.n	10000eba <_fp_digits+0x166>
10000e7c:	1e75      	subs	r5, r6, #1
10000e7e:	d405      	bmi.n	10000e8c <_fp_digits+0x138>
10000e80:	f7ff feca 	bl	10000c18 <_ll_udiv10>
10000e84:	3230      	adds	r2, #48	; 0x30
10000e86:	5562      	strb	r2, [r4, r5]
10000e88:	1e6d      	subs	r5, r5, #1
10000e8a:	d5f9      	bpl.n	10000e80 <_fp_digits+0x12c>
10000e8c:	46b3      	mov	fp, r6
10000e8e:	2201      	movs	r2, #1
10000e90:	4308      	orrs	r0, r1
10000e92:	d002      	beq.n	10000e9a <_fp_digits+0x146>
10000e94:	2200      	movs	r2, #0
10000e96:	1c7f      	adds	r7, r7, #1
10000e98:	e004      	b.n	10000ea4 <_fp_digits+0x150>
10000e9a:	7820      	ldrb	r0, [r4, #0]
10000e9c:	2830      	cmp	r0, #48	; 0x30
10000e9e:	d101      	bne.n	10000ea4 <_fp_digits+0x150>
10000ea0:	2200      	movs	r2, #0
10000ea2:	1e7f      	subs	r7, r7, #1
10000ea4:	2a00      	cmp	r2, #0
10000ea6:	9709      	str	r7, [sp, #36]	; 0x24
10000ea8:	d084      	beq.n	10000db4 <_fp_digits+0x60>
10000eaa:	e01d      	b.n	10000ee8 <_fp_digits+0x194>
10000eac:	2d11      	cmp	r5, #17
10000eae:	da07      	bge.n	10000ec0 <_fp_digits+0x16c>
10000eb0:	f7ff feb2 	bl	10000c18 <_ll_udiv10>
10000eb4:	3230      	adds	r2, #48	; 0x30
10000eb6:	5562      	strb	r2, [r4, r5]
10000eb8:	1c6d      	adds	r5, r5, #1
10000eba:	ea50 0201 	orrs.w	r2, r0, r1
10000ebe:	d1f5      	bne.n	10000eac <_fp_digits+0x158>
10000ec0:	4308      	orrs	r0, r1
10000ec2:	d002      	beq.n	10000eca <_fp_digits+0x176>
10000ec4:	9800      	ldr	r0, [sp, #0]
10000ec6:	b1c8      	cbz	r0, 10000efc <_fp_digits+0x1a8>
10000ec8:	e00e      	b.n	10000ee8 <_fp_digits+0x194>
10000eca:	2100      	movs	r1, #0
10000ecc:	1e68      	subs	r0, r5, #1
10000ece:	e005      	b.n	10000edc <_fp_digits+0x188>
10000ed0:	5c23      	ldrb	r3, [r4, r0]
10000ed2:	5c62      	ldrb	r2, [r4, r1]
10000ed4:	5463      	strb	r3, [r4, r1]
10000ed6:	5422      	strb	r2, [r4, r0]
10000ed8:	1e40      	subs	r0, r0, #1
10000eda:	1c49      	adds	r1, r1, #1
10000edc:	4281      	cmp	r1, r0
10000ede:	dbf7      	blt.n	10000ed0 <_fp_digits+0x17c>
10000ee0:	46ab      	mov	fp, r5
10000ee2:	1ba8      	subs	r0, r5, r6
10000ee4:	1e40      	subs	r0, r0, #1
10000ee6:	9009      	str	r0, [sp, #36]	; 0x24
10000ee8:	2000      	movs	r0, #0
10000eea:	f804 000b 	strb.w	r0, [r4, fp]
10000eee:	980b      	ldr	r0, [sp, #44]	; 0x2c
10000ef0:	9a09      	ldr	r2, [sp, #36]	; 0x24
10000ef2:	f8c0 8008 	str.w	r8, [r0, #8]
10000ef6:	e9c0 2b00 	strd	r2, fp, [r0]
10000efa:	e77a      	b.n	10000df2 <_fp_digits+0x9e>
10000efc:	2611      	movs	r6, #17
10000efe:	f04f 0800 	mov.w	r8, #0
10000f02:	e757      	b.n	10000db4 <_fp_digits+0x60>

10000f04 <_printf_fp_dec_real>:
10000f04:	e92d 4ff0 	stmdb	sp!, {r4, r5, r6, r7, r8, r9, sl, fp, lr}
10000f08:	4688      	mov	r8, r1
10000f0a:	4604      	mov	r4, r0
10000f0c:	1dd2      	adds	r2, r2, #7
10000f0e:	f022 0107 	bic.w	r1, r2, #7
10000f12:	b091      	sub	sp, #68	; 0x44
10000f14:	e9d1 0100 	ldrd	r0, r1, [r1]
10000f18:	e9cd 010a 	strd	r0, r1, [sp, #40]	; 0x28
10000f1c:	f003 fca2 	bl	10004864 <__ARM_fpclassify>
10000f20:	4602      	mov	r2, r0
10000f22:	980b      	ldr	r0, [sp, #44]	; 0x2c
10000f24:	0fc0      	lsrs	r0, r0, #31
10000f26:	d001      	beq.n	10000f2c <_printf_fp_dec_real+0x28>
10000f28:	202d      	movs	r0, #45	; 0x2d
10000f2a:	e007      	b.n	10000f3c <_printf_fp_dec_real+0x38>
10000f2c:	6820      	ldr	r0, [r4, #0]
10000f2e:	0781      	lsls	r1, r0, #30
10000f30:	d501      	bpl.n	10000f36 <_printf_fp_dec_real+0x32>
10000f32:	202b      	movs	r0, #43	; 0x2b
10000f34:	e002      	b.n	10000f3c <_printf_fp_dec_real+0x38>
10000f36:	2120      	movs	r1, #32
10000f38:	ea01 00c0 	and.w	r0, r1, r0, lsl #3
10000f3c:	2a03      	cmp	r2, #3
10000f3e:	9009      	str	r0, [sp, #36]	; 0x24
10000f40:	d001      	beq.n	10000f46 <_printf_fp_dec_real+0x42>
10000f42:	2a07      	cmp	r2, #7
10000f44:	db05      	blt.n	10000f52 <_printf_fp_dec_real+0x4e>
10000f46:	4603      	mov	r3, r0
10000f48:	4641      	mov	r1, r8
10000f4a:	4620      	mov	r0, r4
10000f4c:	f000 fbca 	bl	100016e4 <_printf_fp_infnan>
10000f50:	e10b      	b.n	1000116a <_printf_fp_dec_real+0x266>
10000f52:	7820      	ldrb	r0, [r4, #0]
10000f54:	0680      	lsls	r0, r0, #26
10000f56:	d501      	bpl.n	10000f5c <_printf_fp_dec_real+0x58>
10000f58:	69e0      	ldr	r0, [r4, #28]
10000f5a:	e000      	b.n	10000f5e <_printf_fp_dec_real+0x5a>
10000f5c:	2006      	movs	r0, #6
10000f5e:	f1b8 0f65 	cmp.w	r8, #101	; 0x65
10000f62:	4681      	mov	r9, r0
10000f64:	d006      	beq.n	10000f74 <_printf_fp_dec_real+0x70>
10000f66:	f1b8 0f66 	cmp.w	r8, #102	; 0x66
10000f6a:	d018      	beq.n	10000f9e <_printf_fp_dec_real+0x9a>
10000f6c:	f1b8 0f67 	cmp.w	r8, #103	; 0x67
10000f70:	d170      	bne.n	10001054 <_printf_fp_dec_real+0x150>
10000f72:	e031      	b.n	10000fd8 <_printf_fp_dec_real+0xd4>
10000f74:	2000      	movs	r0, #0
10000f76:	f1b9 0f11 	cmp.w	r9, #17
10000f7a:	9000      	str	r0, [sp, #0]
10000f7c:	db01      	blt.n	10000f82 <_printf_fp_dec_real+0x7e>
10000f7e:	2311      	movs	r3, #17
10000f80:	e001      	b.n	10000f86 <_printf_fp_dec_real+0x82>
10000f82:	f109 0301 	add.w	r3, r9, #1
10000f86:	aa0a      	add	r2, sp, #40	; 0x28
10000f88:	a901      	add	r1, sp, #4
10000f8a:	a80c      	add	r0, sp, #48	; 0x30
10000f8c:	f7ff fee2 	bl	10000d54 <_fp_digits>
10000f90:	e9dd 700c 	ldrd	r7, r0, [sp, #48]	; 0x30
10000f94:	2600      	movs	r6, #0
10000f96:	f109 0501 	add.w	r5, r9, #1
10000f9a:	4683      	mov	fp, r0
10000f9c:	e047      	b.n	1000102e <_printf_fp_dec_real+0x12a>
10000f9e:	2001      	movs	r0, #1
10000fa0:	464b      	mov	r3, r9
10000fa2:	9000      	str	r0, [sp, #0]
10000fa4:	f04f 4700 	mov.w	r7, #2147483648	; 0x80000000
10000fa8:	aa0a      	add	r2, sp, #40	; 0x28
10000faa:	a901      	add	r1, sp, #4
10000fac:	a80c      	add	r0, sp, #48	; 0x30
10000fae:	f7ff fed1 	bl	10000d54 <_fp_digits>
10000fb2:	e9dd b00d 	ldrd	fp, r0, [sp, #52]	; 0x34
10000fb6:	990c      	ldr	r1, [sp, #48]	; 0x30
10000fb8:	465d      	mov	r5, fp
10000fba:	2600      	movs	r6, #0
10000fbc:	b910      	cbnz	r0, 10000fc4 <_printf_fp_dec_real+0xc0>
10000fbe:	f109 0001 	add.w	r0, r9, #1
10000fc2:	180d      	adds	r5, r1, r0
10000fc4:	ebb9 0005 	subs.w	r0, r9, r5
10000fc8:	d403      	bmi.n	10000fd2 <_printf_fp_dec_real+0xce>
10000fca:	f1c0 36ff 	rsb	r6, r0, #4294967295	; 0xffffffff
10000fce:	f109 0501 	add.w	r5, r9, #1
10000fd2:	eba5 0009 	sub.w	r0, r5, r9
10000fd6:	e02b      	b.n	10001030 <_printf_fp_dec_real+0x12c>
10000fd8:	f1b9 0f01 	cmp.w	r9, #1
10000fdc:	da01      	bge.n	10000fe2 <_printf_fp_dec_real+0xde>
10000fde:	f04f 0901 	mov.w	r9, #1
10000fe2:	2000      	movs	r0, #0
10000fe4:	f1b9 0f11 	cmp.w	r9, #17
10000fe8:	9000      	str	r0, [sp, #0]
10000fea:	4648      	mov	r0, r9
10000fec:	dd01      	ble.n	10000ff2 <_printf_fp_dec_real+0xee>
10000fee:	2311      	movs	r3, #17
10000ff0:	e000      	b.n	10000ff4 <_printf_fp_dec_real+0xf0>
10000ff2:	4603      	mov	r3, r0
10000ff4:	aa0a      	add	r2, sp, #40	; 0x28
10000ff6:	a901      	add	r1, sp, #4
10000ff8:	a80c      	add	r0, sp, #48	; 0x30
10000ffa:	f7ff feab 	bl	10000d54 <_fp_digits>
10000ffe:	e9dd 700c 	ldrd	r7, r0, [sp, #48]	; 0x30
10001002:	464d      	mov	r5, r9
10001004:	2600      	movs	r6, #0
10001006:	4683      	mov	fp, r0
10001008:	7820      	ldrb	r0, [r4, #0]
1000100a:	0700      	lsls	r0, r0, #28
1000100c:	d40a      	bmi.n	10001024 <_printf_fp_dec_real+0x120>
1000100e:	45ab      	cmp	fp, r5
10001010:	da00      	bge.n	10001014 <_printf_fp_dec_real+0x110>
10001012:	465d      	mov	r5, fp
10001014:	a801      	add	r0, sp, #4
10001016:	2d01      	cmp	r5, #1
10001018:	dd04      	ble.n	10001024 <_printf_fp_dec_real+0x120>
1000101a:	1941      	adds	r1, r0, r5
1000101c:	f811 1c01 	ldrb.w	r1, [r1, #-1]
10001020:	2930      	cmp	r1, #48	; 0x30
10001022:	d007      	beq.n	10001034 <_printf_fp_dec_real+0x130>
10001024:	454f      	cmp	r7, r9
10001026:	da02      	bge.n	1000102e <_printf_fp_dec_real+0x12a>
10001028:	f117 0f04 	cmn.w	r7, #4
1000102c:	da04      	bge.n	10001038 <_printf_fp_dec_real+0x134>
1000102e:	2001      	movs	r0, #1
10001030:	4682      	mov	sl, r0
10001032:	e00f      	b.n	10001054 <_printf_fp_dec_real+0x150>
10001034:	1e6d      	subs	r5, r5, #1
10001036:	e7ee      	b.n	10001016 <_printf_fp_dec_real+0x112>
10001038:	2f00      	cmp	r7, #0
1000103a:	dc02      	bgt.n	10001042 <_printf_fp_dec_real+0x13e>
1000103c:	1bed      	subs	r5, r5, r7
1000103e:	443e      	add	r6, r7
10001040:	e003      	b.n	1000104a <_printf_fp_dec_real+0x146>
10001042:	1c78      	adds	r0, r7, #1
10001044:	42a8      	cmp	r0, r5
10001046:	dd00      	ble.n	1000104a <_printf_fp_dec_real+0x146>
10001048:	1c7d      	adds	r5, r7, #1
1000104a:	1bb8      	subs	r0, r7, r6
1000104c:	f100 0a01 	add.w	sl, r0, #1
10001050:	f04f 4700 	mov.w	r7, #2147483648	; 0x80000000
10001054:	7820      	ldrb	r0, [r4, #0]
10001056:	0700      	lsls	r0, r0, #28
10001058:	d403      	bmi.n	10001062 <_printf_fp_dec_real+0x15e>
1000105a:	45aa      	cmp	sl, r5
1000105c:	db01      	blt.n	10001062 <_printf_fp_dec_real+0x15e>
1000105e:	f04f 3aff 	mov.w	sl, #4294967295	; 0xffffffff
10001062:	2100      	movs	r1, #0
10001064:	f1b7 4f00 	cmp.w	r7, #2147483648	; 0x80000000
10001068:	f10d 0843 	add.w	r8, sp, #67	; 0x43
1000106c:	f88d 1043 	strb.w	r1, [sp, #67]	; 0x43
10001070:	d024      	beq.n	100010bc <_printf_fp_dec_real+0x1b8>
10001072:	2002      	movs	r0, #2
10001074:	232b      	movs	r3, #43	; 0x2b
10001076:	2f00      	cmp	r7, #0
10001078:	da01      	bge.n	1000107e <_printf_fp_dec_real+0x17a>
1000107a:	427f      	negs	r7, r7
1000107c:	232d      	movs	r3, #45	; 0x2d
1000107e:	210a      	movs	r1, #10
10001080:	1e02      	subs	r2, r0, #0
10001082:	f1a0 0001 	sub.w	r0, r0, #1
10001086:	dc00      	bgt.n	1000108a <_printf_fp_dec_real+0x186>
10001088:	b15f      	cbz	r7, 100010a2 <_printf_fp_dec_real+0x19e>
1000108a:	fb97 fcf1 	sdiv	ip, r7, r1
1000108e:	fb97 f2f1 	sdiv	r2, r7, r1
10001092:	fb01 7c1c 	mls	ip, r1, ip, r7
10001096:	4617      	mov	r7, r2
10001098:	f10c 0c30 	add.w	ip, ip, #48	; 0x30
1000109c:	f808 cd01 	strb.w	ip, [r8, #-1]!
100010a0:	e7ee      	b.n	10001080 <_printf_fp_dec_real+0x17c>
100010a2:	f1a8 0001 	sub.w	r0, r8, #1
100010a6:	7003      	strb	r3, [r0, #0]
100010a8:	8821      	ldrh	r1, [r4, #0]
100010aa:	0509      	lsls	r1, r1, #20
100010ac:	d501      	bpl.n	100010b2 <_printf_fp_dec_real+0x1ae>
100010ae:	2145      	movs	r1, #69	; 0x45
100010b0:	e000      	b.n	100010b4 <_printf_fp_dec_real+0x1b0>
100010b2:	2165      	movs	r1, #101	; 0x65
100010b4:	f1a0 0801 	sub.w	r8, r0, #1
100010b8:	f800 1c01 	strb.w	r1, [r0, #-1]
100010bc:	9809      	ldr	r0, [sp, #36]	; 0x24
100010be:	a90f      	add	r1, sp, #60	; 0x3c
100010c0:	eba1 0708 	sub.w	r7, r1, r8
100010c4:	1dff      	adds	r7, r7, #7
100010c6:	b100      	cbz	r0, 100010ca <_printf_fp_dec_real+0x1c6>
100010c8:	2001      	movs	r0, #1
100010ca:	1941      	adds	r1, r0, r5
100010cc:	eb01 70ea 	add.w	r0, r1, sl, asr #31
100010d0:	69a1      	ldr	r1, [r4, #24]
100010d2:	4438      	add	r0, r7
100010d4:	1a08      	subs	r0, r1, r0
100010d6:	1e40      	subs	r0, r0, #1
100010d8:	61a0      	str	r0, [r4, #24]
100010da:	7820      	ldrb	r0, [r4, #0]
100010dc:	06c0      	lsls	r0, r0, #27
100010de:	d402      	bmi.n	100010e6 <_printf_fp_dec_real+0x1e2>
100010e0:	4620      	mov	r0, r4
100010e2:	f7ff faf3 	bl	100006cc <_printf_pre_padding>
100010e6:	9809      	ldr	r0, [sp, #36]	; 0x24
100010e8:	b128      	cbz	r0, 100010f6 <_printf_fp_dec_real+0x1f2>
100010ea:	e9d4 2101 	ldrd	r2, r1, [r4, #4]
100010ee:	4790      	blx	r2
100010f0:	6a20      	ldr	r0, [r4, #32]
100010f2:	1c40      	adds	r0, r0, #1
100010f4:	6220      	str	r0, [r4, #32]
100010f6:	7820      	ldrb	r0, [r4, #0]
100010f8:	06c0      	lsls	r0, r0, #27
100010fa:	d522      	bpl.n	10001142 <_printf_fp_dec_real+0x23e>
100010fc:	4620      	mov	r0, r4
100010fe:	f7ff fae5 	bl	100006cc <_printf_pre_padding>
10001102:	e01e      	b.n	10001142 <_printf_fp_dec_real+0x23e>
10001104:	2e00      	cmp	r6, #0
10001106:	db04      	blt.n	10001112 <_printf_fp_dec_real+0x20e>
10001108:	45b3      	cmp	fp, r6
1000110a:	dd02      	ble.n	10001112 <_printf_fp_dec_real+0x20e>
1000110c:	a801      	add	r0, sp, #4
1000110e:	5d80      	ldrb	r0, [r0, r6]
10001110:	e000      	b.n	10001114 <_printf_fp_dec_real+0x210>
10001112:	2030      	movs	r0, #48	; 0x30
10001114:	e9d4 2101 	ldrd	r2, r1, [r4, #4]
10001118:	4790      	blx	r2
1000111a:	6a20      	ldr	r0, [r4, #32]
1000111c:	1c40      	adds	r0, r0, #1
1000111e:	6220      	str	r0, [r4, #32]
10001120:	1c76      	adds	r6, r6, #1
10001122:	f1aa 0001 	sub.w	r0, sl, #1
10001126:	ea5f 0a00 	movs.w	sl, r0
1000112a:	d10a      	bne.n	10001142 <_printf_fp_dec_real+0x23e>
1000112c:	f000 faae 	bl	1000168c <__rt_locale>
10001130:	68c0      	ldr	r0, [r0, #12]
10001132:	6801      	ldr	r1, [r0, #0]
10001134:	5c40      	ldrb	r0, [r0, r1]
10001136:	e9d4 2101 	ldrd	r2, r1, [r4, #4]
1000113a:	4790      	blx	r2
1000113c:	6a20      	ldr	r0, [r4, #32]
1000113e:	1c40      	adds	r0, r0, #1
10001140:	6220      	str	r0, [r4, #32]
10001142:	1e28      	subs	r0, r5, #0
10001144:	f1a5 0501 	sub.w	r5, r5, #1
10001148:	dcdc      	bgt.n	10001104 <_printf_fp_dec_real+0x200>
1000114a:	e007      	b.n	1000115c <_printf_fp_dec_real+0x258>
1000114c:	e9d4 2101 	ldrd	r2, r1, [r4, #4]
10001150:	f818 0b01 	ldrb.w	r0, [r8], #1
10001154:	4790      	blx	r2
10001156:	6a20      	ldr	r0, [r4, #32]
10001158:	1c40      	adds	r0, r0, #1
1000115a:	6220      	str	r0, [r4, #32]
1000115c:	1e38      	subs	r0, r7, #0
1000115e:	f1a7 0701 	sub.w	r7, r7, #1
10001162:	dcf3      	bgt.n	1000114c <_printf_fp_dec_real+0x248>
10001164:	4620      	mov	r0, r4
10001166:	f7ff fac7 	bl	100006f8 <_printf_post_padding>
1000116a:	2003      	movs	r0, #3
1000116c:	b011      	add	sp, #68	; 0x44
1000116e:	e641      	b.n	10000df4 <_fp_digits+0xa0>

10001170 <_printf_fp_hex_real>:
10001170:	e92d 4ff0 	stmdb	sp!, {r4, r5, r6, r7, r8, r9, sl, fp, lr}
10001174:	4604      	mov	r4, r0
10001176:	460d      	mov	r5, r1
10001178:	1dd2      	adds	r2, r2, #7
1000117a:	f022 0007 	bic.w	r0, r2, #7
1000117e:	b089      	sub	sp, #36	; 0x24
10001180:	e9d0 9700 	ldrd	r9, r7, [r0]
10001184:	4648      	mov	r0, r9
10001186:	4639      	mov	r1, r7
10001188:	f003 fb6c 	bl	10004864 <__ARM_fpclassify>
1000118c:	4602      	mov	r2, r0
1000118e:	0ff8      	lsrs	r0, r7, #31
10001190:	d001      	beq.n	10001196 <_printf_fp_hex_real+0x26>
10001192:	232d      	movs	r3, #45	; 0x2d
10001194:	e007      	b.n	100011a6 <_printf_fp_hex_real+0x36>
10001196:	6820      	ldr	r0, [r4, #0]
10001198:	0781      	lsls	r1, r0, #30
1000119a:	d501      	bpl.n	100011a0 <_printf_fp_hex_real+0x30>
1000119c:	232b      	movs	r3, #43	; 0x2b
1000119e:	e002      	b.n	100011a6 <_printf_fp_hex_real+0x36>
100011a0:	2120      	movs	r1, #32
100011a2:	ea01 03c0 	and.w	r3, r1, r0, lsl #3
100011a6:	f88d 3020 	strb.w	r3, [sp, #32]
100011aa:	b10b      	cbz	r3, 100011b0 <_printf_fp_hex_real+0x40>
100011ac:	2001      	movs	r0, #1
100011ae:	e000      	b.n	100011b2 <_printf_fp_hex_real+0x42>
100011b0:	2000      	movs	r0, #0
100011b2:	2a03      	cmp	r2, #3
100011b4:	4682      	mov	sl, r0
100011b6:	d001      	beq.n	100011bc <_printf_fp_hex_real+0x4c>
100011b8:	2a07      	cmp	r2, #7
100011ba:	db04      	blt.n	100011c6 <_printf_fp_hex_real+0x56>
100011bc:	4629      	mov	r1, r5
100011be:	4620      	mov	r0, r4
100011c0:	f000 fa90 	bl	100016e4 <_printf_fp_infnan>
100011c4:	e13f      	b.n	10001446 <_printf_fp_hex_real+0x2d6>
100011c6:	7820      	ldrb	r0, [r4, #0]
100011c8:	0680      	lsls	r0, r0, #26
100011ca:	d401      	bmi.n	100011d0 <_printf_fp_hex_real+0x60>
100011cc:	250d      	movs	r5, #13
100011ce:	e000      	b.n	100011d2 <_printf_fp_hex_real+0x62>
100011d0:	69e5      	ldr	r5, [r4, #28]
100011d2:	f3c7 560a 	ubfx	r6, r7, #20, #11
100011d6:	2d0d      	cmp	r5, #13
100011d8:	da49      	bge.n	1000126e <_printf_fp_hex_real+0xfe>
100011da:	2100      	movs	r1, #0
100011dc:	ea4f 5b17 	mov.w	fp, r7, lsr #20
100011e0:	4608      	mov	r0, r1
100011e2:	f04f 0000 	mov.w	r0, #0
100011e6:	2f00      	cmp	r7, #0
100011e8:	f400 0040 	and.w	r0, r0, #12582912	; 0xc00000
100011ec:	da07      	bge.n	100011fe <_printf_fp_hex_real+0x8e>
100011ee:	eb00 0080 	add.w	r0, r0, r0, lsl #2
100011f2:	f44f 0140 	mov.w	r1, #12582912	; 0xc00000
100011f6:	eb00 70d0 	add.w	r0, r0, r0, lsr #31
100011fa:	ea01 0060 	and.w	r0, r1, r0, asr #1
100011fe:	1581      	asrs	r1, r0, #22
10001200:	2901      	cmp	r1, #1
10001202:	dd01      	ble.n	10001208 <_printf_fp_hex_real+0x98>
10001204:	f04f 31ff 	mov.w	r1, #4294967295	; 0xffffffff
10001208:	2200      	movs	r2, #0
1000120a:	ea4f 0c85 	mov.w	ip, r5, lsl #2
1000120e:	f1bc 0f18 	cmp.w	ip, #24
10001212:	d306      	bcc.n	10001222 <_printf_fp_hex_real+0xb2>
10001214:	4613      	mov	r3, r2
10001216:	f1ac 0018 	sub.w	r0, ip, #24
1000121a:	f04f 5280 	mov.w	r2, #268435456	; 0x10000000
1000121e:	40c2      	lsrs	r2, r0
10001220:	e003      	b.n	1000122a <_printf_fp_hex_real+0xba>
10001222:	f44f 1380 	mov.w	r3, #1048576	; 0x100000
10001226:	fa23 f30c 	lsr.w	r3, r3, ip
1000122a:	f10c 0c0c 	add.w	ip, ip, #12
1000122e:	f1bc 0f20 	cmp.w	ip, #32
10001232:	d304      	bcc.n	1000123e <_printf_fp_hex_real+0xce>
10001234:	f1ac 0c20 	sub.w	ip, ip, #32
10001238:	fa09 f00c 	lsl.w	r0, r9, ip
1000123c:	e001      	b.n	10001242 <_printf_fp_hex_real+0xd2>
1000123e:	fa07 f00c 	lsl.w	r0, r7, ip
10001242:	2900      	cmp	r1, #0
10001244:	f04f 4800 	mov.w	r8, #2147483648	; 0x80000000
10001248:	dd01      	ble.n	1000124e <_printf_fp_hex_real+0xde>
1000124a:	b918      	cbnz	r0, 10001254 <_printf_fp_hex_real+0xe4>
1000124c:	e00f      	b.n	1000126e <_printf_fp_hex_real+0xfe>
1000124e:	d10e      	bne.n	1000126e <_printf_fp_hex_real+0xfe>
10001250:	4540      	cmp	r0, r8
10001252:	d30c      	bcc.n	1000126e <_printf_fp_hex_real+0xfe>
10001254:	eb19 0902 	adds.w	r9, r9, r2
10001258:	415f      	adcs	r7, r3
1000125a:	b921      	cbnz	r1, 10001266 <_printf_fp_hex_real+0xf6>
1000125c:	4540      	cmp	r0, r8
1000125e:	d102      	bne.n	10001266 <_printf_fp_hex_real+0xf6>
10001260:	439f      	bics	r7, r3
10001262:	ea29 0902 	bic.w	r9, r9, r2
10001266:	ebbb 5f17 	cmp.w	fp, r7, lsr #20
1000126a:	d000      	beq.n	1000126e <_printf_fp_hex_real+0xfe>
1000126c:	1c76      	adds	r6, r6, #1
1000126e:	8820      	ldrh	r0, [r4, #0]
10001270:	0500      	lsls	r0, r0, #20
10001272:	d502      	bpl.n	1000127a <_printf_fp_hex_real+0x10a>
10001274:	487b      	ldr	r0, [pc, #492]	; (10001464 <_printf_fp_hex_real+0x2f4>)
10001276:	4478      	add	r0, pc
10001278:	e002      	b.n	10001280 <_printf_fp_hex_real+0x110>
1000127a:	487a      	ldr	r0, [pc, #488]	; (10001464 <_printf_fp_hex_real+0x2f4>)
1000127c:	4478      	add	r0, pc
1000127e:	3819      	subs	r0, #25
10001280:	aa08      	add	r2, sp, #32
10001282:	2330      	movs	r3, #48	; 0x30
10001284:	f802 300a 	strb.w	r3, [r2, sl]
10001288:	7c03      	ldrb	r3, [r0, #16]
1000128a:	f10a 0101 	add.w	r1, sl, #1
1000128e:	2e00      	cmp	r6, #0
10001290:	f10a 0a02 	add.w	sl, sl, #2
10001294:	5453      	strb	r3, [r2, r1]
10001296:	466a      	mov	r2, sp
10001298:	dc02      	bgt.n	100012a0 <_printf_fp_hex_real+0x130>
1000129a:	f04f 0130 	mov.w	r1, #48	; 0x30
1000129e:	e001      	b.n	100012a4 <_printf_fp_hex_real+0x134>
100012a0:	f04f 0131 	mov.w	r1, #49	; 0x31
100012a4:	f04f 0801 	mov.w	r8, #1
100012a8:	f88d 1000 	strb.w	r1, [sp]
100012ac:	d002      	beq.n	100012b4 <_printf_fp_hex_real+0x144>
100012ae:	f2a6 36ff 	subw	r6, r6, #1023	; 0x3ff
100012b2:	e003      	b.n	100012bc <_printf_fp_hex_real+0x14c>
100012b4:	ea59 0147 	orrs.w	r1, r9, r7, lsl #1
100012b8:	d000      	beq.n	100012bc <_printf_fp_hex_real+0x14c>
100012ba:	4e6b      	ldr	r6, [pc, #428]	; (10001468 <_printf_fp_hex_real+0x2f8>)
100012bc:	2d00      	cmp	r5, #0
100012be:	dc02      	bgt.n	100012c6 <_printf_fp_hex_real+0x156>
100012c0:	7821      	ldrb	r1, [r4, #0]
100012c2:	0709      	lsls	r1, r1, #28
100012c4:	d504      	bpl.n	100012d0 <_printf_fp_hex_real+0x160>
100012c6:	f04f 0802 	mov.w	r8, #2
100012ca:	212e      	movs	r1, #46	; 0x2e
100012cc:	f88d 1001 	strb.w	r1, [sp, #1]
100012d0:	46c4      	mov	ip, r8
100012d2:	2100      	movs	r1, #0
100012d4:	e00b      	b.n	100012ee <_printf_fp_hex_real+0x17e>
100012d6:	f3c7 4303 	ubfx	r3, r7, #16, #4
100012da:	013f      	lsls	r7, r7, #4
100012dc:	5cc3      	ldrb	r3, [r0, r3]
100012de:	1c49      	adds	r1, r1, #1
100012e0:	1e6d      	subs	r5, r5, #1
100012e2:	f802 3008 	strb.w	r3, [r2, r8]
100012e6:	2905      	cmp	r1, #5
100012e8:	f108 0801 	add.w	r8, r8, #1
100012ec:	da01      	bge.n	100012f2 <_printf_fp_hex_real+0x182>
100012ee:	2d00      	cmp	r5, #0
100012f0:	dcf1      	bgt.n	100012d6 <_printf_fp_hex_real+0x166>
100012f2:	2100      	movs	r1, #0
100012f4:	e00c      	b.n	10001310 <_printf_fp_hex_real+0x1a0>
100012f6:	eb00 7319 	add.w	r3, r0, r9, lsr #28
100012fa:	1c49      	adds	r1, r1, #1
100012fc:	781b      	ldrb	r3, [r3, #0]
100012fe:	1e6d      	subs	r5, r5, #1
10001300:	2908      	cmp	r1, #8
10001302:	f802 3008 	strb.w	r3, [r2, r8]
10001306:	ea4f 1909 	mov.w	r9, r9, lsl #4
1000130a:	f108 0801 	add.w	r8, r8, #1
1000130e:	da01      	bge.n	10001314 <_printf_fp_hex_real+0x1a4>
10001310:	2d00      	cmp	r5, #0
10001312:	dcf0      	bgt.n	100012f6 <_printf_fp_hex_real+0x186>
10001314:	6821      	ldr	r1, [r4, #0]
10001316:	068b      	lsls	r3, r1, #26
10001318:	d502      	bpl.n	10001320 <_printf_fp_hex_real+0x1b0>
1000131a:	e016      	b.n	1000134a <_printf_fp_hex_real+0x1da>
1000131c:	f1a8 0801 	sub.w	r8, r8, #1
10001320:	45e0      	cmp	r8, ip
10001322:	dd05      	ble.n	10001330 <_printf_fp_hex_real+0x1c0>
10001324:	eb02 0308 	add.w	r3, r2, r8
10001328:	f813 3c01 	ldrb.w	r3, [r3, #-1]
1000132c:	2b30      	cmp	r3, #48	; 0x30
1000132e:	d0f5      	beq.n	1000131c <_printf_fp_hex_real+0x1ac>
10001330:	f1b8 0f00 	cmp.w	r8, #0
10001334:	dd09      	ble.n	1000134a <_printf_fp_hex_real+0x1da>
10001336:	eb02 0308 	add.w	r3, r2, r8
1000133a:	f813 3c01 	ldrb.w	r3, [r3, #-1]
1000133e:	2b2e      	cmp	r3, #46	; 0x2e
10001340:	d103      	bne.n	1000134a <_printf_fp_hex_real+0x1da>
10001342:	0709      	lsls	r1, r1, #28
10001344:	d401      	bmi.n	1000134a <_printf_fp_hex_real+0x1da>
10001346:	f1a8 0801 	sub.w	r8, r8, #1
1000134a:	2d00      	cmp	r5, #0
1000134c:	dd05      	ble.n	1000135a <_printf_fp_hex_real+0x1ea>
1000134e:	213e      	movs	r1, #62	; 0x3e
10001350:	f802 1008 	strb.w	r1, [r2, r8]
10001354:	1e6d      	subs	r5, r5, #1
10001356:	f108 0801 	add.w	r8, r8, #1
1000135a:	7c40      	ldrb	r0, [r0, #17]
1000135c:	2e00      	cmp	r6, #0
1000135e:	f802 0008 	strb.w	r0, [r2, r8]
10001362:	f108 0801 	add.w	r8, r8, #1
10001366:	da04      	bge.n	10001372 <_printf_fp_hex_real+0x202>
10001368:	202d      	movs	r0, #45	; 0x2d
1000136a:	4276      	negs	r6, r6
1000136c:	f802 0008 	strb.w	r0, [r2, r8]
10001370:	e002      	b.n	10001378 <_printf_fp_hex_real+0x208>
10001372:	202b      	movs	r0, #43	; 0x2b
10001374:	f802 0008 	strb.w	r0, [r2, r8]
10001378:	210a      	movs	r1, #10
1000137a:	f44f 707a 	mov.w	r0, #1000	; 0x3e8
1000137e:	4286      	cmp	r6, r0
10001380:	f108 0801 	add.w	r8, r8, #1
10001384:	db0b      	blt.n	1000139e <_printf_fp_hex_real+0x22e>
10001386:	fb96 f3f0 	sdiv	r3, r6, r0
1000138a:	3330      	adds	r3, #48	; 0x30
1000138c:	f802 3008 	strb.w	r3, [r2, r8]
10001390:	fb96 f3f0 	sdiv	r3, r6, r0
10001394:	f108 0801 	add.w	r8, r8, #1
10001398:	fb00 6613 	mls	r6, r0, r3, r6
1000139c:	e001      	b.n	100013a2 <_printf_fp_hex_real+0x232>
1000139e:	2e64      	cmp	r6, #100	; 0x64
100013a0:	db0c      	blt.n	100013bc <_printf_fp_hex_real+0x24c>
100013a2:	2064      	movs	r0, #100	; 0x64
100013a4:	fb96 f3f0 	sdiv	r3, r6, r0
100013a8:	3330      	adds	r3, #48	; 0x30
100013aa:	f802 3008 	strb.w	r3, [r2, r8]
100013ae:	fb96 f3f0 	sdiv	r3, r6, r0
100013b2:	f108 0801 	add.w	r8, r8, #1
100013b6:	fb00 6613 	mls	r6, r0, r3, r6
100013ba:	e001      	b.n	100013c0 <_printf_fp_hex_real+0x250>
100013bc:	2e0a      	cmp	r6, #10
100013be:	db06      	blt.n	100013ce <_printf_fp_hex_real+0x25e>
100013c0:	fb96 f0f1 	sdiv	r0, r6, r1
100013c4:	3030      	adds	r0, #48	; 0x30
100013c6:	f802 0008 	strb.w	r0, [r2, r8]
100013ca:	f108 0801 	add.w	r8, r8, #1
100013ce:	fb96 f0f1 	sdiv	r0, r6, r1
100013d2:	fb01 6010 	mls	r0, r1, r0, r6
100013d6:	3030      	adds	r0, #48	; 0x30
100013d8:	f802 0008 	strb.w	r0, [r2, r8]
100013dc:	69a1      	ldr	r1, [r4, #24]
100013de:	f108 0801 	add.w	r8, r8, #1
100013e2:	eb08 0205 	add.w	r2, r8, r5
100013e6:	eb02 000a 	add.w	r0, r2, sl
100013ea:	1a08      	subs	r0, r1, r0
100013ec:	61a0      	str	r0, [r4, #24]
100013ee:	7820      	ldrb	r0, [r4, #0]
100013f0:	06c0      	lsls	r0, r0, #27
100013f2:	d402      	bmi.n	100013fa <_printf_fp_hex_real+0x28a>
100013f4:	4620      	mov	r0, r4
100013f6:	f7ff f969 	bl	100006cc <_printf_pre_padding>
100013fa:	6a21      	ldr	r1, [r4, #32]
100013fc:	ae08      	add	r6, sp, #32
100013fe:	eb01 000a 	add.w	r0, r1, sl
10001402:	6220      	str	r0, [r4, #32]
10001404:	e004      	b.n	10001410 <_printf_fp_hex_real+0x2a0>
10001406:	e9d4 2101 	ldrd	r2, r1, [r4, #4]
1000140a:	f816 0b01 	ldrb.w	r0, [r6], #1
1000140e:	4790      	blx	r2
10001410:	f1ba 0a01 	subs.w	sl, sl, #1
10001414:	d2f7      	bcs.n	10001406 <_printf_fp_hex_real+0x296>
10001416:	7820      	ldrb	r0, [r4, #0]
10001418:	06c0      	lsls	r0, r0, #27
1000141a:	d502      	bpl.n	10001422 <_printf_fp_hex_real+0x2b2>
1000141c:	4620      	mov	r0, r4
1000141e:	f7ff f955 	bl	100006cc <_printf_pre_padding>
10001422:	466e      	mov	r6, sp
10001424:	e009      	b.n	1000143a <_printf_fp_hex_real+0x2ca>
10001426:	f816 0b01 	ldrb.w	r0, [r6], #1
1000142a:	283e      	cmp	r0, #62	; 0x3e
1000142c:	d00f      	beq.n	1000144e <_printf_fp_hex_real+0x2de>
1000142e:	e9d4 2101 	ldrd	r2, r1, [r4, #4]
10001432:	4790      	blx	r2
10001434:	6a20      	ldr	r0, [r4, #32]
10001436:	1c40      	adds	r0, r0, #1
10001438:	6220      	str	r0, [r4, #32]
1000143a:	f1b8 0801 	subs.w	r8, r8, #1
1000143e:	d2f2      	bcs.n	10001426 <_printf_fp_hex_real+0x2b6>
10001440:	4620      	mov	r0, r4
10001442:	f7ff f959 	bl	100006f8 <_printf_post_padding>
10001446:	b009      	add	sp, #36	; 0x24
10001448:	2003      	movs	r0, #3
1000144a:	e8bd 8ff0 	ldmia.w	sp!, {r4, r5, r6, r7, r8, r9, sl, fp, pc}
1000144e:	6a20      	ldr	r0, [r4, #32]
10001450:	4428      	add	r0, r5
10001452:	6220      	str	r0, [r4, #32]
10001454:	e003      	b.n	1000145e <_printf_fp_hex_real+0x2ee>
10001456:	e9d4 2101 	ldrd	r2, r1, [r4, #4]
1000145a:	2030      	movs	r0, #48	; 0x30
1000145c:	4790      	blx	r2
1000145e:	1e6d      	subs	r5, r5, #1
10001460:	d3eb      	bcc.n	1000143a <_printf_fp_hex_real+0x2ca>
10001462:	e7f8      	b.n	10001456 <_printf_fp_hex_real+0x2e6>
10001464:	00003716 	.word	0x00003716
10001468:	fffffc02 	.word	0xfffffc02

1000146c <_printf_input_char>:
1000146c:	6901      	ldr	r1, [r0, #16]
1000146e:	1c4a      	adds	r2, r1, #1
10001470:	6102      	str	r2, [r0, #16]
10001472:	7808      	ldrb	r0, [r1, #0]
10001474:	4770      	bx	lr

10001476 <_printf_char_common>:
10001476:	b500      	push	{lr}
10001478:	b08f      	sub	sp, #60	; 0x3c
1000147a:	e9cd 3101 	strd	r3, r1, [sp, #4]
1000147e:	2100      	movs	r1, #0
10001480:	9105      	str	r1, [sp, #20]
10001482:	4905      	ldr	r1, [pc, #20]	; (10001498 <_printf_char_common+0x22>)
10001484:	4479      	add	r1, pc
10001486:	e9cd 1003 	strd	r1, r0, [sp, #12]
1000148a:	4611      	mov	r1, r2
1000148c:	4668      	mov	r0, sp
1000148e:	f7ff faff 	bl	10000a90 <__printf>
10001492:	b00f      	add	sp, #60	; 0x3c
10001494:	bd00      	pop	{pc}
10001496:	0000      	.short	0x0000
10001498:	ffffffe5 	.word	0xffffffe5

1000149c <_printf_cs_common>:
1000149c:	b510      	push	{r4, lr}
1000149e:	6943      	ldr	r3, [r0, #20]
100014a0:	b113      	cbz	r3, 100014a8 <_printf_cs_common+0xc>
100014a2:	f3af 8000 	nop.w
100014a6:	e001      	b.n	100014ac <_printf_cs_common+0x10>
100014a8:	f7ff f949 	bl	1000073e <_printf_str>
100014ac:	2001      	movs	r0, #1
100014ae:	bd10      	pop	{r4, pc}

100014b0 <_printf_char>:
100014b0:	7812      	ldrb	r2, [r2, #0]
100014b2:	f100 0124 	add.w	r1, r0, #36	; 0x24
100014b6:	700a      	strb	r2, [r1, #0]
100014b8:	2200      	movs	r2, #0
100014ba:	704a      	strb	r2, [r1, #1]
100014bc:	2201      	movs	r2, #1
100014be:	e7ed      	b.n	1000149c <_printf_cs_common>

100014c0 <_printf_string>:
100014c0:	6811      	ldr	r1, [r2, #0]
100014c2:	f04f 32ff 	mov.w	r2, #4294967295	; 0xffffffff
100014c6:	e7e9      	b.n	1000149c <_printf_cs_common>

100014c8 <_printf_lcs_common>:
100014c8:	b510      	push	{r4, lr}
100014ca:	6943      	ldr	r3, [r0, #20]
100014cc:	b113      	cbz	r3, 100014d4 <_printf_lcs_common+0xc>
100014ce:	f3af 8000 	nop.w
100014d2:	e001      	b.n	100014d8 <_printf_lcs_common+0x10>
100014d4:	f7ff f9be 	bl	10000854 <_printf_wctomb>
100014d8:	2001      	movs	r0, #1
100014da:	bd10      	pop	{r4, pc}

100014dc <_printf_wchar>:
100014dc:	8812      	ldrh	r2, [r2, #0]
100014de:	f100 0124 	add.w	r1, r0, #36	; 0x24
100014e2:	8482      	strh	r2, [r0, #36]	; 0x24
100014e4:	2200      	movs	r2, #0
100014e6:	84c2      	strh	r2, [r0, #38]	; 0x26
100014e8:	2201      	movs	r2, #1
100014ea:	e7ed      	b.n	100014c8 <_printf_lcs_common>

100014ec <_printf_wstring>:
100014ec:	6811      	ldr	r1, [r2, #0]
100014ee:	f04f 32ff 	mov.w	r2, #4294967295	; 0xffffffff
100014f2:	e7e9      	b.n	100014c8 <_printf_lcs_common>

100014f4 <ferror>:
100014f4:	7b00      	ldrb	r0, [r0, #12]
100014f6:	f000 0080 	and.w	r0, r0, #128	; 0x80
100014fa:	4770      	bx	lr

100014fc <_initio>:
100014fc:	b510      	push	{r4, lr}
100014fe:	4842      	ldr	r0, [pc, #264]	; (10001608 <_terminateio+0x3a>)
10001500:	2154      	movs	r1, #84	; 0x54
10001502:	f7ff f87d 	bl	10000600 <__aeabi_memclr4>
10001506:	4841      	ldr	r0, [pc, #260]	; (1000160c <_terminateio+0x3e>)
10001508:	2154      	movs	r1, #84	; 0x54
1000150a:	f7ff f879 	bl	10000600 <__aeabi_memclr4>
1000150e:	4840      	ldr	r0, [pc, #256]	; (10001610 <_terminateio+0x42>)
10001510:	2154      	movs	r1, #84	; 0x54
10001512:	f7ff f875 	bl	10000600 <__aeabi_memclr4>
10001516:	493f      	ldr	r1, [pc, #252]	; (10001614 <_terminateio+0x46>)
10001518:	483b      	ldr	r0, [pc, #236]	; (10001608 <_terminateio+0x3a>)
1000151a:	4a3c      	ldr	r2, [pc, #240]	; (1000160c <_terminateio+0x3e>)
1000151c:	4b3f      	ldr	r3, [pc, #252]	; (1000161c <_terminateio+0x4e>)
1000151e:	6008      	str	r0, [r1, #0]
10001520:	493d      	ldr	r1, [pc, #244]	; (10001618 <_terminateio+0x4a>)
10001522:	600a      	str	r2, [r1, #0]
10001524:	493a      	ldr	r1, [pc, #232]	; (10001610 <_terminateio+0x42>)
10001526:	6019      	str	r1, [r3, #0]
10001528:	1c53      	adds	r3, r2, #1
1000152a:	6503      	str	r3, [r0, #80]	; 0x50
1000152c:	1c48      	adds	r0, r1, #1
1000152e:	6510      	str	r0, [r2, #80]	; 0x50
10001530:	2001      	movs	r0, #1
10001532:	6508      	str	r0, [r1, #80]	; 0x50
10001534:	483b      	ldr	r0, [pc, #236]	; (10001624 <_terminateio+0x56>)
10001536:	4a34      	ldr	r2, [pc, #208]	; (10001608 <_terminateio+0x3a>)
10001538:	a139      	add	r1, pc, #228	; (adr r1, 10001620 <_terminateio+0x52>)
1000153a:	4478      	add	r0, pc
1000153c:	f000 fa98 	bl	10001a70 <freopen>
10001540:	b920      	cbnz	r0, 1000154c <_initio+0x50>
10001542:	4838      	ldr	r0, [pc, #224]	; (10001624 <_terminateio+0x56>)
10001544:	4478      	add	r0, pc
10001546:	380a      	subs	r0, #10
10001548:	f000 fb39 	bl	10001bbe <__rt_SIGRTRED>
1000154c:	4837      	ldr	r0, [pc, #220]	; (1000162c <_terminateio+0x5e>)
1000154e:	4a2f      	ldr	r2, [pc, #188]	; (1000160c <_terminateio+0x3e>)
10001550:	a135      	add	r1, pc, #212	; (adr r1, 10001628 <_terminateio+0x5a>)
10001552:	4478      	add	r0, pc
10001554:	f000 fa8c 	bl	10001a70 <freopen>
10001558:	b920      	cbnz	r0, 10001564 <_initio+0x68>
1000155a:	4834      	ldr	r0, [pc, #208]	; (1000162c <_terminateio+0x5e>)
1000155c:	4478      	add	r0, pc
1000155e:	380a      	subs	r0, #10
10001560:	f000 fb2d 	bl	10001bbe <__rt_SIGRTRED>
10001564:	4832      	ldr	r0, [pc, #200]	; (10001630 <_terminateio+0x62>)
10001566:	4a2a      	ldr	r2, [pc, #168]	; (10001610 <_terminateio+0x42>)
10001568:	a12f      	add	r1, pc, #188	; (adr r1, 10001628 <_terminateio+0x5a>)
1000156a:	4478      	add	r0, pc
1000156c:	f000 fa80 	bl	10001a70 <freopen>
10001570:	b920      	cbnz	r0, 1000157c <_initio+0x80>
10001572:	482f      	ldr	r0, [pc, #188]	; (10001630 <_terminateio+0x62>)
10001574:	4478      	add	r0, pc
10001576:	380a      	subs	r0, #10
10001578:	f000 fb21 	bl	10001bbe <__rt_SIGRTRED>
1000157c:	2340      	movs	r3, #64	; 0x40
1000157e:	4822      	ldr	r0, [pc, #136]	; (10001608 <_terminateio+0x3a>)
10001580:	00dc      	lsls	r4, r3, #3
10001582:	2100      	movs	r1, #0
10001584:	4622      	mov	r2, r4
10001586:	f000 fa50 	bl	10001a2a <setvbuf>
1000158a:	b120      	cbz	r0, 10001596 <_initio+0x9a>
1000158c:	4825      	ldr	r0, [pc, #148]	; (10001624 <_terminateio+0x56>)
1000158e:	4478      	add	r0, pc
10001590:	3854      	subs	r0, #84	; 0x54
10001592:	f000 fb14 	bl	10001bbe <__rt_SIGRTRED>
10001596:	481d      	ldr	r0, [pc, #116]	; (1000160c <_terminateio+0x3e>)
10001598:	4622      	mov	r2, r4
1000159a:	2340      	movs	r3, #64	; 0x40
1000159c:	2100      	movs	r1, #0
1000159e:	f000 fa44 	bl	10001a2a <setvbuf>
100015a2:	b120      	cbz	r0, 100015ae <_initio+0xb2>
100015a4:	4821      	ldr	r0, [pc, #132]	; (1000162c <_terminateio+0x5e>)
100015a6:	4478      	add	r0, pc
100015a8:	3854      	subs	r0, #84	; 0x54
100015aa:	f000 fb08 	bl	10001bbe <__rt_SIGRTRED>
100015ae:	4818      	ldr	r0, [pc, #96]	; (10001610 <_terminateio+0x42>)
100015b0:	4622      	mov	r2, r4
100015b2:	2310      	movs	r3, #16
100015b4:	2100      	movs	r1, #0
100015b6:	f000 fa38 	bl	10001a2a <setvbuf>
100015ba:	2800      	cmp	r0, #0
100015bc:	d006      	beq.n	100015cc <_initio+0xd0>
100015be:	481c      	ldr	r0, [pc, #112]	; (10001630 <_terminateio+0x62>)
100015c0:	4478      	add	r0, pc
100015c2:	e8bd 4010 	ldmia.w	sp!, {r4, lr}
100015c6:	3856      	subs	r0, #86	; 0x56
100015c8:	f000 baf9 	b.w	10001bbe <__rt_SIGRTRED>
100015cc:	bd10      	pop	{r4, pc}

100015ce <_terminateio>:
100015ce:	4810      	ldr	r0, [pc, #64]	; (10001610 <_terminateio+0x42>)
100015d0:	b570      	push	{r4, r5, r6, lr}
100015d2:	6d00      	ldr	r0, [r0, #80]	; 0x50
100015d4:	f020 0401 	bic.w	r4, r0, #1
100015d8:	480b      	ldr	r0, [pc, #44]	; (10001608 <_terminateio+0x3a>)
100015da:	f000 fac1 	bl	10001b60 <_fclose_internal>
100015de:	480b      	ldr	r0, [pc, #44]	; (1000160c <_terminateio+0x3e>)
100015e0:	f000 fabe 	bl	10001b60 <_fclose_internal>
100015e4:	480a      	ldr	r0, [pc, #40]	; (10001610 <_terminateio+0x42>)
100015e6:	f000 fabb 	bl	10001b60 <_fclose_internal>
100015ea:	e009      	b.n	10001600 <_terminateio+0x32>
100015ec:	6d20      	ldr	r0, [r4, #80]	; 0x50
100015ee:	f020 0501 	bic.w	r5, r0, #1
100015f2:	4620      	mov	r0, r4
100015f4:	f000 fab4 	bl	10001b60 <_fclose_internal>
100015f8:	4620      	mov	r0, r4
100015fa:	f000 f84b 	bl	10001694 <free>
100015fe:	462c      	mov	r4, r5
10001600:	2c00      	cmp	r4, #0
10001602:	d1f3      	bne.n	100015ec <_terminateio+0x1e>
10001604:	bd70      	pop	{r4, r5, r6, pc}
10001606:	0000      	.short	0x0000
10001608:	38000038 	.word	0x38000038
1000160c:	3800008c 	.word	0x3800008c
10001610:	380000e0 	.word	0x380000e0
10001614:	38000000 	.word	0x38000000
10001618:	38000004 	.word	0x38000004
1000161c:	38000008 	.word	0x38000008
10001620:	00000072 	.word	0x00000072
10001624:	00004a66 	.word	0x00004a66
10001628:	00000077 	.word	0x00000077
1000162c:	00004a55 	.word	0x00004a55
10001630:	00004a2e 	.word	0x00004a2e

10001634 <_c16rtomb>:
10001634:	e92d 41f0 	stmdb	sp!, {r4, r5, r6, r7, r8, lr}
10001638:	4616      	mov	r6, r2
1000163a:	460c      	mov	r4, r1
1000163c:	4605      	mov	r5, r0
1000163e:	f000 f81d 	bl	1000167c <__rt_ctype_table>
10001642:	6803      	ldr	r3, [r0, #0]
10001644:	f893 0101 	ldrb.w	r0, [r3, #257]	; 0x101
10001648:	2801      	cmp	r0, #1
1000164a:	d007      	beq.n	1000165c <_c16rtomb+0x28>
1000164c:	2cff      	cmp	r4, #255	; 0xff
1000164e:	d812      	bhi.n	10001676 <_c16rtomb+0x42>
10001650:	5d18      	ldrb	r0, [r3, r4]
10001652:	b180      	cbz	r0, 10001676 <_c16rtomb+0x42>
10001654:	2001      	movs	r0, #1
10001656:	702c      	strb	r4, [r5, #0]
10001658:	e8bd 81f0 	ldmia.w	sp!, {r4, r5, r6, r7, r8, pc}
1000165c:	f8d3 0107 	ldr.w	r0, [r3, #263]	; 0x107
10001660:	4632      	mov	r2, r6
10001662:	4621      	mov	r1, r4
10001664:	f203 1307 	addw	r3, r3, #263	; 0x107
10001668:	18c7      	adds	r7, r0, r3
1000166a:	4628      	mov	r0, r5
1000166c:	46bc      	mov	ip, r7
1000166e:	e8bd 41f0 	ldmia.w	sp!, {r4, r5, r6, r7, r8, lr}
10001672:	2300      	movs	r3, #0
10001674:	4760      	bx	ip
10001676:	f04f 30ff 	mov.w	r0, #4294967295	; 0xffffffff
1000167a:	e7ed      	b.n	10001658 <_c16rtomb+0x24>

1000167c <__rt_ctype_table>:
1000167c:	b510      	push	{r4, lr}
1000167e:	f000 f805 	bl	1000168c <__rt_locale>
10001682:	1d00      	adds	r0, r0, #4
10001684:	bd10      	pop	{r4, pc}
10001686:	bf00      	nop
10001688:	00003265 	.word	0x00003265

1000168c <__rt_locale>:
1000168c:	4800      	ldr	r0, [pc, #0]	; (10001690 <__rt_locale+0x4>)
1000168e:	4770      	bx	lr
10001690:	38000154 	.word	0x38000154

10001694 <free>:
10001694:	b570      	push	{r4, r5, r6, lr}
10001696:	4604      	mov	r4, r0
10001698:	1f05      	subs	r5, r0, #4
1000169a:	f000 fa97 	bl	10001bcc <__rt_heap_descriptor>
1000169e:	6800      	ldr	r0, [r0, #0]
100016a0:	2c00      	cmp	r4, #0
100016a2:	bf14      	ite	ne
100016a4:	6844      	ldrne	r4, [r0, #4]
100016a6:	bd70      	popeq	{r4, r5, r6, pc}
100016a8:	2c00      	cmp	r4, #0
100016aa:	bf18      	it	ne
100016ac:	42ac      	cmpne	r4, r5
100016ae:	bf3c      	itt	cc
100016b0:	4620      	movcc	r0, r4
100016b2:	6864      	ldrcc	r4, [r4, #4]
100016b4:	d3f8      	bcc.n	100016a8 <free+0x14>
100016b6:	6801      	ldr	r1, [r0, #0]
100016b8:	180a      	adds	r2, r1, r0
100016ba:	42aa      	cmp	r2, r5
100016bc:	bf18      	it	ne
100016be:	6045      	strne	r5, [r0, #4]
100016c0:	d103      	bne.n	100016ca <free+0x36>
100016c2:	682a      	ldr	r2, [r5, #0]
100016c4:	4605      	mov	r5, r0
100016c6:	4411      	add	r1, r2
100016c8:	6001      	str	r1, [r0, #0]
100016ca:	6828      	ldr	r0, [r5, #0]
100016cc:	1941      	adds	r1, r0, r5
100016ce:	42a1      	cmp	r1, r4
100016d0:	bf1c      	itt	ne
100016d2:	606c      	strne	r4, [r5, #4]
100016d4:	bd70      	popne	{r4, r5, r6, pc}
100016d6:	6861      	ldr	r1, [r4, #4]
100016d8:	6069      	str	r1, [r5, #4]
100016da:	6821      	ldr	r1, [r4, #0]
100016dc:	4408      	add	r0, r1
100016de:	6028      	str	r0, [r5, #0]
100016e0:	bd70      	pop	{r4, r5, r6, pc}
	...

100016e4 <_printf_fp_infnan>:
100016e4:	e92d 41f0 	stmdb	sp!, {r4, r5, r6, r7, r8, lr}
100016e8:	461f      	mov	r7, r3
100016ea:	4604      	mov	r4, r0
100016ec:	2603      	movs	r6, #3
100016ee:	6801      	ldr	r1, [r0, #0]
100016f0:	2a07      	cmp	r2, #7
100016f2:	f401 6000 	and.w	r0, r1, #2048	; 0x800
100016f6:	db04      	blt.n	10001702 <_printf_fp_infnan+0x1e>
100016f8:	b108      	cbz	r0, 100016fe <_printf_fp_infnan+0x1a>
100016fa:	a516      	add	r5, pc, #88	; (adr r5, 10001754 <_printf_fp_infnan+0x70>)
100016fc:	e005      	b.n	1000170a <_printf_fp_infnan+0x26>
100016fe:	a516      	add	r5, pc, #88	; (adr r5, 10001758 <_printf_fp_infnan+0x74>)
10001700:	e003      	b.n	1000170a <_printf_fp_infnan+0x26>
10001702:	b108      	cbz	r0, 10001708 <_printf_fp_infnan+0x24>
10001704:	a515      	add	r5, pc, #84	; (adr r5, 1000175c <_printf_fp_infnan+0x78>)
10001706:	e000      	b.n	1000170a <_printf_fp_infnan+0x26>
10001708:	a515      	add	r5, pc, #84	; (adr r5, 10001760 <_printf_fp_infnan+0x7c>)
1000170a:	f021 0010 	bic.w	r0, r1, #16
1000170e:	6020      	str	r0, [r4, #0]
10001710:	69a0      	ldr	r0, [r4, #24]
10001712:	1ec0      	subs	r0, r0, #3
10001714:	61a0      	str	r0, [r4, #24]
10001716:	b10f      	cbz	r7, 1000171c <_printf_fp_infnan+0x38>
10001718:	1e40      	subs	r0, r0, #1
1000171a:	61a0      	str	r0, [r4, #24]
1000171c:	4620      	mov	r0, r4
1000171e:	f7fe ffd5 	bl	100006cc <_printf_pre_padding>
10001722:	b14f      	cbz	r7, 10001738 <_printf_fp_infnan+0x54>
10001724:	e9d4 2101 	ldrd	r2, r1, [r4, #4]
10001728:	4638      	mov	r0, r7
1000172a:	4790      	blx	r2
1000172c:	6a20      	ldr	r0, [r4, #32]
1000172e:	1c40      	adds	r0, r0, #1
10001730:	6220      	str	r0, [r4, #32]
10001732:	1cc0      	adds	r0, r0, #3
10001734:	6220      	str	r0, [r4, #32]
10001736:	e006      	b.n	10001746 <_printf_fp_infnan+0x62>
10001738:	6a20      	ldr	r0, [r4, #32]
1000173a:	e7fa      	b.n	10001732 <_printf_fp_infnan+0x4e>
1000173c:	e9d4 2101 	ldrd	r2, r1, [r4, #4]
10001740:	f815 0b01 	ldrb.w	r0, [r5], #1
10001744:	4790      	blx	r2
10001746:	1e76      	subs	r6, r6, #1
10001748:	d2f8      	bcs.n	1000173c <_printf_fp_infnan+0x58>
1000174a:	4620      	mov	r0, r4
1000174c:	f7fe ffd4 	bl	100006f8 <_printf_post_padding>
10001750:	e8bd 81f0 	ldmia.w	sp!, {r4, r5, r6, r7, r8, pc}
10001754:	004e414e 	.word	0x004e414e
10001758:	006e616e 	.word	0x006e616e
1000175c:	00464e49 	.word	0x00464e49
10001760:	00666e69 	.word	0x00666e69

10001764 <_btod_etento>:
10001764:	e92d 47f0 	stmdb	sp!, {r4, r5, r6, r7, r8, r9, sl, lr}
10001768:	4681      	mov	r9, r0
1000176a:	4616      	mov	r6, r2
1000176c:	b08a      	sub	sp, #40	; 0x28
1000176e:	4835      	ldr	r0, [pc, #212]	; (10001844 <_btod_etento+0xe0>)
10001770:	4478      	add	r0, pc
10001772:	c80d      	ldmia	r0, {r0, r2, r3}
10001774:	e88d 000d 	stmia.w	sp, {r0, r2, r3}
10001778:	4832      	ldr	r0, [pc, #200]	; (10001844 <_btod_etento+0xe0>)
1000177a:	4478      	add	r0, pc
1000177c:	1c80      	adds	r0, r0, #2
1000177e:	ac03      	add	r4, sp, #12
10001780:	c80d      	ldmia	r0, {r0, r2, r3}
10001782:	e884 000d 	stmia.w	r4, {r0, r2, r3}
10001786:	f641 309b 	movw	r0, #7067	; 0x1b9b
1000178a:	4408      	add	r0, r1
1000178c:	2137      	movs	r1, #55	; 0x37
1000178e:	fb90 f2f1 	sdiv	r2, r0, r1
10001792:	fb90 f5f1 	sdiv	r5, r0, r1
10001796:	f1a5 0580 	sub.w	r5, r5, #128	; 0x80
1000179a:	fb01 0412 	mls	r4, r1, r2, r0
1000179e:	3c1b      	subs	r4, #27
100017a0:	d502      	bpl.n	100017a8 <_btod_etento+0x44>
100017a2:	4264      	negs	r4, r4
100017a4:	2001      	movs	r0, #1
100017a6:	e000      	b.n	100017aa <_btod_etento+0x46>
100017a8:	2000      	movs	r0, #0
100017aa:	f8df a098 	ldr.w	sl, [pc, #152]	; 10001844 <_btod_etento+0xe0>
100017ae:	4680      	mov	r8, r0
100017b0:	2700      	movs	r7, #0
100017b2:	44fa      	add	sl, pc
100017b4:	f1aa 0abe 	sub.w	sl, sl, #190	; 0xbe
100017b8:	e00e      	b.n	100017d8 <_btod_etento+0x74>
100017ba:	07e0      	lsls	r0, r4, #31
100017bc:	d00a      	beq.n	100017d4 <_btod_etento+0x70>
100017be:	4632      	mov	r2, r6
100017c0:	4668      	mov	r0, sp
100017c2:	eb07 0147 	add.w	r1, r7, r7, lsl #1
100017c6:	2301      	movs	r3, #1
100017c8:	eb0a 0181 	add.w	r1, sl, r1, lsl #2
100017cc:	f002 ff13 	bl	100045f6 <_btod_emul>
100017d0:	e88d 0007 	stmia.w	sp, {r0, r1, r2}
100017d4:	1064      	asrs	r4, r4, #1
100017d6:	1c7f      	adds	r7, r7, #1
100017d8:	2c00      	cmp	r4, #0
100017da:	d1ee      	bne.n	100017ba <_btod_etento+0x56>
100017dc:	4f19      	ldr	r7, [pc, #100]	; (10001844 <_btod_etento+0xe0>)
100017de:	447f      	add	r7, pc
100017e0:	3fae      	subs	r7, #174	; 0xae
100017e2:	e019      	b.n	10001818 <_btod_etento+0xb4>
100017e4:	07e8      	lsls	r0, r5, #31
100017e6:	d015      	beq.n	10001814 <_btod_etento+0xb0>
100017e8:	eb07 1004 	add.w	r0, r7, r4, lsl #4
100017ec:	f10d 0a18 	add.w	sl, sp, #24
100017f0:	e890 000e 	ldmia.w	r0, {r1, r2, r3}
100017f4:	e88a 000e 	stmia.w	sl, {r1, r2, r3}
100017f8:	68c0      	ldr	r0, [r0, #12]
100017fa:	42f0      	cmn	r0, r6
100017fc:	d101      	bne.n	10001802 <_btod_etento+0x9e>
100017fe:	1998      	adds	r0, r3, r6
10001800:	9008      	str	r0, [sp, #32]
10001802:	4632      	mov	r2, r6
10001804:	2301      	movs	r3, #1
10001806:	a906      	add	r1, sp, #24
10001808:	a803      	add	r0, sp, #12
1000180a:	f002 fef4 	bl	100045f6 <_btod_emul>
1000180e:	ab03      	add	r3, sp, #12
10001810:	e883 0007 	stmia.w	r3, {r0, r1, r2}
10001814:	106d      	asrs	r5, r5, #1
10001816:	1c64      	adds	r4, r4, #1
10001818:	2d00      	cmp	r5, #0
1000181a:	d1e3      	bne.n	100017e4 <_btod_etento+0x80>
1000181c:	f04f 0301 	mov.w	r3, #1
10001820:	4632      	mov	r2, r6
10001822:	4669      	mov	r1, sp
10001824:	f1b8 0f00 	cmp.w	r8, #0
10001828:	a803      	add	r0, sp, #12
1000182a:	d002      	beq.n	10001832 <_btod_etento+0xce>
1000182c:	f002 fece 	bl	100045cc <_btod_ediv>
10001830:	e001      	b.n	10001836 <_btod_etento+0xd2>
10001832:	f002 fee0 	bl	100045f6 <_btod_emul>
10001836:	e9c9 0100 	strd	r0, r1, [r9]
1000183a:	f8c9 2008 	str.w	r2, [r9, #8]
1000183e:	b00a      	add	sp, #40	; 0x28
10001840:	e8bd 87f0 	ldmia.w	sp!, {r4, r5, r6, r7, r8, r9, sl, pc}
10001844:	000032ac 	.word	0x000032ac

10001848 <__flsbuf>:
10001848:	e92d 5ff0 	stmdb	sp!, {r4, r5, r6, r7, r8, r9, sl, fp, ip, lr}
1000184c:	4605      	mov	r5, r0
1000184e:	4617      	mov	r7, r2
10001850:	460c      	mov	r4, r1
10001852:	68c8      	ldr	r0, [r1, #12]
10001854:	f420 1020 	bic.w	r0, r0, #2621440	; 0x280000
10001858:	f440 0080 	orr.w	r0, r0, #4194304	; 0x400000
1000185c:	60c8      	str	r0, [r1, #12]
1000185e:	0680      	lsls	r0, r0, #26
10001860:	d502      	bpl.n	10001868 <__flsbuf+0x20>
10001862:	4608      	mov	r0, r1
10001864:	f000 fb0b 	bl	10001e7e <_deferredlazyseek>
10001868:	68e0      	ldr	r0, [r4, #12]
1000186a:	f241 0182 	movw	r1, #4226	; 0x1082
1000186e:	f04f 3aff 	mov.w	sl, #4294967295	; 0xffffffff
10001872:	4001      	ands	r1, r0
10001874:	2902      	cmp	r1, #2
10001876:	d003      	beq.n	10001880 <__flsbuf+0x38>
10001878:	4620      	mov	r0, r4
1000187a:	f000 fa9d 	bl	10001db8 <_seterr>
1000187e:	e0b9      	b.n	100019f4 <__flsbuf+0x1ac>
10001880:	f400 4120 	and.w	r1, r0, #40960	; 0xa000
10001884:	f5b1 4f00 	cmp.w	r1, #32768	; 0x8000
10001888:	d10f      	bne.n	100018aa <__flsbuf+0x62>
1000188a:	03c0      	lsls	r0, r0, #15
1000188c:	d506      	bpl.n	1000189c <__flsbuf+0x54>
1000188e:	6861      	ldr	r1, [r4, #4]
10001890:	6ae0      	ldr	r0, [r4, #44]	; 0x2c
10001892:	4288      	cmp	r0, r1
10001894:	d800      	bhi.n	10001898 <__flsbuf+0x50>
10001896:	4608      	mov	r0, r1
10001898:	6060      	str	r0, [r4, #4]
1000189a:	e006      	b.n	100018aa <__flsbuf+0x62>
1000189c:	6920      	ldr	r0, [r4, #16]
1000189e:	62e0      	str	r0, [r4, #44]	; 0x2c
100018a0:	6060      	str	r0, [r4, #4]
100018a2:	6960      	ldr	r0, [r4, #20]
100018a4:	f001 feda 	bl	1000365c <_sys_flen>
100018a8:	61a0      	str	r0, [r4, #24]
100018aa:	68a0      	ldr	r0, [r4, #8]
100018ac:	2200      	movs	r2, #0
100018ae:	b2ee      	uxtb	r6, r5
100018b0:	2800      	cmp	r0, #0
100018b2:	da0d      	bge.n	100018d0 <__flsbuf+0x88>
100018b4:	68e1      	ldr	r1, [r4, #12]
100018b6:	058b      	lsls	r3, r1, #22
100018b8:	d40a      	bmi.n	100018d0 <__flsbuf+0x88>
100018ba:	43c0      	mvns	r0, r0
100018bc:	60a0      	str	r0, [r4, #8]
100018be:	f441 3090 	orr.w	r0, r1, #73728	; 0x12000
100018c2:	6022      	str	r2, [r4, #0]
100018c4:	60e0      	str	r0, [r4, #12]
100018c6:	6860      	ldr	r0, [r4, #4]
100018c8:	1c41      	adds	r1, r0, #1
100018ca:	6061      	str	r1, [r4, #4]
100018cc:	7006      	strb	r6, [r0, #0]
100018ce:	e0aa      	b.n	10001a26 <__flsbuf+0x1de>
100018d0:	68e0      	ldr	r0, [r4, #12]
100018d2:	4691      	mov	r9, r2
100018d4:	6022      	str	r2, [r4, #0]
100018d6:	f440 5000 	orr.w	r0, r0, #8192	; 0x2000
100018da:	60e0      	str	r0, [r4, #12]
100018dc:	6920      	ldr	r0, [r4, #16]
100018de:	bb78      	cbnz	r0, 10001940 <__flsbuf+0xf8>
100018e0:	6960      	ldr	r0, [r4, #20]
100018e2:	f001 fedf 	bl	100036a4 <_sys_istty>
100018e6:	f104 0524 	add.w	r5, r4, #36	; 0x24
100018ea:	f04f 0801 	mov.w	r8, #1
100018ee:	b1a8      	cbz	r0, 1000191c <__flsbuf+0xd4>
100018f0:	89a0      	ldrh	r0, [r4, #12]
100018f2:	f410 7f40 	tst.w	r0, #768	; 0x300
100018f6:	d008      	beq.n	1000190a <__flsbuf+0xc2>
100018f8:	69e0      	ldr	r0, [r4, #28]
100018fa:	f000 f9b2 	bl	10001c62 <malloc>
100018fe:	6120      	str	r0, [r4, #16]
10001900:	b118      	cbz	r0, 1000190a <__flsbuf+0xc2>
10001902:	68e0      	ldr	r0, [r4, #12]
10001904:	f440 6000 	orr.w	r0, r0, #2048	; 0x800
10001908:	e017      	b.n	1000193a <__flsbuf+0xf2>
1000190a:	f8c4 801c 	str.w	r8, [r4, #28]
1000190e:	6125      	str	r5, [r4, #16]
10001910:	68e0      	ldr	r0, [r4, #12]
10001912:	f420 7040 	bic.w	r0, r0, #768	; 0x300
10001916:	f440 6080 	orr.w	r0, r0, #1024	; 0x400
1000191a:	e00e      	b.n	1000193a <__flsbuf+0xf2>
1000191c:	69e0      	ldr	r0, [r4, #28]
1000191e:	f000 f9a0 	bl	10001c62 <malloc>
10001922:	2800      	cmp	r0, #0
10001924:	6120      	str	r0, [r4, #16]
10001926:	d0f0      	beq.n	1000190a <__flsbuf+0xc2>
10001928:	68e0      	ldr	r0, [r4, #12]
1000192a:	f440 6000 	orr.w	r0, r0, #2048	; 0x800
1000192e:	f410 7f40 	tst.w	r0, #768	; 0x300
10001932:	60e0      	str	r0, [r4, #12]
10001934:	d102      	bne.n	1000193c <__flsbuf+0xf4>
10001936:	f440 7080 	orr.w	r0, r0, #256	; 0x100
1000193a:	60e0      	str	r0, [r4, #12]
1000193c:	6920      	ldr	r0, [r4, #16]
1000193e:	6060      	str	r0, [r4, #4]
10001940:	68e0      	ldr	r0, [r4, #12]
10001942:	6925      	ldr	r5, [r4, #16]
10001944:	f06f 0b01 	mvn.w	fp, #1
10001948:	05c1      	lsls	r1, r0, #23
1000194a:	d51e      	bpl.n	1000198a <__flsbuf+0x142>
1000194c:	6861      	ldr	r1, [r4, #4]
1000194e:	6ae0      	ldr	r0, [r4, #44]	; 0x2c
10001950:	4288      	cmp	r0, r1
10001952:	d800      	bhi.n	10001956 <__flsbuf+0x10e>
10001954:	4608      	mov	r0, r1
10001956:	1b41      	subs	r1, r0, r5
10001958:	d004      	beq.n	10001964 <__flsbuf+0x11c>
1000195a:	4622      	mov	r2, r4
1000195c:	4628      	mov	r0, r5
1000195e:	f000 fa35 	bl	10001dcc <_writebuf>
10001962:	bbe8      	cbnz	r0, 100019e0 <__flsbuf+0x198>
10001964:	b11f      	cbz	r7, 1000196e <__flsbuf+0x126>
10001966:	62e5      	str	r5, [r4, #44]	; 0x2c
10001968:	e9c4 5901 	strd	r5, r9, [r4, #4]
1000196c:	e059      	b.n	10001a22 <__flsbuf+0x1da>
1000196e:	1c68      	adds	r0, r5, #1
10001970:	62e0      	str	r0, [r4, #44]	; 0x2c
10001972:	6060      	str	r0, [r4, #4]
10001974:	69e0      	ldr	r0, [r4, #28]
10001976:	1e40      	subs	r0, r0, #1
10001978:	60a0      	str	r0, [r4, #8]
1000197a:	68e0      	ldr	r0, [r4, #12]
1000197c:	f440 3080 	orr.w	r0, r0, #65536	; 0x10000
10001980:	60e0      	str	r0, [r4, #12]
10001982:	4630      	mov	r0, r6
10001984:	702e      	strb	r6, [r5, #0]
10001986:	e8bd 9ff0 	ldmia.w	sp!, {r4, r5, r6, r7, r8, r9, sl, fp, ip, pc}
1000198a:	b117      	cbz	r7, 10001992 <__flsbuf+0x14a>
1000198c:	f400 3280 	and.w	r2, r0, #65536	; 0x10000
10001990:	e00a      	b.n	100019a8 <__flsbuf+0x160>
10001992:	6860      	ldr	r0, [r4, #4]
10001994:	1c41      	adds	r1, r0, #1
10001996:	6061      	str	r1, [r4, #4]
10001998:	7006      	strb	r6, [r0, #0]
1000199a:	68e0      	ldr	r0, [r4, #12]
1000199c:	2e0a      	cmp	r6, #10
1000199e:	f440 3080 	orr.w	r0, r0, #65536	; 0x10000
100019a2:	60e0      	str	r0, [r4, #12]
100019a4:	d006      	beq.n	100019b4 <__flsbuf+0x16c>
100019a6:	2200      	movs	r2, #0
100019a8:	6ae1      	ldr	r1, [r4, #44]	; 0x2c
100019aa:	6860      	ldr	r0, [r4, #4]
100019ac:	4281      	cmp	r1, r0
100019ae:	d903      	bls.n	100019b8 <__flsbuf+0x170>
100019b0:	460b      	mov	r3, r1
100019b2:	e002      	b.n	100019ba <__flsbuf+0x172>
100019b4:	2201      	movs	r2, #1
100019b6:	e7f7      	b.n	100019a8 <__flsbuf+0x160>
100019b8:	4603      	mov	r3, r0
100019ba:	f8b4 c00c 	ldrh.w	ip, [r4, #12]
100019be:	1b5b      	subs	r3, r3, r5
100019c0:	ea5f 5c4c 	movs.w	ip, ip, lsl #21
100019c4:	d404      	bmi.n	100019d0 <__flsbuf+0x188>
100019c6:	f8d4 c01c 	ldr.w	ip, [r4, #28]
100019ca:	459c      	cmp	ip, r3
100019cc:	dd00      	ble.n	100019d0 <__flsbuf+0x188>
100019ce:	b302      	cbz	r2, 10001a12 <__flsbuf+0x1ca>
100019d0:	4281      	cmp	r1, r0
100019d2:	d800      	bhi.n	100019d6 <__flsbuf+0x18e>
100019d4:	4601      	mov	r1, r0
100019d6:	2b00      	cmp	r3, #0
100019d8:	eba1 0800 	sub.w	r8, r1, r0
100019dc:	62e5      	str	r5, [r4, #44]	; 0x2c
100019de:	e000      	b.n	100019e2 <__flsbuf+0x19a>
100019e0:	e008      	b.n	100019f4 <__flsbuf+0x1ac>
100019e2:	e9c4 5901 	strd	r5, r9, [r4, #4]
100019e6:	dd07      	ble.n	100019f8 <__flsbuf+0x1b0>
100019e8:	4622      	mov	r2, r4
100019ea:	4619      	mov	r1, r3
100019ec:	4628      	mov	r0, r5
100019ee:	f000 f9ed 	bl	10001dcc <_writebuf>
100019f2:	b108      	cbz	r0, 100019f8 <__flsbuf+0x1b0>
100019f4:	4650      	mov	r0, sl
100019f6:	e7c6      	b.n	10001986 <__flsbuf+0x13e>
100019f8:	f1b8 0f00 	cmp.w	r8, #0
100019fc:	d009      	beq.n	10001a12 <__flsbuf+0x1ca>
100019fe:	69a1      	ldr	r1, [r4, #24]
10001a00:	62e5      	str	r5, [r4, #44]	; 0x2c
10001a02:	6065      	str	r5, [r4, #4]
10001a04:	eba1 0008 	sub.w	r0, r1, r8
10001a08:	61a0      	str	r0, [r4, #24]
10001a0a:	68e0      	ldr	r0, [r4, #12]
10001a0c:	f040 0010 	orr.w	r0, r0, #16
10001a10:	60e0      	str	r0, [r4, #12]
10001a12:	b147      	cbz	r7, 10001a26 <__flsbuf+0x1de>
10001a14:	6861      	ldr	r1, [r4, #4]
10001a16:	69a0      	ldr	r0, [r4, #24]
10001a18:	62e5      	str	r5, [r4, #44]	; 0x2c
10001a1a:	1b49      	subs	r1, r1, r5
10001a1c:	4408      	add	r0, r1
10001a1e:	6065      	str	r5, [r4, #4]
10001a20:	61a0      	str	r0, [r4, #24]
10001a22:	4658      	mov	r0, fp
10001a24:	e7af      	b.n	10001986 <__flsbuf+0x13e>
10001a26:	4630      	mov	r0, r6
10001a28:	e7ad      	b.n	10001986 <__flsbuf+0x13e>

10001a2a <setvbuf>:
10001a2a:	b570      	push	{r4, r5, r6, lr}
10001a2c:	68c4      	ldr	r4, [r0, #12]
10001a2e:	07a5      	lsls	r5, r4, #30
10001a30:	d013      	beq.n	10001a5a <setvbuf+0x30>
10001a32:	0265      	lsls	r5, r4, #9
10001a34:	d411      	bmi.n	10001a5a <setvbuf+0x30>
10001a36:	f5b2 7f80 	cmp.w	r2, #256	; 0x100
10001a3a:	d009      	beq.n	10001a50 <setvbuf+0x26>
10001a3c:	f5b2 7f00 	cmp.w	r2, #512	; 0x200
10001a40:	d006      	beq.n	10001a50 <setvbuf+0x26>
10001a42:	f5b2 6f80 	cmp.w	r2, #1024	; 0x400
10001a46:	d108      	bne.n	10001a5a <setvbuf+0x30>
10001a48:	2301      	movs	r3, #1
10001a4a:	f100 0124 	add.w	r1, r0, #36	; 0x24
10001a4e:	e006      	b.n	10001a5e <setvbuf+0x34>
10001a50:	1e5d      	subs	r5, r3, #1
10001a52:	f06f 467f 	mvn.w	r6, #4278190080	; 0xff000000
10001a56:	42b5      	cmp	r5, r6
10001a58:	d301      	bcc.n	10001a5e <setvbuf+0x34>
10001a5a:	2001      	movs	r0, #1
10001a5c:	bd70      	pop	{r4, r5, r6, pc}
10001a5e:	6101      	str	r1, [r0, #16]
10001a60:	61c3      	str	r3, [r0, #28]
10001a62:	6041      	str	r1, [r0, #4]
10001a64:	f424 6170 	bic.w	r1, r4, #3840	; 0xf00
10001a68:	4311      	orrs	r1, r2
10001a6a:	60c1      	str	r1, [r0, #12]
10001a6c:	2000      	movs	r0, #0
10001a6e:	bd70      	pop	{r4, r5, r6, pc}

10001a70 <freopen>:
10001a70:	e92d 41f0 	stmdb	sp!, {r4, r5, r6, r7, r8, lr}
10001a74:	460c      	mov	r4, r1
10001a76:	4616      	mov	r6, r2
10001a78:	0007      	movs	r7, r0
10001a7a:	d047      	beq.n	10001b0c <freopen+0x9c>
10001a7c:	4610      	mov	r0, r2
10001a7e:	f000 f86f 	bl	10001b60 <_fclose_internal>
10001a82:	7820      	ldrb	r0, [r4, #0]
10001a84:	1c61      	adds	r1, r4, #1
10001a86:	2861      	cmp	r0, #97	; 0x61
10001a88:	d00a      	beq.n	10001aa0 <freopen+0x30>
10001a8a:	2872      	cmp	r0, #114	; 0x72
10001a8c:	d002      	beq.n	10001a94 <freopen+0x24>
10001a8e:	2877      	cmp	r0, #119	; 0x77
10001a90:	d13c      	bne.n	10001b0c <freopen+0x9c>
10001a92:	e002      	b.n	10001a9a <freopen+0x2a>
10001a94:	2501      	movs	r5, #1
10001a96:	2400      	movs	r4, #0
10001a98:	e005      	b.n	10001aa6 <freopen+0x36>
10001a9a:	2502      	movs	r5, #2
10001a9c:	2404      	movs	r4, #4
10001a9e:	e002      	b.n	10001aa6 <freopen+0x36>
10001aa0:	2408      	movs	r4, #8
10001aa2:	f248 0502 	movw	r5, #32770	; 0x8002
10001aa6:	f811 0b01 	ldrb.w	r0, [r1], #1
10001aaa:	282b      	cmp	r0, #43	; 0x2b
10001aac:	d006      	beq.n	10001abc <freopen+0x4c>
10001aae:	2862      	cmp	r0, #98	; 0x62
10001ab0:	d009      	beq.n	10001ac6 <freopen+0x56>
10001ab2:	f811 0c01 	ldrb.w	r0, [r1, #-1]
10001ab6:	2874      	cmp	r0, #116	; 0x74
10001ab8:	d00a      	beq.n	10001ad0 <freopen+0x60>
10001aba:	e00b      	b.n	10001ad4 <freopen+0x64>
10001abc:	f045 0503 	orr.w	r5, r5, #3
10001ac0:	f044 0402 	orr.w	r4, r4, #2
10001ac4:	e7ef      	b.n	10001aa6 <freopen+0x36>
10001ac6:	f045 0504 	orr.w	r5, r5, #4
10001aca:	f044 0401 	orr.w	r4, r4, #1
10001ace:	e7ea      	b.n	10001aa6 <freopen+0x36>
10001ad0:	f044 0410 	orr.w	r4, r4, #16
10001ad4:	4638      	mov	r0, r7
10001ad6:	4621      	mov	r1, r4
10001ad8:	f001 fe08 	bl	100036ec <_sys_open>
10001adc:	1c41      	adds	r1, r0, #1
10001ade:	d015      	beq.n	10001b0c <freopen+0x9c>
10001ae0:	2100      	movs	r1, #0
10001ae2:	6131      	str	r1, [r6, #16]
10001ae4:	6071      	str	r1, [r6, #4]
10001ae6:	f44f 7100 	mov.w	r1, #512	; 0x200
10001aea:	60f5      	str	r5, [r6, #12]
10001aec:	61f1      	str	r1, [r6, #28]
10001aee:	6170      	str	r0, [r6, #20]
10001af0:	0720      	lsls	r0, r4, #28
10001af2:	d504      	bpl.n	10001afe <freopen+0x8e>
10001af4:	4630      	mov	r0, r6
10001af6:	2202      	movs	r2, #2
10001af8:	2100      	movs	r1, #0
10001afa:	f000 f8e1 	bl	10001cc0 <_fseek>
10001afe:	6d30      	ldr	r0, [r6, #80]	; 0x50
10001b00:	f040 0001 	orr.w	r0, r0, #1
10001b04:	6530      	str	r0, [r6, #80]	; 0x50
10001b06:	4630      	mov	r0, r6
10001b08:	e8bd 81f0 	ldmia.w	sp!, {r4, r5, r6, r7, r8, pc}
10001b0c:	2000      	movs	r0, #0
10001b0e:	e7fb      	b.n	10001b08 <freopen+0x98>

10001b10 <fopen>:
10001b10:	e92d 41f0 	stmdb	sp!, {r4, r5, r6, r7, r8, lr}
10001b14:	460d      	mov	r5, r1
10001b16:	4606      	mov	r6, r0
10001b18:	4c10      	ldr	r4, [pc, #64]	; (10001b5c <fopen+0x4c>)
10001b1a:	6d20      	ldr	r0, [r4, #80]	; 0x50
10001b1c:	07c1      	lsls	r1, r0, #31
10001b1e:	d004      	beq.n	10001b2a <fopen+0x1a>
10001b20:	0841      	lsrs	r1, r0, #1
10001b22:	d004      	beq.n	10001b2e <fopen+0x1e>
10001b24:	f020 0401 	bic.w	r4, r0, #1
10001b28:	e7f7      	b.n	10001b1a <fopen+0xa>
10001b2a:	4622      	mov	r2, r4
10001b2c:	e00e      	b.n	10001b4c <fopen+0x3c>
10001b2e:	2054      	movs	r0, #84	; 0x54
10001b30:	f000 f897 	bl	10001c62 <malloc>
10001b34:	0007      	movs	r7, r0
10001b36:	d00e      	beq.n	10001b56 <fopen+0x46>
10001b38:	6d20      	ldr	r0, [r4, #80]	; 0x50
10001b3a:	f047 0101 	orr.w	r1, r7, #1
10001b3e:	4308      	orrs	r0, r1
10001b40:	2154      	movs	r1, #84	; 0x54
10001b42:	6520      	str	r0, [r4, #80]	; 0x50
10001b44:	4638      	mov	r0, r7
10001b46:	f7fe fd5b 	bl	10000600 <__aeabi_memclr4>
10001b4a:	463a      	mov	r2, r7
10001b4c:	4629      	mov	r1, r5
10001b4e:	4630      	mov	r0, r6
10001b50:	e8bd 41f0 	ldmia.w	sp!, {r4, r5, r6, r7, r8, lr}
10001b54:	e78c      	b.n	10001a70 <freopen>
10001b56:	2000      	movs	r0, #0
10001b58:	e7d6      	b.n	10001b08 <freopen+0x98>
10001b5a:	0000      	.short	0x0000
10001b5c:	38000038 	.word	0x38000038

10001b60 <_fclose_internal>:
10001b60:	e92d 47f0 	stmdb	sp!, {r4, r5, r6, r7, r8, r9, sl, lr}
10001b64:	4604      	mov	r4, r0
10001b66:	f04f 38ff 	mov.w	r8, #4294967295	; 0xffffffff
10001b6a:	2600      	movs	r6, #0
10001b6c:	68c5      	ldr	r5, [r0, #12]
10001b6e:	e9d4 9704 	ldrd	r9, r7, [r4, #16]
10001b72:	07a8      	lsls	r0, r5, #30
10001b74:	d018      	beq.n	10001ba8 <_fclose_internal+0x48>
10001b76:	4620      	mov	r0, r4
10001b78:	f000 f95e 	bl	10001e38 <_fflush>
10001b7c:	4638      	mov	r0, r7
10001b7e:	f001 fd47 	bl	10003610 <_sys_close>
10001b82:	2800      	cmp	r0, #0
10001b84:	da00      	bge.n	10001b88 <_fclose_internal+0x28>
10001b86:	4646      	mov	r6, r8
10001b88:	0528      	lsls	r0, r5, #20
10001b8a:	d502      	bpl.n	10001b92 <_fclose_internal+0x32>
10001b8c:	4648      	mov	r0, r9
10001b8e:	f7ff fd81 	bl	10001694 <free>
10001b92:	214c      	movs	r1, #76	; 0x4c
10001b94:	4620      	mov	r0, r4
10001b96:	f7fe fd33 	bl	10000600 <__aeabi_memclr4>
10001b9a:	6d20      	ldr	r0, [r4, #80]	; 0x50
10001b9c:	f020 0001 	bic.w	r0, r0, #1
10001ba0:	6520      	str	r0, [r4, #80]	; 0x50
10001ba2:	4630      	mov	r0, r6
10001ba4:	e8bd 87f0 	ldmia.w	sp!, {r4, r5, r6, r7, r8, r9, sl, pc}
10001ba8:	4640      	mov	r0, r8
10001baa:	e7fb      	b.n	10001ba4 <_fclose_internal+0x44>

10001bac <exit>:
10001bac:	b510      	push	{r4, lr}
10001bae:	4604      	mov	r4, r0
10001bb0:	f3af 8000 	nop.w
10001bb4:	4620      	mov	r0, r4
10001bb6:	e8bd 4010 	ldmia.w	sp!, {r4, lr}
10001bba:	f7fe bce3 	b.w	10000584 <__rt_exit>

10001bbe <__rt_SIGRTRED>:
10001bbe:	b510      	push	{r4, lr}
10001bc0:	f000 f984 	bl	10001ecc <__rt_SIGRTRED_inner>
10001bc4:	e8bd 4010 	ldmia.w	sp!, {r4, lr}
10001bc8:	f000 b97a 	b.w	10001ec0 <__sig_exit>

10001bcc <__rt_heap_descriptor>:
10001bcc:	4800      	ldr	r0, [pc, #0]	; (10001bd0 <__rt_heap_descriptor+0x4>)
10001bce:	4770      	bx	lr
10001bd0:	3800013c 	.word	0x3800013c

10001bd4 <__use_no_heap>:
10001bd4:	4770      	bx	lr

10001bd6 <__heap$guard>:
10001bd6:	4770      	bx	lr

10001bd8 <_terminate_user_alloc>:
10001bd8:	4770      	bx	lr

10001bda <_init_user_alloc>:
10001bda:	4770      	bx	lr

10001bdc <__Heap_Full>:
10001bdc:	b538      	push	{r3, r4, r5, lr}
10001bde:	4604      	mov	r4, r0
10001be0:	460a      	mov	r2, r1
10001be2:	2000      	movs	r0, #0
10001be4:	4669      	mov	r1, sp
10001be6:	f3af 8000 	nop.w
10001bea:	2800      	cmp	r0, #0
10001bec:	bf08      	it	eq
10001bee:	bd38      	popeq	{r3, r4, r5, pc}
10001bf0:	4602      	mov	r2, r0
10001bf2:	9900      	ldr	r1, [sp, #0]
10001bf4:	4620      	mov	r0, r4
10001bf6:	f000 f990 	bl	10001f1a <__Heap_ProvideMemory>
10001bfa:	2001      	movs	r0, #1
10001bfc:	bd38      	pop	{r3, r4, r5, pc}

10001bfe <__Heap_Broken>:
10001bfe:	2001      	movs	r0, #1
10001c00:	f000 b9df 	b.w	10001fc2 <__rt_SIGRTMEM>

10001c04 <_init_alloc>:
10001c04:	b5f8      	push	{r3, r4, r5, r6, r7, lr}
10001c06:	f3af 8000 	nop.w
10001c0a:	4605      	mov	r5, r0
10001c0c:	2000      	movs	r0, #0
10001c0e:	460c      	mov	r4, r1
10001c10:	200c      	movs	r0, #12
10001c12:	bf00      	nop
10001c14:	4606      	mov	r6, r0
10001c16:	19a8      	adds	r0, r5, r6
10001c18:	42a0      	cmp	r0, r4
10001c1a:	d90d      	bls.n	10001c38 <_init_alloc+0x34>
10001c1c:	4632      	mov	r2, r6
10001c1e:	4669      	mov	r1, sp
10001c20:	2000      	movs	r0, #0
10001c22:	f3af 8000 	nop.w
10001c26:	0007      	movs	r7, r0
10001c28:	bf08      	it	eq
10001c2a:	f000 f9ca 	bleq	10001fc2 <__rt_SIGRTMEM>
10001c2e:	9800      	ldr	r0, [sp, #0]
10001c30:	42a0      	cmp	r0, r4
10001c32:	bf18      	it	ne
10001c34:	4605      	movne	r5, r0
10001c36:	19c4      	adds	r4, r0, r7
10001c38:	f7ff ffc8 	bl	10001bcc <__rt_heap_descriptor>
10001c3c:	6005      	str	r5, [r0, #0]
10001c3e:	4607      	mov	r7, r0
10001c40:	1df0      	adds	r0, r6, #7
10001c42:	f020 0007 	bic.w	r0, r0, #7
10001c46:	1946      	adds	r6, r0, r5
10001c48:	4628      	mov	r0, r5
10001c4a:	f000 f960 	bl	10001f0e <__Heap_Initialize>
10001c4e:	42b4      	cmp	r4, r6
10001c50:	bf08      	it	eq
10001c52:	bdf8      	popeq	{r3, r4, r5, r6, r7, pc}
10001c54:	1ba2      	subs	r2, r4, r6
10001c56:	4631      	mov	r1, r6
10001c58:	6838      	ldr	r0, [r7, #0]
10001c5a:	e8bd 40f8 	ldmia.w	sp!, {r3, r4, r5, r6, r7, lr}
10001c5e:	f000 b95c 	b.w	10001f1a <__Heap_ProvideMemory>

10001c62 <malloc>:
10001c62:	b570      	push	{r4, r5, r6, lr}
10001c64:	4606      	mov	r6, r0
10001c66:	f7ff ffb1 	bl	10001bcc <__rt_heap_descriptor>
10001c6a:	6805      	ldr	r5, [r0, #0]
10001c6c:	f106 000b 	add.w	r0, r6, #11
10001c70:	f020 0407 	bic.w	r4, r0, #7
10001c74:	42b4      	cmp	r4, r6
10001c76:	bf9c      	itt	ls
10001c78:	2000      	movls	r0, #0
10001c7a:	bd70      	popls	{r4, r5, r6, pc}
10001c7c:	462b      	mov	r3, r5
10001c7e:	686a      	ldr	r2, [r5, #4]
10001c80:	b1ba      	cbz	r2, 10001cb2 <malloc+0x50>
10001c82:	6810      	ldr	r0, [r2, #0]
10001c84:	42a0      	cmp	r0, r4
10001c86:	d310      	bcc.n	10001caa <malloc+0x48>
10001c88:	f104 0108 	add.w	r1, r4, #8
10001c8c:	4288      	cmp	r0, r1
10001c8e:	bf3c      	itt	cc
10001c90:	6850      	ldrcc	r0, [r2, #4]
10001c92:	6058      	strcc	r0, [r3, #4]
10001c94:	d307      	bcc.n	10001ca6 <malloc+0x44>
10001c96:	6851      	ldr	r1, [r2, #4]
10001c98:	1910      	adds	r0, r2, r4
10001c9a:	6041      	str	r1, [r0, #4]
10001c9c:	6811      	ldr	r1, [r2, #0]
10001c9e:	1b09      	subs	r1, r1, r4
10001ca0:	6001      	str	r1, [r0, #0]
10001ca2:	6058      	str	r0, [r3, #4]
10001ca4:	6014      	str	r4, [r2, #0]
10001ca6:	1d10      	adds	r0, r2, #4
10001ca8:	bd70      	pop	{r4, r5, r6, pc}
10001caa:	4613      	mov	r3, r2
10001cac:	6852      	ldr	r2, [r2, #4]
10001cae:	2a00      	cmp	r2, #0
10001cb0:	d1e7      	bne.n	10001c82 <malloc+0x20>
10001cb2:	4621      	mov	r1, r4
10001cb4:	4628      	mov	r0, r5
10001cb6:	f7ff ff91 	bl	10001bdc <__Heap_Full>
10001cba:	2800      	cmp	r0, #0
10001cbc:	d1de      	bne.n	10001c7c <malloc+0x1a>
10001cbe:	bd70      	pop	{r4, r5, r6, pc}

10001cc0 <_fseek>:
10001cc0:	e92d 41f0 	stmdb	sp!, {r4, r5, r6, r7, r8, lr}
10001cc4:	4604      	mov	r4, r0
10001cc6:	4616      	mov	r6, r2
10001cc8:	460d      	mov	r5, r1
10001cca:	6947      	ldr	r7, [r0, #20]
10001ccc:	7b00      	ldrb	r0, [r0, #12]
10001cce:	0780      	lsls	r0, r0, #30
10001cd0:	d02e      	beq.n	10001d30 <_fseek+0x70>
10001cd2:	4638      	mov	r0, r7
10001cd4:	f001 fce6 	bl	100036a4 <_sys_istty>
10001cd8:	bb50      	cbnz	r0, 10001d30 <_fseek+0x70>
10001cda:	b33e      	cbz	r6, 10001d2c <_fseek+0x6c>
10001cdc:	2e01      	cmp	r6, #1
10001cde:	d002      	beq.n	10001ce6 <_fseek+0x26>
10001ce0:	2e02      	cmp	r6, #2
10001ce2:	d125      	bne.n	10001d30 <_fseek+0x70>
10001ce4:	e004      	b.n	10001cf0 <_fseek+0x30>
10001ce6:	4620      	mov	r0, r4
10001ce8:	f000 f931 	bl	10001f4e <_ftell_internal>
10001cec:	4405      	add	r5, r0
10001cee:	e01d      	b.n	10001d2c <_fseek+0x6c>
10001cf0:	4638      	mov	r0, r7
10001cf2:	f001 fcb3 	bl	1000365c <_sys_flen>
10001cf6:	68e1      	ldr	r1, [r4, #12]
10001cf8:	2800      	cmp	r0, #0
10001cfa:	f041 0110 	orr.w	r1, r1, #16
10001cfe:	60e1      	str	r1, [r4, #12]
10001d00:	da05      	bge.n	10001d0e <_fseek+0x4e>
10001d02:	4620      	mov	r0, r4
10001d04:	f000 f858 	bl	10001db8 <_seterr>
10001d08:	2001      	movs	r0, #1
10001d0a:	e8bd 81f0 	ldmia.w	sp!, {r4, r5, r6, r7, r8, pc}
10001d0e:	03c9      	lsls	r1, r1, #15
10001d10:	d50b      	bpl.n	10001d2a <_fseek+0x6a>
10001d12:	6862      	ldr	r2, [r4, #4]
10001d14:	6ae1      	ldr	r1, [r4, #44]	; 0x2c
10001d16:	4291      	cmp	r1, r2
10001d18:	d800      	bhi.n	10001d1c <_fseek+0x5c>
10001d1a:	4611      	mov	r1, r2
10001d1c:	69a2      	ldr	r2, [r4, #24]
10001d1e:	4411      	add	r1, r2
10001d20:	6922      	ldr	r2, [r4, #16]
10001d22:	1a89      	subs	r1, r1, r2
10001d24:	4281      	cmp	r1, r0
10001d26:	dd00      	ble.n	10001d2a <_fseek+0x6a>
10001d28:	4608      	mov	r0, r1
10001d2a:	4405      	add	r5, r0
10001d2c:	2d00      	cmp	r5, #0
10001d2e:	da01      	bge.n	10001d34 <_fseek+0x74>
10001d30:	2002      	movs	r0, #2
10001d32:	e7ea      	b.n	10001d0a <_fseek+0x4a>
10001d34:	6ae1      	ldr	r1, [r4, #44]	; 0x2c
10001d36:	6860      	ldr	r0, [r4, #4]
10001d38:	68e2      	ldr	r2, [r4, #12]
10001d3a:	4281      	cmp	r1, r0
10001d3c:	d206      	bcs.n	10001d4c <_fseek+0x8c>
10001d3e:	0391      	lsls	r1, r2, #14
10001d40:	62e0      	str	r0, [r4, #44]	; 0x2c
10001d42:	d503      	bpl.n	10001d4c <_fseek+0x8c>
10001d44:	f422 3100 	bic.w	r1, r2, #131072	; 0x20000
10001d48:	f041 0210 	orr.w	r2, r1, #16
10001d4c:	69a6      	ldr	r6, [r4, #24]
10001d4e:	2700      	movs	r7, #0
10001d50:	42ae      	cmp	r6, r5
10001d52:	dc13      	bgt.n	10001d7c <_fseek+0xbc>
10001d54:	6ae1      	ldr	r1, [r4, #44]	; 0x2c
10001d56:	4281      	cmp	r1, r0
10001d58:	d901      	bls.n	10001d5e <_fseek+0x9e>
10001d5a:	460b      	mov	r3, r1
10001d5c:	e000      	b.n	10001d60 <_fseek+0xa0>
10001d5e:	4603      	mov	r3, r0
10001d60:	eb03 0c06 	add.w	ip, r3, r6
10001d64:	6923      	ldr	r3, [r4, #16]
10001d66:	ebac 0c03 	sub.w	ip, ip, r3
10001d6a:	45ac      	cmp	ip, r5
10001d6c:	dd06      	ble.n	10001d7c <_fseek+0xbc>
10001d6e:	4281      	cmp	r1, r0
10001d70:	d901      	bls.n	10001d76 <_fseek+0xb6>
10001d72:	468c      	mov	ip, r1
10001d74:	e000      	b.n	10001d78 <_fseek+0xb8>
10001d76:	4684      	mov	ip, r0
10001d78:	459c      	cmp	ip, r3
10001d7a:	d105      	bne.n	10001d88 <_fseek+0xc8>
10001d7c:	60a7      	str	r7, [r4, #8]
10001d7e:	6027      	str	r7, [r4, #0]
10001d80:	f042 0020 	orr.w	r0, r2, #32
10001d84:	62a5      	str	r5, [r4, #40]	; 0x28
10001d86:	e00d      	b.n	10001da4 <_fseek+0xe4>
10001d88:	1bad      	subs	r5, r5, r6
10001d8a:	69e6      	ldr	r6, [r4, #28]
10001d8c:	1bae      	subs	r6, r5, r6
10001d8e:	4281      	cmp	r1, r0
10001d90:	60a6      	str	r6, [r4, #8]
10001d92:	d900      	bls.n	10001d96 <_fseek+0xd6>
10001d94:	4608      	mov	r0, r1
10001d96:	1ac0      	subs	r0, r0, r3
10001d98:	1a28      	subs	r0, r5, r0
10001d9a:	6020      	str	r0, [r4, #0]
10001d9c:	1958      	adds	r0, r3, r5
10001d9e:	6060      	str	r0, [r4, #4]
10001da0:	f022 0020 	bic.w	r0, r2, #32
10001da4:	4903      	ldr	r1, [pc, #12]	; (10001db4 <_fseek+0xf4>)
10001da6:	4008      	ands	r0, r1
10001da8:	60e0      	str	r0, [r4, #12]
10001daa:	2000      	movs	r0, #0
10001dac:	f884 7048 	strb.w	r7, [r4, #72]	; 0x48
10001db0:	e7ab      	b.n	10001d0a <_fseek+0x4a>
10001db2:	0000      	.short	0x0000
10001db4:	ffd7cfbf 	.word	0xffd7cfbf

10001db8 <_seterr>:
10001db8:	68c1      	ldr	r1, [r0, #12]
10001dba:	f421 1100 	bic.w	r1, r1, #2097152	; 0x200000
10001dbe:	f041 0180 	orr.w	r1, r1, #128	; 0x80
10001dc2:	60c1      	str	r1, [r0, #12]
10001dc4:	2100      	movs	r1, #0
10001dc6:	6081      	str	r1, [r0, #8]
10001dc8:	6001      	str	r1, [r0, #0]
10001dca:	4770      	bx	lr

10001dcc <_writebuf>:
10001dcc:	e92d 4ff7 	stmdb	sp!, {r0, r1, r2, r4, r5, r6, r7, r8, r9, sl, fp, lr}
10001dd0:	4615      	mov	r5, r2
10001dd2:	460c      	mov	r4, r1
10001dd4:	f04f 3bff 	mov.w	fp, #4294967295	; 0xffffffff
10001dd8:	4838      	ldr	r0, [pc, #224]	; (10001ebc <_deferredlazyseek+0x3e>)
10001dda:	68d7      	ldr	r7, [r2, #12]
10001ddc:	f8d2 a014 	ldr.w	sl, [r2, #20]
10001de0:	4207      	tst	r7, r0
10001de2:	d009      	beq.n	10001df8 <_writebuf+0x2c>
10001de4:	4650      	mov	r0, sl
10001de6:	69a9      	ldr	r1, [r5, #24]
10001de8:	f001 fcc2 	bl	10003770 <_sys_seek>
10001dec:	2800      	cmp	r0, #0
10001dee:	db19      	blt.n	10001e24 <_writebuf+0x58>
10001df0:	4832      	ldr	r0, [pc, #200]	; (10001ebc <_deferredlazyseek+0x3e>)
10001df2:	43c0      	mvns	r0, r0
10001df4:	4007      	ands	r7, r0
10001df6:	60ef      	str	r7, [r5, #12]
10001df8:	f04f 4900 	mov.w	r9, #2147483648	; 0x80000000
10001dfc:	f06f 4800 	mvn.w	r8, #2147483648	; 0x80000000
10001e00:	454c      	cmp	r4, r9
10001e02:	d301      	bcc.n	10001e08 <_writebuf+0x3c>
10001e04:	4646      	mov	r6, r8
10001e06:	e000      	b.n	10001e0a <_writebuf+0x3e>
10001e08:	4626      	mov	r6, r4
10001e0a:	9900      	ldr	r1, [sp, #0]
10001e0c:	463b      	mov	r3, r7
10001e0e:	4650      	mov	r0, sl
10001e10:	4632      	mov	r2, r6
10001e12:	f001 fcd7 	bl	100037c4 <_sys_write>
10001e16:	69a9      	ldr	r1, [r5, #24]
10001e18:	f020 4200 	bic.w	r2, r0, #2147483648	; 0x80000000
10001e1c:	1ab2      	subs	r2, r6, r2
10001e1e:	4411      	add	r1, r2
10001e20:	61a9      	str	r1, [r5, #24]
10001e22:	b128      	cbz	r0, 10001e30 <_writebuf+0x64>
10001e24:	4628      	mov	r0, r5
10001e26:	f7ff ffc7 	bl	10001db8 <_seterr>
10001e2a:	4658      	mov	r0, fp
10001e2c:	e8bd 8ffe 	ldmia.w	sp!, {r1, r2, r3, r4, r5, r6, r7, r8, r9, sl, fp, pc}
10001e30:	1ba4      	subs	r4, r4, r6
10001e32:	d1e5      	bne.n	10001e00 <_writebuf+0x34>
10001e34:	2000      	movs	r0, #0
10001e36:	e7f9      	b.n	10001e2c <_writebuf+0x60>

10001e38 <_fflush>:
10001e38:	b570      	push	{r4, r5, r6, lr}
10001e3a:	4604      	mov	r4, r0
10001e3c:	6905      	ldr	r5, [r0, #16]
10001e3e:	6ac0      	ldr	r0, [r0, #44]	; 0x2c
10001e40:	6861      	ldr	r1, [r4, #4]
10001e42:	4288      	cmp	r0, r1
10001e44:	d800      	bhi.n	10001e48 <_fflush+0x10>
10001e46:	4608      	mov	r0, r1
10001e48:	68e1      	ldr	r1, [r4, #12]
10001e4a:	f421 1120 	bic.w	r1, r1, #2621440	; 0x280000
10001e4e:	60e1      	str	r1, [r4, #12]
10001e50:	03c9      	lsls	r1, r1, #15
10001e52:	d512      	bpl.n	10001e7a <_fflush+0x42>
10001e54:	42a8      	cmp	r0, r5
10001e56:	d008      	beq.n	10001e6a <_fflush+0x32>
10001e58:	4622      	mov	r2, r4
10001e5a:	1b41      	subs	r1, r0, r5
10001e5c:	4628      	mov	r0, r5
10001e5e:	f7ff ffb5 	bl	10001dcc <_writebuf>
10001e62:	b110      	cbz	r0, 10001e6a <_fflush+0x32>
10001e64:	f04f 30ff 	mov.w	r0, #4294967295	; 0xffffffff
10001e68:	bd70      	pop	{r4, r5, r6, pc}
10001e6a:	2000      	movs	r0, #0
10001e6c:	62e5      	str	r5, [r4, #44]	; 0x2c
10001e6e:	e9c4 5001 	strd	r5, r0, [r4, #4]
10001e72:	68e0      	ldr	r0, [r4, #12]
10001e74:	f420 3080 	bic.w	r0, r0, #65536	; 0x10000
10001e78:	60e0      	str	r0, [r4, #12]
10001e7a:	2000      	movs	r0, #0
10001e7c:	bd70      	pop	{r4, r5, r6, pc}

10001e7e <_deferredlazyseek>:
10001e7e:	b510      	push	{r4, lr}
10001e80:	4604      	mov	r4, r0
10001e82:	68c0      	ldr	r0, [r0, #12]
10001e84:	f020 0020 	bic.w	r0, r0, #32
10001e88:	60e0      	str	r0, [r4, #12]
10001e8a:	6aa1      	ldr	r1, [r4, #40]	; 0x28
10001e8c:	69a0      	ldr	r0, [r4, #24]
10001e8e:	4288      	cmp	r0, r1
10001e90:	d00d      	beq.n	10001eae <_deferredlazyseek+0x30>
10001e92:	4620      	mov	r0, r4
10001e94:	f7ff ffd0 	bl	10001e38 <_fflush>
10001e98:	68e0      	ldr	r0, [r4, #12]
10001e9a:	f420 5040 	bic.w	r0, r0, #12288	; 0x3000
10001e9e:	f040 0010 	orr.w	r0, r0, #16
10001ea2:	60e0      	str	r0, [r4, #12]
10001ea4:	6aa0      	ldr	r0, [r4, #40]	; 0x28
10001ea6:	61a0      	str	r0, [r4, #24]
10001ea8:	6920      	ldr	r0, [r4, #16]
10001eaa:	62e0      	str	r0, [r4, #44]	; 0x2c
10001eac:	6060      	str	r0, [r4, #4]
10001eae:	f244 0140 	movw	r1, #16448	; 0x4040
10001eb2:	68e0      	ldr	r0, [r4, #12]
10001eb4:	4388      	bics	r0, r1
10001eb6:	60e0      	str	r0, [r4, #12]
10001eb8:	bd10      	pop	{r4, pc}
10001eba:	0000      	.short	0x0000
10001ebc:	00020010 	.word	0x00020010

10001ec0 <__sig_exit>:
10001ec0:	2800      	cmp	r0, #0
10001ec2:	d001      	beq.n	10001ec8 <__sig_exit+0x8>
10001ec4:	f000 b81c 	b.w	10001f00 <_sys_exit>
10001ec8:	4770      	bx	lr
	...

10001ecc <__rt_SIGRTRED_inner>:
10001ecc:	b510      	push	{r4, lr}
10001ece:	4601      	mov	r1, r0
10001ed0:	a002      	add	r0, pc, #8	; (adr r0, 10001edc <__rt_SIGRTRED_inner+0x10>)
10001ed2:	f000 f85d 	bl	10001f90 <__default_signal_display>
10001ed6:	2001      	movs	r0, #1
10001ed8:	bd10      	pop	{r4, pc}
10001eda:	0000      	.short	0x0000
10001edc:	52474953 	.word	0x52474953
10001ee0:	44455254 	.word	0x44455254
10001ee4:	6552203a 	.word	0x6552203a
10001ee8:	65726964 	.word	0x65726964
10001eec:	203a7463 	.word	0x203a7463
10001ef0:	276e6163 	.word	0x276e6163
10001ef4:	706f2074 	.word	0x706f2074
10001ef8:	203a6e65 	.word	0x203a6e65
10001efc:	00000000 	.word	0x00000000

10001f00 <_sys_exit>:
10001f00:	4901      	ldr	r1, [pc, #4]	; (10001f08 <_sys_exit+0x8>)
10001f02:	2018      	movs	r0, #24
10001f04:	beab      	bkpt	0x00ab
10001f06:	e7fe      	b.n	10001f06 <_sys_exit+0x6>
10001f08:	00020026 	.word	0x00020026

10001f0c <__I$use$semihosting>:
10001f0c:	4770      	bx	lr

10001f0e <__Heap_Initialize>:
10001f0e:	2100      	movs	r1, #0
10001f10:	6001      	str	r1, [r0, #0]
10001f12:	6041      	str	r1, [r0, #4]
10001f14:	4770      	bx	lr

10001f16 <__Heap_DescSize>:
10001f16:	200c      	movs	r0, #12
10001f18:	4770      	bx	lr

10001f1a <__Heap_ProvideMemory>:
10001f1a:	4603      	mov	r3, r0
10001f1c:	6840      	ldr	r0, [r0, #4]
10001f1e:	468c      	mov	ip, r1
10001f20:	2800      	cmp	r0, #0
10001f22:	bf18      	it	ne
10001f24:	4288      	cmpne	r0, r1
10001f26:	bf3c      	itt	cc
10001f28:	4603      	movcc	r3, r0
10001f2a:	6840      	ldrcc	r0, [r0, #4]
10001f2c:	d3f8      	bcc.n	10001f20 <__Heap_ProvideMemory+0x6>
10001f2e:	6818      	ldr	r0, [r3, #0]
10001f30:	4418      	add	r0, r3
10001f32:	4288      	cmp	r0, r1
10001f34:	d007      	beq.n	10001f46 <__Heap_ProvideMemory+0x2c>
10001f36:	f10c 0003 	add.w	r0, ip, #3
10001f3a:	f020 0007 	bic.w	r0, r0, #7
10001f3e:	1d00      	adds	r0, r0, #4
10001f40:	1a41      	subs	r1, r0, r1
10001f42:	1a52      	subs	r2, r2, r1
10001f44:	4601      	mov	r1, r0
10001f46:	1d08      	adds	r0, r1, #4
10001f48:	600a      	str	r2, [r1, #0]
10001f4a:	f7ff bba3 	b.w	10001694 <free>

10001f4e <_ftell_internal>:
10001f4e:	b510      	push	{r4, lr}
10001f50:	4601      	mov	r1, r0
10001f52:	68c2      	ldr	r2, [r0, #12]
10001f54:	0790      	lsls	r0, r2, #30
10001f56:	d003      	beq.n	10001f60 <_ftell_internal+0x12>
10001f58:	0690      	lsls	r0, r2, #26
10001f5a:	d507      	bpl.n	10001f6c <_ftell_internal+0x1e>
10001f5c:	6a88      	ldr	r0, [r1, #40]	; 0x28
10001f5e:	e00a      	b.n	10001f76 <_ftell_internal+0x28>
10001f60:	f000 f83e 	bl	10001fe0 <__aeabi_errno_addr>
10001f64:	2101      	movs	r1, #1
10001f66:	6001      	str	r1, [r0, #0]
10001f68:	1e88      	subs	r0, r1, #2
10001f6a:	bd10      	pop	{r4, pc}
10001f6c:	698b      	ldr	r3, [r1, #24]
10001f6e:	6848      	ldr	r0, [r1, #4]
10001f70:	4418      	add	r0, r3
10001f72:	690b      	ldr	r3, [r1, #16]
10001f74:	1ac0      	subs	r0, r0, r3
10001f76:	f891 3048 	ldrb.w	r3, [r1, #72]	; 0x48
10001f7a:	b11b      	cbz	r3, 10001f84 <_ftell_internal+0x36>
10001f7c:	f891 1049 	ldrb.w	r1, [r1, #73]	; 0x49
10001f80:	1a40      	subs	r0, r0, r1
10001f82:	bd10      	pop	{r4, pc}
10001f84:	0311      	lsls	r1, r2, #12
10001f86:	d5fc      	bpl.n	10001f82 <_ftell_internal+0x34>
10001f88:	2800      	cmp	r0, #0
10001f8a:	ddfa      	ble.n	10001f82 <_ftell_internal+0x34>
10001f8c:	1e40      	subs	r0, r0, #1
10001f8e:	bd10      	pop	{r4, pc}

10001f90 <__default_signal_display>:
10001f90:	b570      	push	{r4, r5, r6, lr}
10001f92:	4605      	mov	r5, r0
10001f94:	460c      	mov	r4, r1
10001f96:	200a      	movs	r0, #10
10001f98:	e000      	b.n	10001f9c <__default_signal_display+0xc>
10001f9a:	1c6d      	adds	r5, r5, #1
10001f9c:	f000 f818 	bl	10001fd0 <_ttywrch>
10001fa0:	b135      	cbz	r5, 10001fb0 <__default_signal_display+0x20>
10001fa2:	7828      	ldrb	r0, [r5, #0]
10001fa4:	2800      	cmp	r0, #0
10001fa6:	d1f8      	bne.n	10001f9a <__default_signal_display+0xa>
10001fa8:	e002      	b.n	10001fb0 <__default_signal_display+0x20>
10001faa:	1c64      	adds	r4, r4, #1
10001fac:	f000 f810 	bl	10001fd0 <_ttywrch>
10001fb0:	b114      	cbz	r4, 10001fb8 <__default_signal_display+0x28>
10001fb2:	7820      	ldrb	r0, [r4, #0]
10001fb4:	2800      	cmp	r0, #0
10001fb6:	d1f8      	bne.n	10001faa <__default_signal_display+0x1a>
10001fb8:	e8bd 4070 	ldmia.w	sp!, {r4, r5, r6, lr}
10001fbc:	200a      	movs	r0, #10
10001fbe:	f000 b807 	b.w	10001fd0 <_ttywrch>

10001fc2 <__rt_SIGRTMEM>:
10001fc2:	b510      	push	{r4, lr}
10001fc4:	f000 f810 	bl	10001fe8 <__rt_SIGRTMEM_inner>
10001fc8:	e8bd 4010 	ldmia.w	sp!, {r4, lr}
10001fcc:	f7ff bf78 	b.w	10001ec0 <__sig_exit>

10001fd0 <_ttywrch>:
10001fd0:	b508      	push	{r3, lr}
10001fd2:	4669      	mov	r1, sp
10001fd4:	f88d 0000 	strb.w	r0, [sp]
10001fd8:	2003      	movs	r0, #3
10001fda:	beab      	bkpt	0x00ab
10001fdc:	bd08      	pop	{r3, pc}
	...

10001fe0 <__aeabi_errno_addr>:
10001fe0:	4800      	ldr	r0, [pc, #0]	; (10001fe4 <__aeabi_errno_addr+0x4>)
10001fe2:	4770      	bx	lr
10001fe4:	38000134 	.word	0x38000134

10001fe8 <__rt_SIGRTMEM_inner>:
10001fe8:	b510      	push	{r4, lr}
10001fea:	2801      	cmp	r0, #1
10001fec:	d005      	beq.n	10001ffa <__rt_SIGRTMEM_inner+0x12>
10001fee:	2100      	movs	r1, #0
10001ff0:	a003      	add	r0, pc, #12	; (adr r0, 10002000 <__rt_SIGRTMEM_inner+0x18>)
10001ff2:	f7ff ffcd 	bl	10001f90 <__default_signal_display>
10001ff6:	2001      	movs	r0, #1
10001ff8:	bd10      	pop	{r4, pc}
10001ffa:	a109      	add	r1, pc, #36	; (adr r1, 10002020 <__rt_SIGRTMEM_inner+0x38>)
10001ffc:	e7f8      	b.n	10001ff0 <__rt_SIGRTMEM_inner+0x8>
10001ffe:	0000      	.short	0x0000
10002000:	52474953 	.word	0x52474953
10002004:	4d454d54 	.word	0x4d454d54
10002008:	754f203a 	.word	0x754f203a
1000200c:	666f2074 	.word	0x666f2074
10002010:	61656820 	.word	0x61656820
10002014:	656d2070 	.word	0x656d2070
10002018:	79726f6d 	.word	0x79726f6d
1000201c:	00000000 	.word	0x00000000
10002020:	6548203a 	.word	0x6548203a
10002024:	6d207061 	.word	0x6d207061
10002028:	726f6d65 	.word	0x726f6d65
1000202c:	6f632079 	.word	0x6f632079
10002030:	70757272 	.word	0x70757272
10002034:	00646574 	.word	0x00646574

10002038 <Default_Handler>:
10002038:	b580      	push	{r7, lr}
1000203a:	f246 4033 	movw	r0, #25651	; 0x6433
1000203e:	f2c1 0000 	movt	r0, #4096	; 0x1000
10002042:	f7fe faa5 	bl	10000590 <printf>
10002046:	e7ff      	b.n	10002048 <Default_Handler+0x10>
10002048:	e7fe      	b.n	10002048 <Default_Handler+0x10>
	...

1000204c <GLCD_ClearScreen>:
1000204c:	b580      	push	{r7, lr}
1000204e:	b082      	sub	sp, #8
10002050:	2100      	movs	r1, #0
10002052:	9100      	str	r1, [sp, #0]
10002054:	f44f 72a0 	mov.w	r2, #320	; 0x140
10002058:	23f0      	movs	r3, #240	; 0xf0
1000205a:	4608      	mov	r0, r1
1000205c:	f000 fa5e 	bl	1000251c <GLCD_SetWindow>
10002060:	2022      	movs	r0, #34	; 0x22
10002062:	f001 ffc3 	bl	10003fec <wr_cmd>
10002066:	f002 f80d 	bl	10004084 <wr_dat_start>
1000206a:	9800      	ldr	r0, [sp, #0]
1000206c:	9001      	str	r0, [sp, #4]
1000206e:	e7ff      	b.n	10002070 <GLCD_ClearScreen+0x24>
10002070:	9801      	ldr	r0, [sp, #4]
10002072:	0a80      	lsrs	r0, r0, #10
10002074:	284a      	cmp	r0, #74	; 0x4a
10002076:	d80c      	bhi.n	10002092 <GLCD_ClearScreen+0x46>
10002078:	e7ff      	b.n	1000207a <GLCD_ClearScreen+0x2e>
1000207a:	f240 0030 	movw	r0, #48	; 0x30
1000207e:	f6c3 0000 	movt	r0, #14336	; 0x3800
10002082:	8800      	ldrh	r0, [r0, #0]
10002084:	f001 fff0 	bl	10004068 <wr_dat_only>
10002088:	e7ff      	b.n	1000208a <GLCD_ClearScreen+0x3e>
1000208a:	9801      	ldr	r0, [sp, #4]
1000208c:	3001      	adds	r0, #1
1000208e:	9001      	str	r0, [sp, #4]
10002090:	e7ee      	b.n	10002070 <GLCD_ClearScreen+0x24>
10002092:	f002 f805 	bl	100040a0 <wr_dat_stop>
10002096:	2000      	movs	r0, #0
10002098:	b002      	add	sp, #8
1000209a:	bd80      	pop	{r7, pc}

1000209c <GLCD_DrawChar>:
1000209c:	b580      	push	{r7, lr}
1000209e:	b08a      	sub	sp, #40	; 0x28
100020a0:	9008      	str	r0, [sp, #32]
100020a2:	9107      	str	r1, [sp, #28]
100020a4:	9206      	str	r2, [sp, #24]
100020a6:	f240 10bc 	movw	r0, #444	; 0x1bc
100020aa:	f6c3 0000 	movt	r0, #14336	; 0x3800
100020ae:	6800      	ldr	r0, [r0, #0]
100020b0:	b920      	cbnz	r0, 100020bc <GLCD_DrawChar+0x20>
100020b2:	e7ff      	b.n	100020b4 <GLCD_DrawChar+0x18>
100020b4:	f04f 30ff 	mov.w	r0, #4294967295	; 0xffffffff
100020b8:	9009      	str	r0, [sp, #36]	; 0x24
100020ba:	e080      	b.n	100021be <GLCD_DrawChar+0x122>
100020bc:	f240 12bc 	movw	r2, #444	; 0x1bc
100020c0:	f6c3 0200 	movt	r2, #14336	; 0x3800
100020c4:	6810      	ldr	r0, [r2, #0]
100020c6:	6841      	ldr	r1, [r0, #4]
100020c8:	9806      	ldr	r0, [sp, #24]
100020ca:	1a40      	subs	r0, r0, r1
100020cc:	9006      	str	r0, [sp, #24]
100020ce:	6810      	ldr	r0, [r2, #0]
100020d0:	8800      	ldrh	r0, [r0, #0]
100020d2:	3007      	adds	r0, #7
100020d4:	08c0      	lsrs	r0, r0, #3
100020d6:	9003      	str	r0, [sp, #12]
100020d8:	6811      	ldr	r1, [r2, #0]
100020da:	68cb      	ldr	r3, [r1, #12]
100020dc:	9806      	ldr	r0, [sp, #24]
100020de:	f8dd c00c 	ldr.w	ip, [sp, #12]
100020e2:	fb00 f00c 	mul.w	r0, r0, ip
100020e6:	8849      	ldrh	r1, [r1, #2]
100020e8:	fb00 3001 	mla	r0, r0, r1, r3
100020ec:	9002      	str	r0, [sp, #8]
100020ee:	9808      	ldr	r0, [sp, #32]
100020f0:	9907      	ldr	r1, [sp, #28]
100020f2:	6813      	ldr	r3, [r2, #0]
100020f4:	881a      	ldrh	r2, [r3, #0]
100020f6:	885b      	ldrh	r3, [r3, #2]
100020f8:	f000 fa10 	bl	1000251c <GLCD_SetWindow>
100020fc:	2022      	movs	r0, #34	; 0x22
100020fe:	f001 ff75 	bl	10003fec <wr_cmd>
10002102:	f001 ffbf 	bl	10004084 <wr_dat_start>
10002106:	2000      	movs	r0, #0
10002108:	9005      	str	r0, [sp, #20]
1000210a:	e7ff      	b.n	1000210c <GLCD_DrawChar+0x70>
1000210c:	9805      	ldr	r0, [sp, #20]
1000210e:	f240 11bc 	movw	r1, #444	; 0x1bc
10002112:	f6c3 0100 	movt	r1, #14336	; 0x3800
10002116:	6809      	ldr	r1, [r1, #0]
10002118:	8849      	ldrh	r1, [r1, #2]
1000211a:	4288      	cmp	r0, r1
1000211c:	d24a      	bcs.n	100021b4 <GLCD_DrawChar+0x118>
1000211e:	e7ff      	b.n	10002120 <GLCD_DrawChar+0x84>
10002120:	2000      	movs	r0, #0
10002122:	9004      	str	r0, [sp, #16]
10002124:	e7ff      	b.n	10002126 <GLCD_DrawChar+0x8a>
10002126:	9804      	ldr	r0, [sp, #16]
10002128:	f240 11bc 	movw	r1, #444	; 0x1bc
1000212c:	f6c3 0100 	movt	r1, #14336	; 0x3800
10002130:	6809      	ldr	r1, [r1, #0]
10002132:	8809      	ldrh	r1, [r1, #0]
10002134:	4288      	cmp	r0, r1
10002136:	d235      	bcs.n	100021a4 <GLCD_DrawChar+0x108>
10002138:	e7ff      	b.n	1000213a <GLCD_DrawChar+0x9e>
1000213a:	9802      	ldr	r0, [sp, #8]
1000213c:	7800      	ldrb	r0, [r0, #0]
1000213e:	9904      	ldr	r1, [sp, #16]
10002140:	f001 0107 	and.w	r1, r1, #7
10002144:	40c8      	lsrs	r0, r1
10002146:	07c0      	lsls	r0, r0, #31
10002148:	b138      	cbz	r0, 1000215a <GLCD_DrawChar+0xbe>
1000214a:	e7ff      	b.n	1000214c <GLCD_DrawChar+0xb0>
1000214c:	f240 10c4 	movw	r0, #452	; 0x1c4
10002150:	f6c3 0000 	movt	r0, #14336	; 0x3800
10002154:	8800      	ldrh	r0, [r0, #0]
10002156:	9001      	str	r0, [sp, #4]
10002158:	e006      	b.n	10002168 <GLCD_DrawChar+0xcc>
1000215a:	f240 0030 	movw	r0, #48	; 0x30
1000215e:	f6c3 0000 	movt	r0, #14336	; 0x3800
10002162:	8800      	ldrh	r0, [r0, #0]
10002164:	9001      	str	r0, [sp, #4]
10002166:	e7ff      	b.n	10002168 <GLCD_DrawChar+0xcc>
10002168:	9801      	ldr	r0, [sp, #4]
1000216a:	b280      	uxth	r0, r0
1000216c:	f001 ff7c 	bl	10004068 <wr_dat_only>
10002170:	9804      	ldr	r0, [sp, #16]
10002172:	f000 0007 	and.w	r0, r0, #7
10002176:	2807      	cmp	r0, #7
10002178:	d10f      	bne.n	1000219a <GLCD_DrawChar+0xfe>
1000217a:	e7ff      	b.n	1000217c <GLCD_DrawChar+0xe0>
1000217c:	9804      	ldr	r0, [sp, #16]
1000217e:	f240 11bc 	movw	r1, #444	; 0x1bc
10002182:	f6c3 0100 	movt	r1, #14336	; 0x3800
10002186:	6809      	ldr	r1, [r1, #0]
10002188:	8809      	ldrh	r1, [r1, #0]
1000218a:	3901      	subs	r1, #1
1000218c:	4288      	cmp	r0, r1
1000218e:	d004      	beq.n	1000219a <GLCD_DrawChar+0xfe>
10002190:	e7ff      	b.n	10002192 <GLCD_DrawChar+0xf6>
10002192:	9802      	ldr	r0, [sp, #8]
10002194:	3001      	adds	r0, #1
10002196:	9002      	str	r0, [sp, #8]
10002198:	e7ff      	b.n	1000219a <GLCD_DrawChar+0xfe>
1000219a:	e7ff      	b.n	1000219c <GLCD_DrawChar+0x100>
1000219c:	9804      	ldr	r0, [sp, #16]
1000219e:	3001      	adds	r0, #1
100021a0:	9004      	str	r0, [sp, #16]
100021a2:	e7c0      	b.n	10002126 <GLCD_DrawChar+0x8a>
100021a4:	9802      	ldr	r0, [sp, #8]
100021a6:	3001      	adds	r0, #1
100021a8:	9002      	str	r0, [sp, #8]
100021aa:	e7ff      	b.n	100021ac <GLCD_DrawChar+0x110>
100021ac:	9805      	ldr	r0, [sp, #20]
100021ae:	3001      	adds	r0, #1
100021b0:	9005      	str	r0, [sp, #20]
100021b2:	e7ab      	b.n	1000210c <GLCD_DrawChar+0x70>
100021b4:	f001 ff74 	bl	100040a0 <wr_dat_stop>
100021b8:	2000      	movs	r0, #0
100021ba:	9009      	str	r0, [sp, #36]	; 0x24
100021bc:	e7ff      	b.n	100021be <GLCD_DrawChar+0x122>
100021be:	9809      	ldr	r0, [sp, #36]	; 0x24
100021c0:	b00a      	add	sp, #40	; 0x28
100021c2:	bd80      	pop	{r7, pc}

100021c4 <GLCD_DrawString>:
100021c4:	b580      	push	{r7, lr}
100021c6:	b084      	sub	sp, #16
100021c8:	9003      	str	r0, [sp, #12]
100021ca:	9102      	str	r1, [sp, #8]
100021cc:	9201      	str	r2, [sp, #4]
100021ce:	e7ff      	b.n	100021d0 <GLCD_DrawString+0xc>
100021d0:	9801      	ldr	r0, [sp, #4]
100021d2:	7800      	ldrb	r0, [r0, #0]
100021d4:	b190      	cbz	r0, 100021fc <GLCD_DrawString+0x38>
100021d6:	e7ff      	b.n	100021d8 <GLCD_DrawString+0x14>
100021d8:	9803      	ldr	r0, [sp, #12]
100021da:	9902      	ldr	r1, [sp, #8]
100021dc:	9a01      	ldr	r2, [sp, #4]
100021de:	1c53      	adds	r3, r2, #1
100021e0:	9301      	str	r3, [sp, #4]
100021e2:	7812      	ldrb	r2, [r2, #0]
100021e4:	f7ff ff5a 	bl	1000209c <GLCD_DrawChar>
100021e8:	f240 10bc 	movw	r0, #444	; 0x1bc
100021ec:	f6c3 0000 	movt	r0, #14336	; 0x3800
100021f0:	6800      	ldr	r0, [r0, #0]
100021f2:	8801      	ldrh	r1, [r0, #0]
100021f4:	9803      	ldr	r0, [sp, #12]
100021f6:	4408      	add	r0, r1
100021f8:	9003      	str	r0, [sp, #12]
100021fa:	e7e9      	b.n	100021d0 <GLCD_DrawString+0xc>
100021fc:	2000      	movs	r0, #0
100021fe:	b004      	add	sp, #16
10002200:	bd80      	pop	{r7, pc}
	...

10002204 <GLCD_Initialize>:
10002204:	b580      	push	{r7, lr}
10002206:	b09c      	sub	sp, #112	; 0x70
10002208:	f246 0104 	movw	r1, #24580	; 0x6004
1000220c:	f2c4 0120 	movt	r1, #16416	; 0x4020
10002210:	2000      	movs	r0, #0
10002212:	901b      	str	r0, [sp, #108]	; 0x6c
10002214:	6008      	str	r0, [r1, #0]
10002216:	f246 0224 	movw	r2, #24612	; 0x6024
1000221a:	f2c4 0220 	movt	r2, #16416	; 0x4020
1000221e:	6010      	str	r0, [r2, #0]
10002220:	f246 0214 	movw	r2, #24596	; 0x6014
10002224:	f2c4 0220 	movt	r2, #16416	; 0x4020
10002228:	6010      	str	r0, [r2, #0]
1000222a:	f246 0220 	movw	r2, #24608	; 0x6020
1000222e:	f2c4 0220 	movt	r2, #16416	; 0x4020
10002232:	2003      	movs	r0, #3
10002234:	6010      	str	r0, [r2, #0]
10002236:	f246 0200 	movw	r2, #24576	; 0x6000
1000223a:	f2c4 0220 	movt	r2, #16416	; 0x4020
1000223e:	f240 1007 	movw	r0, #263	; 0x107
10002242:	6010      	str	r0, [r2, #0]
10002244:	f246 0210 	movw	r2, #24592	; 0x6010
10002248:	f2c4 0220 	movt	r2, #16416	; 0x4020
1000224c:	2002      	movs	r0, #2
1000224e:	9001      	str	r0, [sp, #4]
10002250:	6010      	str	r0, [r2, #0]
10002252:	6008      	str	r0, [r1, #0]
10002254:	f242 014c 	movw	r1, #8268	; 0x204c
10002258:	f2c4 0130 	movt	r1, #16432	; 0x4030
1000225c:	911a      	str	r1, [sp, #104]	; 0x68
1000225e:	6808      	ldr	r0, [r1, #0]
10002260:	f040 0009 	orr.w	r0, r0, #9
10002264:	6008      	str	r0, [r1, #0]
10002266:	6808      	ldr	r0, [r1, #0]
10002268:	f020 0070 	bic.w	r0, r0, #112	; 0x70
1000226c:	6008      	str	r0, [r1, #0]
1000226e:	6808      	ldr	r0, [r1, #0]
10002270:	f020 0008 	bic.w	r0, r0, #8
10002274:	6008      	str	r0, [r1, #0]
10002276:	2001      	movs	r0, #1
10002278:	9016      	str	r0, [sp, #88]	; 0x58
1000227a:	f001 fadf 	bl	1000383c <delay_ms>
1000227e:	991a      	ldr	r1, [sp, #104]	; 0x68
10002280:	6808      	ldr	r0, [r1, #0]
10002282:	f040 0008 	orr.w	r0, r0, #8
10002286:	6008      	str	r0, [r1, #0]
10002288:	2005      	movs	r0, #5
1000228a:	f001 fad7 	bl	1000383c <delay_ms>
1000228e:	991b      	ldr	r1, [sp, #108]	; 0x6c
10002290:	20ea      	movs	r0, #234	; 0xea
10002292:	f001 ff0f 	bl	100040b4 <wr_reg>
10002296:	20eb      	movs	r0, #235	; 0xeb
10002298:	2120      	movs	r1, #32
1000229a:	f001 ff0b 	bl	100040b4 <wr_reg>
1000229e:	20ec      	movs	r0, #236	; 0xec
100022a0:	210c      	movs	r1, #12
100022a2:	9105      	str	r1, [sp, #20]
100022a4:	f001 ff06 	bl	100040b4 <wr_reg>
100022a8:	20ed      	movs	r0, #237	; 0xed
100022aa:	21c7      	movs	r1, #199	; 0xc7
100022ac:	f001 ff02 	bl	100040b4 <wr_reg>
100022b0:	20e8      	movs	r0, #232	; 0xe8
100022b2:	2138      	movs	r1, #56	; 0x38
100022b4:	9111      	str	r1, [sp, #68]	; 0x44
100022b6:	f001 fefd 	bl	100040b4 <wr_reg>
100022ba:	20e9      	movs	r0, #233	; 0xe9
100022bc:	2110      	movs	r1, #16
100022be:	9115      	str	r1, [sp, #84]	; 0x54
100022c0:	f001 fef8 	bl	100040b4 <wr_reg>
100022c4:	9916      	ldr	r1, [sp, #88]	; 0x58
100022c6:	20f1      	movs	r0, #241	; 0xf1
100022c8:	f001 fef4 	bl	100040b4 <wr_reg>
100022cc:	9915      	ldr	r1, [sp, #84]	; 0x54
100022ce:	20f2      	movs	r0, #242	; 0xf2
100022d0:	f001 fef0 	bl	100040b4 <wr_reg>
100022d4:	9916      	ldr	r1, [sp, #88]	; 0x58
100022d6:	2040      	movs	r0, #64	; 0x40
100022d8:	9018      	str	r0, [sp, #96]	; 0x60
100022da:	f001 feeb 	bl	100040b4 <wr_reg>
100022de:	991b      	ldr	r1, [sp, #108]	; 0x6c
100022e0:	2041      	movs	r0, #65	; 0x41
100022e2:	f001 fee7 	bl	100040b4 <wr_reg>
100022e6:	991b      	ldr	r1, [sp, #108]	; 0x6c
100022e8:	2042      	movs	r0, #66	; 0x42
100022ea:	f001 fee3 	bl	100040b4 <wr_reg>
100022ee:	9915      	ldr	r1, [sp, #84]	; 0x54
100022f0:	2043      	movs	r0, #67	; 0x43
100022f2:	f001 fedf 	bl	100040b4 <wr_reg>
100022f6:	2044      	movs	r0, #68	; 0x44
100022f8:	210e      	movs	r1, #14
100022fa:	9114      	str	r1, [sp, #80]	; 0x50
100022fc:	f001 feda 	bl	100040b4 <wr_reg>
10002300:	2045      	movs	r0, #69	; 0x45
10002302:	2124      	movs	r1, #36	; 0x24
10002304:	9107      	str	r1, [sp, #28]
10002306:	f001 fed5 	bl	100040b4 <wr_reg>
1000230a:	2046      	movs	r0, #70	; 0x46
1000230c:	2104      	movs	r1, #4
1000230e:	f001 fed1 	bl	100040b4 <wr_reg>
10002312:	2047      	movs	r0, #71	; 0x47
10002314:	2150      	movs	r1, #80	; 0x50
10002316:	9102      	str	r1, [sp, #8]
10002318:	f001 fecc 	bl	100040b4 <wr_reg>
1000231c:	9901      	ldr	r1, [sp, #4]
1000231e:	2048      	movs	r0, #72	; 0x48
10002320:	f001 fec8 	bl	100040b4 <wr_reg>
10002324:	2049      	movs	r0, #73	; 0x49
10002326:	2113      	movs	r1, #19
10002328:	9119      	str	r1, [sp, #100]	; 0x64
1000232a:	f001 fec3 	bl	100040b4 <wr_reg>
1000232e:	204a      	movs	r0, #74	; 0x4a
10002330:	2119      	movs	r1, #25
10002332:	9109      	str	r1, [sp, #36]	; 0x24
10002334:	f001 febe 	bl	100040b4 <wr_reg>
10002338:	9909      	ldr	r1, [sp, #36]	; 0x24
1000233a:	204b      	movs	r0, #75	; 0x4b
1000233c:	f001 feba 	bl	100040b4 <wr_reg>
10002340:	204c      	movs	r0, #76	; 0x4c
10002342:	2116      	movs	r1, #22
10002344:	9113      	str	r1, [sp, #76]	; 0x4c
10002346:	f001 feb5 	bl	100040b4 <wr_reg>
1000234a:	9802      	ldr	r0, [sp, #8]
1000234c:	211b      	movs	r1, #27
1000234e:	9106      	str	r1, [sp, #24]
10002350:	f001 feb0 	bl	100040b4 <wr_reg>
10002354:	2051      	movs	r0, #81	; 0x51
10002356:	2131      	movs	r1, #49	; 0x31
10002358:	910f      	str	r1, [sp, #60]	; 0x3c
1000235a:	f001 feab 	bl	100040b4 <wr_reg>
1000235e:	2052      	movs	r0, #82	; 0x52
10002360:	212f      	movs	r1, #47	; 0x2f
10002362:	910e      	str	r1, [sp, #56]	; 0x38
10002364:	f001 fea6 	bl	100040b4 <wr_reg>
10002368:	2053      	movs	r0, #83	; 0x53
1000236a:	213f      	movs	r1, #63	; 0x3f
1000236c:	9103      	str	r1, [sp, #12]
1000236e:	f001 fea1 	bl	100040b4 <wr_reg>
10002372:	9903      	ldr	r1, [sp, #12]
10002374:	2054      	movs	r0, #84	; 0x54
10002376:	f001 fe9d 	bl	100040b4 <wr_reg>
1000237a:	2055      	movs	r0, #85	; 0x55
1000237c:	900d      	str	r0, [sp, #52]	; 0x34
1000237e:	213e      	movs	r1, #62	; 0x3e
10002380:	f001 fe98 	bl	100040b4 <wr_reg>
10002384:	990e      	ldr	r1, [sp, #56]	; 0x38
10002386:	2056      	movs	r0, #86	; 0x56
10002388:	f001 fe94 	bl	100040b4 <wr_reg>
1000238c:	2057      	movs	r0, #87	; 0x57
1000238e:	9008      	str	r0, [sp, #32]
10002390:	217b      	movs	r1, #123	; 0x7b
10002392:	f001 fe8f 	bl	100040b4 <wr_reg>
10002396:	2058      	movs	r0, #88	; 0x58
10002398:	2109      	movs	r1, #9
1000239a:	f001 fe8b 	bl	100040b4 <wr_reg>
1000239e:	2059      	movs	r0, #89	; 0x59
100023a0:	2106      	movs	r1, #6
100023a2:	9104      	str	r1, [sp, #16]
100023a4:	f001 fe86 	bl	100040b4 <wr_reg>
100023a8:	9904      	ldr	r1, [sp, #16]
100023aa:	205a      	movs	r0, #90	; 0x5a
100023ac:	f001 fe82 	bl	100040b4 <wr_reg>
100023b0:	9905      	ldr	r1, [sp, #20]
100023b2:	205b      	movs	r0, #91	; 0x5b
100023b4:	f001 fe7e 	bl	100040b4 <wr_reg>
100023b8:	205c      	movs	r0, #92	; 0x5c
100023ba:	211d      	movs	r1, #29
100023bc:	f001 fe7a 	bl	100040b4 <wr_reg>
100023c0:	205d      	movs	r0, #93	; 0x5d
100023c2:	21cc      	movs	r1, #204	; 0xcc
100023c4:	f001 fe76 	bl	100040b4 <wr_reg>
100023c8:	9906      	ldr	r1, [sp, #24]
100023ca:	4608      	mov	r0, r1
100023cc:	f001 fe72 	bl	100040b4 <wr_reg>
100023d0:	9916      	ldr	r1, [sp, #88]	; 0x58
100023d2:	201a      	movs	r0, #26
100023d4:	f001 fe6e 	bl	100040b4 <wr_reg>
100023d8:	9807      	ldr	r0, [sp, #28]
100023da:	990e      	ldr	r1, [sp, #56]	; 0x38
100023dc:	f001 fe6a 	bl	100040b4 <wr_reg>
100023e0:	9908      	ldr	r1, [sp, #32]
100023e2:	2025      	movs	r0, #37	; 0x25
100023e4:	f001 fe66 	bl	100040b4 <wr_reg>
100023e8:	2023      	movs	r0, #35	; 0x23
100023ea:	2188      	movs	r1, #136	; 0x88
100023ec:	910a      	str	r1, [sp, #40]	; 0x28
100023ee:	f001 fe61 	bl	100040b4 <wr_reg>
100023f2:	2018      	movs	r0, #24
100023f4:	2136      	movs	r1, #54	; 0x36
100023f6:	f001 fe5d 	bl	100040b4 <wr_reg>
100023fa:	9809      	ldr	r0, [sp, #36]	; 0x24
100023fc:	9916      	ldr	r1, [sp, #88]	; 0x58
100023fe:	f001 fe59 	bl	100040b4 <wr_reg>
10002402:	9816      	ldr	r0, [sp, #88]	; 0x58
10002404:	991b      	ldr	r1, [sp, #108]	; 0x6c
10002406:	f001 fe55 	bl	100040b4 <wr_reg>
1000240a:	990a      	ldr	r1, [sp, #40]	; 0x28
1000240c:	201f      	movs	r0, #31
1000240e:	900b      	str	r0, [sp, #44]	; 0x2c
10002410:	f001 fe50 	bl	100040b4 <wr_reg>
10002414:	2032      	movs	r0, #50	; 0x32
10002416:	9010      	str	r0, [sp, #64]	; 0x40
10002418:	f001 fa10 	bl	1000383c <delay_ms>
1000241c:	980b      	ldr	r0, [sp, #44]	; 0x2c
1000241e:	2182      	movs	r1, #130	; 0x82
10002420:	f001 fe48 	bl	100040b4 <wr_reg>
10002424:	200a      	movs	r0, #10
10002426:	900c      	str	r0, [sp, #48]	; 0x30
10002428:	f001 fa08 	bl	1000383c <delay_ms>
1000242c:	980b      	ldr	r0, [sp, #44]	; 0x2c
1000242e:	2192      	movs	r1, #146	; 0x92
10002430:	f001 fe40 	bl	100040b4 <wr_reg>
10002434:	980c      	ldr	r0, [sp, #48]	; 0x30
10002436:	f001 fa01 	bl	1000383c <delay_ms>
1000243a:	980b      	ldr	r0, [sp, #44]	; 0x2c
1000243c:	21d2      	movs	r1, #210	; 0xd2
1000243e:	f001 fe39 	bl	100040b4 <wr_reg>
10002442:	980c      	ldr	r0, [sp, #48]	; 0x30
10002444:	f001 f9fa 	bl	1000383c <delay_ms>
10002448:	990d      	ldr	r1, [sp, #52]	; 0x34
1000244a:	2017      	movs	r0, #23
1000244c:	f001 fe32 	bl	100040b4 <wr_reg>
10002450:	991b      	ldr	r1, [sp, #108]	; 0x6c
10002452:	4608      	mov	r0, r1
10002454:	f001 fe2e 	bl	100040b4 <wr_reg>
10002458:	980e      	ldr	r0, [sp, #56]	; 0x38
1000245a:	2111      	movs	r1, #17
1000245c:	9117      	str	r1, [sp, #92]	; 0x5c
1000245e:	f001 fe29 	bl	100040b4 <wr_reg>
10002462:	980f      	ldr	r0, [sp, #60]	; 0x3c
10002464:	991b      	ldr	r1, [sp, #108]	; 0x6c
10002466:	f001 fe25 	bl	100040b4 <wr_reg>
1000246a:	9810      	ldr	r0, [sp, #64]	; 0x40
1000246c:	991b      	ldr	r1, [sp, #108]	; 0x6c
1000246e:	f001 fe21 	bl	100040b4 <wr_reg>
10002472:	9911      	ldr	r1, [sp, #68]	; 0x44
10002474:	2028      	movs	r0, #40	; 0x28
10002476:	9012      	str	r0, [sp, #72]	; 0x48
10002478:	f001 fe1c 	bl	100040b4 <wr_reg>
1000247c:	20c8      	movs	r0, #200	; 0xc8
1000247e:	f001 f9dd 	bl	1000383c <delay_ms>
10002482:	9812      	ldr	r0, [sp, #72]	; 0x48
10002484:	213c      	movs	r1, #60	; 0x3c
10002486:	f001 fe15 	bl	100040b4 <wr_reg>
1000248a:	9813      	ldr	r0, [sp, #76]	; 0x4c
1000248c:	21a8      	movs	r1, #168	; 0xa8
1000248e:	f001 fe11 	bl	100040b4 <wr_reg>
10002492:	9814      	ldr	r0, [sp, #80]	; 0x50
10002494:	991b      	ldr	r1, [sp, #108]	; 0x6c
10002496:	f001 fe0d 	bl	100040b4 <wr_reg>
1000249a:	991b      	ldr	r1, [sp, #108]	; 0x6c
1000249c:	200f      	movs	r0, #15
1000249e:	f001 fe09 	bl	100040b4 <wr_reg>
100024a2:	9815      	ldr	r0, [sp, #84]	; 0x54
100024a4:	9916      	ldr	r1, [sp, #88]	; 0x58
100024a6:	f001 fe05 	bl	100040b4 <wr_reg>
100024aa:	9817      	ldr	r0, [sp, #92]	; 0x5c
100024ac:	9918      	ldr	r1, [sp, #96]	; 0x60
100024ae:	f001 fe01 	bl	100040b4 <wr_reg>
100024b2:	991b      	ldr	r1, [sp, #108]	; 0x6c
100024b4:	2012      	movs	r0, #18
100024b6:	f001 fdfd 	bl	100040b4 <wr_reg>
100024ba:	9819      	ldr	r0, [sp, #100]	; 0x64
100024bc:	991b      	ldr	r1, [sp, #108]	; 0x6c
100024be:	f001 fdf9 	bl	100040b4 <wr_reg>
100024c2:	9a1a      	ldr	r2, [sp, #104]	; 0x68
100024c4:	981b      	ldr	r0, [sp, #108]	; 0x6c
100024c6:	6811      	ldr	r1, [r2, #0]
100024c8:	f041 0140 	orr.w	r1, r1, #64	; 0x40
100024cc:	6011      	str	r1, [r2, #0]
100024ce:	b01c      	add	sp, #112	; 0x70
100024d0:	bd80      	pop	{r7, pc}
	...

100024d4 <GLCD_SetBackgroundColor>:
100024d4:	b081      	sub	sp, #4
100024d6:	9000      	str	r0, [sp, #0]
100024d8:	9800      	ldr	r0, [sp, #0]
100024da:	f240 0130 	movw	r1, #48	; 0x30
100024de:	f6c3 0100 	movt	r1, #14336	; 0x3800
100024e2:	8008      	strh	r0, [r1, #0]
100024e4:	2000      	movs	r0, #0
100024e6:	b001      	add	sp, #4
100024e8:	4770      	bx	lr
	...

100024ec <GLCD_SetFont>:
100024ec:	b081      	sub	sp, #4
100024ee:	9000      	str	r0, [sp, #0]
100024f0:	9800      	ldr	r0, [sp, #0]
100024f2:	f240 11bc 	movw	r1, #444	; 0x1bc
100024f6:	f6c3 0100 	movt	r1, #14336	; 0x3800
100024fa:	6008      	str	r0, [r1, #0]
100024fc:	2000      	movs	r0, #0
100024fe:	b001      	add	sp, #4
10002500:	4770      	bx	lr
	...

10002504 <GLCD_SetForegroundColor>:
10002504:	b081      	sub	sp, #4
10002506:	9000      	str	r0, [sp, #0]
10002508:	9800      	ldr	r0, [sp, #0]
1000250a:	f240 11c4 	movw	r1, #452	; 0x1c4
1000250e:	f6c3 0100 	movt	r1, #14336	; 0x3800
10002512:	8008      	strh	r0, [r1, #0]
10002514:	2000      	movs	r0, #0
10002516:	b001      	add	sp, #4
10002518:	4770      	bx	lr
	...

1000251c <GLCD_SetWindow>:
1000251c:	b580      	push	{r7, lr}
1000251e:	b086      	sub	sp, #24
10002520:	9005      	str	r0, [sp, #20]
10002522:	9104      	str	r1, [sp, #16]
10002524:	9203      	str	r2, [sp, #12]
10002526:	9302      	str	r3, [sp, #8]
10002528:	9805      	ldr	r0, [sp, #20]
1000252a:	9903      	ldr	r1, [sp, #12]
1000252c:	4408      	add	r0, r1
1000252e:	3801      	subs	r0, #1
10002530:	9001      	str	r0, [sp, #4]
10002532:	9804      	ldr	r0, [sp, #16]
10002534:	9902      	ldr	r1, [sp, #8]
10002536:	4408      	add	r0, r1
10002538:	3801      	subs	r0, #1
1000253a:	9000      	str	r0, [sp, #0]
1000253c:	f8bd 1015 	ldrh.w	r1, [sp, #21]
10002540:	2002      	movs	r0, #2
10002542:	f001 fdb7 	bl	100040b4 <wr_reg>
10002546:	f89d 1014 	ldrb.w	r1, [sp, #20]
1000254a:	2003      	movs	r0, #3
1000254c:	f001 fdb2 	bl	100040b4 <wr_reg>
10002550:	f8bd 1005 	ldrh.w	r1, [sp, #5]
10002554:	2004      	movs	r0, #4
10002556:	f001 fdad 	bl	100040b4 <wr_reg>
1000255a:	f89d 1004 	ldrb.w	r1, [sp, #4]
1000255e:	2005      	movs	r0, #5
10002560:	f001 fda8 	bl	100040b4 <wr_reg>
10002564:	f8bd 1011 	ldrh.w	r1, [sp, #17]
10002568:	2006      	movs	r0, #6
1000256a:	f001 fda3 	bl	100040b4 <wr_reg>
1000256e:	f89d 1010 	ldrb.w	r1, [sp, #16]
10002572:	2007      	movs	r0, #7
10002574:	f001 fd9e 	bl	100040b4 <wr_reg>
10002578:	f8bd 1001 	ldrh.w	r1, [sp, #1]
1000257c:	2008      	movs	r0, #8
1000257e:	f001 fd99 	bl	100040b4 <wr_reg>
10002582:	f89d 1000 	ldrb.w	r1, [sp]
10002586:	2009      	movs	r0, #9
10002588:	f001 fd94 	bl	100040b4 <wr_reg>
1000258c:	b006      	add	sp, #24
1000258e:	bd80      	pop	{r7, pc}

10002590 <HardFault_Handler>:
10002590:	b580      	push	{r7, lr}
10002592:	f246 4021 	movw	r0, #25633	; 0x6421
10002596:	f2c1 0000 	movt	r0, #4096	; 0x1000
1000259a:	f7fd fff9 	bl	10000590 <printf>
1000259e:	e7ff      	b.n	100025a0 <HardFault_Handler+0x10>
100025a0:	e7fe      	b.n	100025a0 <HardFault_Handler+0x10>
	...

100025a4 <LED_Initialize>:
100025a4:	2104      	movs	r1, #4
100025a6:	f2c4 0130 	movt	r1, #16432	; 0x4030
100025aa:	2000      	movs	r0, #0
100025ac:	6008      	str	r0, [r1, #0]
100025ae:	4770      	bx	lr

100025b0 <LED_Off>:
100025b0:	b081      	sub	sp, #4
100025b2:	9000      	str	r0, [sp, #0]
100025b4:	9800      	ldr	r0, [sp, #0]
100025b6:	2807      	cmp	r0, #7
100025b8:	d80b      	bhi.n	100025d2 <LED_Off+0x22>
100025ba:	e7ff      	b.n	100025bc <LED_Off+0xc>
100025bc:	9900      	ldr	r1, [sp, #0]
100025be:	2001      	movs	r0, #1
100025c0:	fa00 f201 	lsl.w	r2, r0, r1
100025c4:	2104      	movs	r1, #4
100025c6:	f2c4 0130 	movt	r1, #16432	; 0x4030
100025ca:	6808      	ldr	r0, [r1, #0]
100025cc:	4390      	bics	r0, r2
100025ce:	6008      	str	r0, [r1, #0]
100025d0:	e7ff      	b.n	100025d2 <LED_Off+0x22>
100025d2:	2000      	movs	r0, #0
100025d4:	b001      	add	sp, #4
100025d6:	4770      	bx	lr

100025d8 <LED_On>:
100025d8:	b081      	sub	sp, #4
100025da:	9000      	str	r0, [sp, #0]
100025dc:	9800      	ldr	r0, [sp, #0]
100025de:	2807      	cmp	r0, #7
100025e0:	d80b      	bhi.n	100025fa <LED_On+0x22>
100025e2:	e7ff      	b.n	100025e4 <LED_On+0xc>
100025e4:	9900      	ldr	r1, [sp, #0]
100025e6:	2001      	movs	r0, #1
100025e8:	fa00 f201 	lsl.w	r2, r0, r1
100025ec:	2104      	movs	r1, #4
100025ee:	f2c4 0130 	movt	r1, #16432	; 0x4030
100025f2:	6808      	ldr	r0, [r1, #0]
100025f4:	4310      	orrs	r0, r2
100025f6:	6008      	str	r0, [r1, #0]
100025f8:	e7ff      	b.n	100025fa <LED_On+0x22>
100025fa:	2000      	movs	r0, #0
100025fc:	b001      	add	sp, #4
100025fe:	4770      	bx	lr

10002600 <Reset_Handler>:
10002600:	b084      	sub	sp, #16
10002602:	f64f 70f8 	movw	r0, #65528	; 0xfff8
10002606:	f6c3 001f 	movt	r0, #14367	; 0x381f
1000260a:	9000      	str	r0, [sp, #0]
1000260c:	9800      	ldr	r0, [sp, #0]
1000260e:	f380 8809 	msr	PSP, r0
10002612:	f64f 30f8 	movw	r0, #64504	; 0xfbf8
10002616:	f6c3 001f 	movt	r0, #14367	; 0x381f
1000261a:	9001      	str	r0, [sp, #4]
1000261c:	9901      	ldr	r1, [sp, #4]
1000261e:	f381 880a 	msr	<unknown>, r1
10002622:	9002      	str	r0, [sp, #8]
10002624:	9802      	ldr	r0, [sp, #8]
10002626:	f380 880b 	msr	<unknown>, r0
1000262a:	f64f 70f8 	movw	r0, #65528	; 0xfff8
1000262e:	f6c3 001f 	movt	r0, #14367	; 0x381f
10002632:	9003      	str	r0, [sp, #12]
10002634:	9903      	ldr	r1, [sp, #12]
10002636:	f64e 50a5 	movw	r0, #60837	; 0xeda5
1000263a:	f6cf 60f5 	movt	r0, #65269	; 0xfef5
1000263e:	6048      	str	r0, [r1, #4]
10002640:	6008      	str	r0, [r1, #0]
10002642:	f000 fa03 	bl	10002a4c <SystemInit>
10002646:	f7fd fedb 	bl	10000400 <__main>
	...

1000264c <SCB_GetFPUType>:
1000264c:	b082      	sub	sp, #8
1000264e:	f64e 7040 	movw	r0, #61248	; 0xef40
10002652:	f2ce 0000 	movt	r0, #57344	; 0xe000
10002656:	6800      	ldr	r0, [r0, #0]
10002658:	9000      	str	r0, [sp, #0]
1000265a:	9800      	ldr	r0, [sp, #0]
1000265c:	f400 607f 	and.w	r0, r0, #4080	; 0xff0
10002660:	f5b0 7f08 	cmp.w	r0, #544	; 0x220
10002664:	d103      	bne.n	1000266e <SCB_GetFPUType+0x22>
10002666:	e7ff      	b.n	10002668 <SCB_GetFPUType+0x1c>
10002668:	2002      	movs	r0, #2
1000266a:	9001      	str	r0, [sp, #4]
1000266c:	e00b      	b.n	10002686 <SCB_GetFPUType+0x3a>
1000266e:	9800      	ldr	r0, [sp, #0]
10002670:	f400 607f 	and.w	r0, r0, #4080	; 0xff0
10002674:	2820      	cmp	r0, #32
10002676:	d103      	bne.n	10002680 <SCB_GetFPUType+0x34>
10002678:	e7ff      	b.n	1000267a <SCB_GetFPUType+0x2e>
1000267a:	2001      	movs	r0, #1
1000267c:	9001      	str	r0, [sp, #4]
1000267e:	e002      	b.n	10002686 <SCB_GetFPUType+0x3a>
10002680:	2000      	movs	r0, #0
10002682:	9001      	str	r0, [sp, #4]
10002684:	e7ff      	b.n	10002686 <SCB_GetFPUType+0x3a>
10002686:	9801      	ldr	r0, [sp, #4]
10002688:	b002      	add	sp, #8
1000268a:	4770      	bx	lr

1000268c <__acle_se_SECURE_NOPE>:
1000268c:	f3ef 8c14 	mrs	ip, CONTROL
10002690:	f01c 0f08 	tst.w	ip, #8
10002694:	d017      	beq.n	100026c6 <__acle_se_SECURE_NOPE+0x3a>
10002696:	ec4e eb10 	vmov	d0, lr, lr
1000269a:	ec4e eb11 	vmov	d1, lr, lr
1000269e:	ec4e eb12 	vmov	d2, lr, lr
100026a2:	ec4e eb13 	vmov	d3, lr, lr
100026a6:	ec4e eb14 	vmov	d4, lr, lr
100026aa:	ec4e eb15 	vmov	d5, lr, lr
100026ae:	ec4e eb16 	vmov	d6, lr, lr
100026b2:	ec4e eb17 	vmov	d7, lr, lr
100026b6:	eef1 ca10 	vmrs	ip, fpscr
100026ba:	f02c 0c9f 	bic.w	ip, ip, #159	; 0x9f
100026be:	f02c 4c70 	bic.w	ip, ip, #4026531840	; 0xf0000000
100026c2:	eee1 ca10 	vmsr	fpscr, ip
100026c6:	4670      	mov	r0, lr
100026c8:	4671      	mov	r1, lr
100026ca:	4672      	mov	r2, lr
100026cc:	4673      	mov	r3, lr
100026ce:	46f4      	mov	ip, lr
100026d0:	f38e 8c00 	msr	CPSR_fs, lr
100026d4:	4774      	bxns	lr
	...

100026d8 <__acle_se_SECURE_register_callback>:
100026d8:	b580      	push	{r7, lr}
100026da:	b082      	sub	sp, #8
100026dc:	9001      	str	r0, [sp, #4]
100026de:	f246 303a 	movw	r0, #25402	; 0x633a
100026e2:	f2c1 0000 	movt	r0, #4096	; 0x1000
100026e6:	f7fd ff53 	bl	10000590 <printf>
100026ea:	9801      	ldr	r0, [sp, #4]
100026ec:	f240 11c0 	movw	r1, #448	; 0x1c0
100026f0:	f6c3 0100 	movt	r1, #14336	; 0x3800
100026f4:	6008      	str	r0, [r1, #0]
100026f6:	f246 3016 	movw	r0, #25366	; 0x6316
100026fa:	f2c1 0000 	movt	r0, #4096	; 0x1000
100026fe:	f7fd ff47 	bl	10000590 <printf>
10002702:	b002      	add	sp, #8
10002704:	e8bd 4080 	ldmia.w	sp!, {r7, lr}
10002708:	f3ef 8c14 	mrs	ip, CONTROL
1000270c:	f01c 0f08 	tst.w	ip, #8
10002710:	d017      	beq.n	10002742 <__acle_se_SECURE_register_callback+0x6a>
10002712:	ec4e eb10 	vmov	d0, lr, lr
10002716:	ec4e eb11 	vmov	d1, lr, lr
1000271a:	ec4e eb12 	vmov	d2, lr, lr
1000271e:	ec4e eb13 	vmov	d3, lr, lr
10002722:	ec4e eb14 	vmov	d4, lr, lr
10002726:	ec4e eb15 	vmov	d5, lr, lr
1000272a:	ec4e eb16 	vmov	d6, lr, lr
1000272e:	ec4e eb17 	vmov	d7, lr, lr
10002732:	eef1 ca10 	vmrs	ip, fpscr
10002736:	f02c 0c9f 	bic.w	ip, ip, #159	; 0x9f
1000273a:	f02c 4c70 	bic.w	ip, ip, #4026531840	; 0xf0000000
1000273e:	eee1 ca10 	vmsr	fpscr, ip
10002742:	4670      	mov	r0, lr
10002744:	4671      	mov	r1, lr
10002746:	4672      	mov	r2, lr
10002748:	4673      	mov	r3, lr
1000274a:	46f4      	mov	ip, lr
1000274c:	f38e 8c00 	msr	CPSR_fs, lr
10002750:	4774      	bxns	lr
	...

10002754 <__acle_se_SECURE_start_cfa>:
10002754:	b580      	push	{r7, lr}
10002756:	b082      	sub	sp, #8
10002758:	9001      	str	r0, [sp, #4]
1000275a:	f246 20cf 	movw	r0, #25295	; 0x62cf
1000275e:	f2c1 0000 	movt	r0, #4096	; 0x1000
10002762:	f7fd ff15 	bl	10000590 <printf>
10002766:	b672      	cpsid	i
10002768:	f240 10c0 	movw	r0, #448	; 0x1c0
1000276c:	f6c3 0000 	movt	r0, #14336	; 0x3800
10002770:	6800      	ldr	r0, [r0, #0]
10002772:	b958      	cbnz	r0, 1000278c <__acle_se_SECURE_start_cfa+0x38>
10002774:	e7ff      	b.n	10002776 <__acle_se_SECURE_start_cfa+0x22>
10002776:	f246 20ef 	movw	r0, #25327	; 0x62ef
1000277a:	f2c1 0000 	movt	r0, #4096	; 0x1000
1000277e:	f7fd ff07 	bl	10000590 <printf>
10002782:	9901      	ldr	r1, [sp, #4]
10002784:	2064      	movs	r0, #100	; 0x64
10002786:	7008      	strb	r0, [r1, #0]
10002788:	b662      	cpsie	i
1000278a:	e011      	b.n	100027b0 <__acle_se_SECURE_start_cfa+0x5c>
1000278c:	b662      	cpsie	i
1000278e:	f000 ff21 	bl	100035d4 <_set_stat>
10002792:	b108      	cbz	r0, 10002798 <__acle_se_SECURE_start_cfa+0x44>
10002794:	e7ff      	b.n	10002796 <__acle_se_SECURE_start_cfa+0x42>
10002796:	e00b      	b.n	100027b0 <__acle_se_SECURE_start_cfa+0x5c>
10002798:	f246 3062 	movw	r0, #25442	; 0x6362
1000279c:	f2c1 0000 	movt	r0, #4096	; 0x1000
100027a0:	f7fd fef6 	bl	10000590 <printf>
100027a4:	9801      	ldr	r0, [sp, #4]
100027a6:	f001 f865 	bl	10003874 <eCFA_init_cfa>
100027aa:	f000 ff09 	bl	100035c0 <_clear_stat>
100027ae:	e7ff      	b.n	100027b0 <__acle_se_SECURE_start_cfa+0x5c>
100027b0:	b002      	add	sp, #8
100027b2:	e8bd 4080 	ldmia.w	sp!, {r7, lr}
100027b6:	f3ef 8c14 	mrs	ip, CONTROL
100027ba:	f01c 0f08 	tst.w	ip, #8
100027be:	d017      	beq.n	100027f0 <__acle_se_SECURE_start_cfa+0x9c>
100027c0:	ec4e eb10 	vmov	d0, lr, lr
100027c4:	ec4e eb11 	vmov	d1, lr, lr
100027c8:	ec4e eb12 	vmov	d2, lr, lr
100027cc:	ec4e eb13 	vmov	d3, lr, lr
100027d0:	ec4e eb14 	vmov	d4, lr, lr
100027d4:	ec4e eb15 	vmov	d5, lr, lr
100027d8:	ec4e eb16 	vmov	d6, lr, lr
100027dc:	ec4e eb17 	vmov	d7, lr, lr
100027e0:	eef1 ca10 	vmrs	ip, fpscr
100027e4:	f02c 0c9f 	bic.w	ip, ip, #159	; 0x9f
100027e8:	f02c 4c70 	bic.w	ip, ip, #4026531840	; 0xf0000000
100027ec:	eee1 ca10 	vmsr	fpscr, ip
100027f0:	4670      	mov	r0, lr
100027f2:	4671      	mov	r1, lr
100027f4:	4672      	mov	r2, lr
100027f6:	4673      	mov	r3, lr
100027f8:	46f4      	mov	ip, lr
100027fa:	f38e 8c00 	msr	CPSR_fs, lr
100027fe:	4774      	bxns	lr

10002800 <__acle_se_Secure_LED_Off>:
10002800:	b580      	push	{r7, lr}
10002802:	b082      	sub	sp, #8
10002804:	9001      	str	r0, [sp, #4]
10002806:	9801      	ldr	r0, [sp, #4]
10002808:	f7ff fed2 	bl	100025b0 <LED_Off>
1000280c:	b002      	add	sp, #8
1000280e:	e8bd 4080 	ldmia.w	sp!, {r7, lr}
10002812:	f3ef 8c14 	mrs	ip, CONTROL
10002816:	f01c 0f08 	tst.w	ip, #8
1000281a:	d017      	beq.n	1000284c <__acle_se_Secure_LED_Off+0x4c>
1000281c:	ec4e eb10 	vmov	d0, lr, lr
10002820:	ec4e eb11 	vmov	d1, lr, lr
10002824:	ec4e eb12 	vmov	d2, lr, lr
10002828:	ec4e eb13 	vmov	d3, lr, lr
1000282c:	ec4e eb14 	vmov	d4, lr, lr
10002830:	ec4e eb15 	vmov	d5, lr, lr
10002834:	ec4e eb16 	vmov	d6, lr, lr
10002838:	ec4e eb17 	vmov	d7, lr, lr
1000283c:	eef1 ca10 	vmrs	ip, fpscr
10002840:	f02c 0c9f 	bic.w	ip, ip, #159	; 0x9f
10002844:	f02c 4c70 	bic.w	ip, ip, #4026531840	; 0xf0000000
10002848:	eee1 ca10 	vmsr	fpscr, ip
1000284c:	4671      	mov	r1, lr
1000284e:	4672      	mov	r2, lr
10002850:	4673      	mov	r3, lr
10002852:	46f4      	mov	ip, lr
10002854:	f38e 8c00 	msr	CPSR_fs, lr
10002858:	4774      	bxns	lr
	...

1000285c <__acle_se_Secure_LED_Off_callback>:
1000285c:	b081      	sub	sp, #4
1000285e:	9000      	str	r0, [sp, #0]
10002860:	9800      	ldr	r0, [sp, #0]
10002862:	f240 11cc 	movw	r1, #460	; 0x1cc
10002866:	f6c3 0100 	movt	r1, #14336	; 0x3800
1000286a:	6008      	str	r0, [r1, #0]
1000286c:	2000      	movs	r0, #0
1000286e:	b001      	add	sp, #4
10002870:	f3ef 8c14 	mrs	ip, CONTROL
10002874:	f01c 0f08 	tst.w	ip, #8
10002878:	d017      	beq.n	100028aa <__acle_se_Secure_LED_Off_callback+0x4e>
1000287a:	ec4e eb10 	vmov	d0, lr, lr
1000287e:	ec4e eb11 	vmov	d1, lr, lr
10002882:	ec4e eb12 	vmov	d2, lr, lr
10002886:	ec4e eb13 	vmov	d3, lr, lr
1000288a:	ec4e eb14 	vmov	d4, lr, lr
1000288e:	ec4e eb15 	vmov	d5, lr, lr
10002892:	ec4e eb16 	vmov	d6, lr, lr
10002896:	ec4e eb17 	vmov	d7, lr, lr
1000289a:	eef1 ca10 	vmrs	ip, fpscr
1000289e:	f02c 0c9f 	bic.w	ip, ip, #159	; 0x9f
100028a2:	f02c 4c70 	bic.w	ip, ip, #4026531840	; 0xf0000000
100028a6:	eee1 ca10 	vmsr	fpscr, ip
100028aa:	4671      	mov	r1, lr
100028ac:	4672      	mov	r2, lr
100028ae:	4673      	mov	r3, lr
100028b0:	46f4      	mov	ip, lr
100028b2:	f38e 8c00 	msr	CPSR_fs, lr
100028b6:	4774      	bxns	lr

100028b8 <__acle_se_Secure_LED_On>:
100028b8:	b580      	push	{r7, lr}
100028ba:	b082      	sub	sp, #8
100028bc:	9001      	str	r0, [sp, #4]
100028be:	9801      	ldr	r0, [sp, #4]
100028c0:	f7ff fe8a 	bl	100025d8 <LED_On>
100028c4:	b002      	add	sp, #8
100028c6:	e8bd 4080 	ldmia.w	sp!, {r7, lr}
100028ca:	f3ef 8c14 	mrs	ip, CONTROL
100028ce:	f01c 0f08 	tst.w	ip, #8
100028d2:	d017      	beq.n	10002904 <__acle_se_Secure_LED_On+0x4c>
100028d4:	ec4e eb10 	vmov	d0, lr, lr
100028d8:	ec4e eb11 	vmov	d1, lr, lr
100028dc:	ec4e eb12 	vmov	d2, lr, lr
100028e0:	ec4e eb13 	vmov	d3, lr, lr
100028e4:	ec4e eb14 	vmov	d4, lr, lr
100028e8:	ec4e eb15 	vmov	d5, lr, lr
100028ec:	ec4e eb16 	vmov	d6, lr, lr
100028f0:	ec4e eb17 	vmov	d7, lr, lr
100028f4:	eef1 ca10 	vmrs	ip, fpscr
100028f8:	f02c 0c9f 	bic.w	ip, ip, #159	; 0x9f
100028fc:	f02c 4c70 	bic.w	ip, ip, #4026531840	; 0xf0000000
10002900:	eee1 ca10 	vmsr	fpscr, ip
10002904:	4671      	mov	r1, lr
10002906:	4672      	mov	r2, lr
10002908:	4673      	mov	r3, lr
1000290a:	46f4      	mov	ip, lr
1000290c:	f38e 8c00 	msr	CPSR_fs, lr
10002910:	4774      	bxns	lr
	...

10002914 <__acle_se_Secure_LED_On_callback>:
10002914:	b081      	sub	sp, #4
10002916:	9000      	str	r0, [sp, #0]
10002918:	9800      	ldr	r0, [sp, #0]
1000291a:	f240 11d0 	movw	r1, #464	; 0x1d0
1000291e:	f6c3 0100 	movt	r1, #14336	; 0x3800
10002922:	6008      	str	r0, [r1, #0]
10002924:	2000      	movs	r0, #0
10002926:	b001      	add	sp, #4
10002928:	f3ef 8c14 	mrs	ip, CONTROL
1000292c:	f01c 0f08 	tst.w	ip, #8
10002930:	d017      	beq.n	10002962 <__acle_se_Secure_LED_On_callback+0x4e>
10002932:	ec4e eb10 	vmov	d0, lr, lr
10002936:	ec4e eb11 	vmov	d1, lr, lr
1000293a:	ec4e eb12 	vmov	d2, lr, lr
1000293e:	ec4e eb13 	vmov	d3, lr, lr
10002942:	ec4e eb14 	vmov	d4, lr, lr
10002946:	ec4e eb15 	vmov	d5, lr, lr
1000294a:	ec4e eb16 	vmov	d6, lr, lr
1000294e:	ec4e eb17 	vmov	d7, lr, lr
10002952:	eef1 ca10 	vmrs	ip, fpscr
10002956:	f02c 0c9f 	bic.w	ip, ip, #159	; 0x9f
1000295a:	f02c 4c70 	bic.w	ip, ip, #4026531840	; 0xf0000000
1000295e:	eee1 ca10 	vmsr	fpscr, ip
10002962:	4671      	mov	r1, lr
10002964:	4672      	mov	r2, lr
10002966:	4673      	mov	r3, lr
10002968:	46f4      	mov	ip, lr
1000296a:	f38e 8c00 	msr	CPSR_fs, lr
1000296e:	4774      	bxns	lr

10002970 <__acle_se_Secure_printf>:
10002970:	b580      	push	{r7, lr}
10002972:	b082      	sub	sp, #8
10002974:	9001      	str	r0, [sp, #4]
10002976:	9901      	ldr	r1, [sp, #4]
10002978:	f246 307c 	movw	r0, #25468	; 0x637c
1000297c:	f2c1 0000 	movt	r0, #4096	; 0x1000
10002980:	f7fd fe06 	bl	10000590 <printf>
10002984:	b002      	add	sp, #8
10002986:	e8bd 4080 	ldmia.w	sp!, {r7, lr}
1000298a:	f3ef 8c14 	mrs	ip, CONTROL
1000298e:	f01c 0f08 	tst.w	ip, #8
10002992:	d017      	beq.n	100029c4 <__acle_se_Secure_printf+0x54>
10002994:	ec4e eb10 	vmov	d0, lr, lr
10002998:	ec4e eb11 	vmov	d1, lr, lr
1000299c:	ec4e eb12 	vmov	d2, lr, lr
100029a0:	ec4e eb13 	vmov	d3, lr, lr
100029a4:	ec4e eb14 	vmov	d4, lr, lr
100029a8:	ec4e eb15 	vmov	d5, lr, lr
100029ac:	ec4e eb16 	vmov	d6, lr, lr
100029b0:	ec4e eb17 	vmov	d7, lr, lr
100029b4:	eef1 ca10 	vmrs	ip, fpscr
100029b8:	f02c 0c9f 	bic.w	ip, ip, #159	; 0x9f
100029bc:	f02c 4c70 	bic.w	ip, ip, #4026531840	; 0xf0000000
100029c0:	eee1 ca10 	vmsr	fpscr, ip
100029c4:	4670      	mov	r0, lr
100029c6:	4671      	mov	r1, lr
100029c8:	4672      	mov	r2, lr
100029ca:	4673      	mov	r3, lr
100029cc:	46f4      	mov	ip, lr
100029ce:	f38e 8c00 	msr	CPSR_fs, lr
100029d2:	4774      	bxns	lr

100029d4 <SysTick_Config>:
100029d4:	b580      	push	{r7, lr}
100029d6:	b084      	sub	sp, #16
100029d8:	9002      	str	r0, [sp, #8]
100029da:	9802      	ldr	r0, [sp, #8]
100029dc:	3801      	subs	r0, #1
100029de:	f1b0 7f80 	cmp.w	r0, #16777216	; 0x1000000
100029e2:	d303      	bcc.n	100029ec <SysTick_Config+0x18>
100029e4:	e7ff      	b.n	100029e6 <SysTick_Config+0x12>
100029e6:	2001      	movs	r0, #1
100029e8:	9003      	str	r0, [sp, #12]
100029ea:	e01a      	b.n	10002a22 <SysTick_Config+0x4e>
100029ec:	9802      	ldr	r0, [sp, #8]
100029ee:	3801      	subs	r0, #1
100029f0:	f24e 0114 	movw	r1, #57364	; 0xe014
100029f4:	f2ce 0100 	movt	r1, #57344	; 0xe000
100029f8:	6008      	str	r0, [r1, #0]
100029fa:	f04f 30ff 	mov.w	r0, #4294967295	; 0xffffffff
100029fe:	2107      	movs	r1, #7
10002a00:	9101      	str	r1, [sp, #4]
10002a02:	f000 fcf5 	bl	100033f0 <__NVIC_SetPriority>
10002a06:	9901      	ldr	r1, [sp, #4]
10002a08:	f24e 0218 	movw	r2, #57368	; 0xe018
10002a0c:	f2ce 0200 	movt	r2, #57344	; 0xe000
10002a10:	2000      	movs	r0, #0
10002a12:	6010      	str	r0, [r2, #0]
10002a14:	f24e 0210 	movw	r2, #57360	; 0xe010
10002a18:	f2ce 0200 	movt	r2, #57344	; 0xe000
10002a1c:	6011      	str	r1, [r2, #0]
10002a1e:	9003      	str	r0, [sp, #12]
10002a20:	e7ff      	b.n	10002a22 <SysTick_Config+0x4e>
10002a22:	9803      	ldr	r0, [sp, #12]
10002a24:	b004      	add	sp, #16
10002a26:	bd80      	pop	{r7, pc}

10002a28 <SysTick_Handler>:
10002a28:	f240 1198 	movw	r1, #408	; 0x198
10002a2c:	f6c3 0100 	movt	r1, #14336	; 0x3800
10002a30:	6808      	ldr	r0, [r1, #0]
10002a32:	3001      	adds	r0, #1
10002a34:	6008      	str	r0, [r1, #0]
10002a36:	4770      	bx	lr

10002a38 <SystemCoreClockUpdate>:
10002a38:	f240 011c 	movw	r1, #28
10002a3c:	f6c3 0100 	movt	r1, #14336	; 0x3800
10002a40:	f647 0040 	movw	r0, #30784	; 0x7840
10002a44:	f2c0 107d 	movt	r0, #381	; 0x17d
10002a48:	6008      	str	r0, [r1, #0]
10002a4a:	4770      	bx	lr

10002a4c <SystemInit>:
10002a4c:	b580      	push	{r7, lr}
10002a4e:	f240 0000 	movw	r0, #0
10002a52:	f2c1 0000 	movt	r0, #4096	; 0x1000
10002a56:	f64e 5108 	movw	r1, #60680	; 0xed08
10002a5a:	f2ce 0100 	movt	r1, #57344	; 0xe000
10002a5e:	6008      	str	r0, [r1, #0]
10002a60:	f64e 5188 	movw	r1, #60808	; 0xed88
10002a64:	f2ce 0100 	movt	r1, #57344	; 0xe000
10002a68:	6808      	ldr	r0, [r1, #0]
10002a6a:	f440 0070 	orr.w	r0, r0, #15728640	; 0xf00000
10002a6e:	6008      	str	r0, [r1, #0]
10002a70:	f64e 5124 	movw	r1, #60708	; 0xed24
10002a74:	f2ce 0100 	movt	r1, #57344	; 0xe000
10002a78:	6808      	ldr	r0, [r1, #0]
10002a7a:	f440 2070 	orr.w	r0, r0, #983040	; 0xf0000
10002a7e:	6008      	str	r0, [r1, #0]
10002a80:	f64e 5128 	movw	r1, #60712	; 0xed28
10002a84:	f2ce 0100 	movt	r1, #57344	; 0xe000
10002a88:	6808      	ldr	r0, [r1, #0]
10002a8a:	f440 7000 	orr.w	r0, r0, #512	; 0x200
10002a8e:	6008      	str	r0, [r1, #0]
10002a90:	f247 0100 	movw	r1, #28672	; 0x7000
10002a94:	f6c5 0100 	movt	r1, #22528	; 0x5800
10002a98:	6808      	ldr	r0, [r1, #0]
10002a9a:	f420 7080 	bic.w	r0, r0, #256	; 0x100
10002a9e:	6008      	str	r0, [r1, #0]
10002aa0:	f247 0118 	movw	r1, #28696	; 0x7018
10002aa4:	f6c5 0100 	movt	r1, #22528	; 0x5800
10002aa8:	2000      	movs	r0, #0
10002aaa:	6008      	str	r0, [r1, #0]
10002aac:	f247 011c 	movw	r1, #28700	; 0x701c
10002ab0:	f6c5 0100 	movt	r1, #22528	; 0x5800
10002ab4:	2000      	movs	r0, #0
10002ab6:	f6cf 70ff 	movt	r0, #65535	; 0xffff
10002aba:	6008      	str	r0, [r1, #0]
10002abc:	f249 0100 	movw	r1, #36864	; 0x9000
10002ac0:	f6c5 0100 	movt	r1, #22528	; 0x5800
10002ac4:	6808      	ldr	r0, [r1, #0]
10002ac6:	f420 7080 	bic.w	r0, r0, #256	; 0x100
10002aca:	6008      	str	r0, [r1, #0]
10002acc:	f249 0118 	movw	r1, #36888	; 0x9018
10002ad0:	f6c5 0100 	movt	r1, #22528	; 0x5800
10002ad4:	2001      	movs	r0, #1
10002ad6:	6008      	str	r0, [r1, #0]
10002ad8:	f249 011c 	movw	r1, #36892	; 0x901c
10002adc:	f6c5 0100 	movt	r1, #22528	; 0x5800
10002ae0:	f04f 30ff 	mov.w	r0, #4294967295	; 0xffffffff
10002ae4:	6008      	str	r0, [r1, #0]
10002ae6:	2114      	movs	r1, #20
10002ae8:	f2c5 0108 	movt	r1, #20488	; 0x5008
10002aec:	6808      	ldr	r0, [r1, #0]
10002aee:	f040 0001 	orr.w	r0, r0, #1
10002af2:	6008      	str	r0, [r1, #0]
10002af4:	2188      	movs	r1, #136	; 0x88
10002af6:	f2c5 0108 	movt	r1, #20488	; 0x5008
10002afa:	6808      	ldr	r0, [r1, #0]
10002afc:	f040 0005 	orr.w	r0, r0, #5
10002b00:	6008      	str	r0, [r1, #0]
10002b02:	2184      	movs	r1, #132	; 0x84
10002b04:	f2c5 0108 	movt	r1, #20488	; 0x5008
10002b08:	6808      	ldr	r0, [r1, #0]
10002b0a:	f040 0022 	orr.w	r0, r0, #34	; 0x22
10002b0e:	6008      	str	r0, [r1, #0]
10002b10:	f000 f80a 	bl	10002b28 <TZ_SAU_Setup>
10002b14:	f240 011c 	movw	r1, #28
10002b18:	f6c3 0100 	movt	r1, #14336	; 0x3800
10002b1c:	f647 0040 	movw	r0, #30784	; 0x7840
10002b20:	f2c0 107d 	movt	r0, #381	; 0x17d
10002b24:	6008      	str	r0, [r1, #0]
10002b26:	bd80      	pop	{r7, pc}

10002b28 <TZ_SAU_Setup>:
10002b28:	f64e 5cd8 	movw	ip, #60888	; 0xedd8
10002b2c:	f2ce 0c00 	movt	ip, #57344	; 0xe000
10002b30:	2000      	movs	r0, #0
10002b32:	f8cc 0000 	str.w	r0, [ip]
10002b36:	f64e 53dc 	movw	r3, #60892	; 0xeddc
10002b3a:	f2ce 0300 	movt	r3, #57344	; 0xe000
10002b3e:	f04f 5080 	mov.w	r0, #268435456	; 0x10000000
10002b42:	6018      	str	r0, [r3, #0]
10002b44:	f64e 52e0 	movw	r2, #60896	; 0xede0
10002b48:	f2ce 0200 	movt	r2, #57344	; 0xe000
10002b4c:	f64f 70e3 	movw	r0, #65507	; 0xffe3
10002b50:	f2c1 001f 	movt	r0, #4127	; 0x101f
10002b54:	6010      	str	r0, [r2, #0]
10002b56:	2001      	movs	r0, #1
10002b58:	f8cc 0000 	str.w	r0, [ip]
10002b5c:	f44f 1100 	mov.w	r1, #2097152	; 0x200000
10002b60:	6019      	str	r1, [r3, #0]
10002b62:	f64f 71e1 	movw	r1, #65505	; 0xffe1
10002b66:	f2c0 013f 	movt	r1, #63	; 0x3f
10002b6a:	6011      	str	r1, [r2, #0]
10002b6c:	2102      	movs	r1, #2
10002b6e:	f8cc 1000 	str.w	r1, [ip]
10002b72:	2100      	movs	r1, #0
10002b74:	f6c2 0120 	movt	r1, #10272	; 0x2820
10002b78:	6019      	str	r1, [r3, #0]
10002b7a:	f64f 71e1 	movw	r1, #65505	; 0xffe1
10002b7e:	f6c2 013f 	movt	r1, #10303	; 0x283f
10002b82:	6011      	str	r1, [r2, #0]
10002b84:	2103      	movs	r1, #3
10002b86:	f8cc 1000 	str.w	r1, [ip]
10002b8a:	f04f 4180 	mov.w	r1, #1073741824	; 0x40000000
10002b8e:	6019      	str	r1, [r3, #0]
10002b90:	f64f 71e1 	movw	r1, #65505	; 0xffe1
10002b94:	f2c4 013f 	movt	r1, #16447	; 0x403f
10002b98:	6011      	str	r1, [r2, #0]
10002b9a:	f64e 51d0 	movw	r1, #60880	; 0xedd0
10002b9e:	f2ce 0100 	movt	r1, #57344	; 0xe000
10002ba2:	6008      	str	r0, [r1, #0]
10002ba4:	f64e 5110 	movw	r1, #60688	; 0xed10
10002ba8:	f2ce 0100 	movt	r1, #57344	; 0xe000
10002bac:	6808      	ldr	r0, [r1, #0]
10002bae:	f040 0008 	orr.w	r0, r0, #8
10002bb2:	6008      	str	r0, [r1, #0]
10002bb4:	f64e 510c 	movw	r1, #60684	; 0xed0c
10002bb8:	f2ce 0100 	movt	r1, #57344	; 0xe000
10002bbc:	6808      	ldr	r0, [r1, #0]
10002bbe:	f649 72f7 	movw	r2, #40951	; 0x9ff7
10002bc2:	4010      	ands	r0, r2
10002bc4:	f244 0200 	movw	r2, #16384	; 0x4000
10002bc8:	f2c0 52fa 	movt	r2, #1530	; 0x5fa
10002bcc:	4310      	orrs	r0, r2
10002bce:	6008      	str	r0, [r1, #0]
10002bd0:	f64e 518c 	movw	r1, #60812	; 0xed8c
10002bd4:	f2ce 0100 	movt	r1, #57344	; 0xe000
10002bd8:	6808      	ldr	r0, [r1, #0]
10002bda:	f440 6040 	orr.w	r0, r0, #3072	; 0xc00
10002bde:	6008      	str	r0, [r1, #0]
10002be0:	f64e 7134 	movw	r1, #61236	; 0xef34
10002be4:	f2ce 0100 	movt	r1, #57344	; 0xe000
10002be8:	6808      	ldr	r0, [r1, #0]
10002bea:	2204      	movs	r2, #4
10002bec:	f362 609c 	bfi	r0, r2, #26, #3
10002bf0:	6008      	str	r0, [r1, #0]
10002bf2:	4770      	bx	lr

10002bf4 <UART0RX_Handler>:
10002bf4:	b580      	push	{r7, lr}
10002bf6:	f645 7080 	movw	r0, #24448	; 0x5f80
10002bfa:	f2c1 0000 	movt	r0, #4096	; 0x1000
10002bfe:	f000 f8a7 	bl	10002d50 <USARTRX_IRQHandler>
10002c02:	bd80      	pop	{r7, pc}

10002c04 <UART0TX_Handler>:
10002c04:	b580      	push	{r7, lr}
10002c06:	f645 7080 	movw	r0, #24448	; 0x5f80
10002c0a:	f2c1 0000 	movt	r0, #4096	; 0x1000
10002c0e:	f000 f8e1 	bl	10002dd4 <USARTTX_IRQHandler>
10002c12:	bd80      	pop	{r7, pc}

10002c14 <USART0_Control>:
10002c14:	b580      	push	{r7, lr}
10002c16:	b082      	sub	sp, #8
10002c18:	9001      	str	r0, [sp, #4]
10002c1a:	9100      	str	r1, [sp, #0]
10002c1c:	9801      	ldr	r0, [sp, #4]
10002c1e:	9900      	ldr	r1, [sp, #0]
10002c20:	f645 7280 	movw	r2, #24448	; 0x5f80
10002c24:	f2c1 0200 	movt	r2, #4096	; 0x1000
10002c28:	f000 f914 	bl	10002e54 <USART_Control>
10002c2c:	b002      	add	sp, #8
10002c2e:	bd80      	pop	{r7, pc}

10002c30 <USART0_GetCapabilities>:
10002c30:	b580      	push	{r7, lr}
10002c32:	b082      	sub	sp, #8
10002c34:	f645 7080 	movw	r0, #24448	; 0x5f80
10002c38:	f2c1 0000 	movt	r0, #4096	; 0x1000
10002c3c:	f000 f9da 	bl	10002ff4 <USART_GetCapabilities>
10002c40:	9001      	str	r0, [sp, #4]
10002c42:	9801      	ldr	r0, [sp, #4]
10002c44:	b002      	add	sp, #8
10002c46:	bd80      	pop	{r7, pc}

10002c48 <USART0_GetModemStatus>:
10002c48:	b580      	push	{r7, lr}
10002c4a:	b082      	sub	sp, #8
10002c4c:	f645 7080 	movw	r0, #24448	; 0x5f80
10002c50:	f2c1 0000 	movt	r0, #4096	; 0x1000
10002c54:	f000 f9d6 	bl	10003004 <USART_GetModemStatus>
10002c58:	9001      	str	r0, [sp, #4]
10002c5a:	9801      	ldr	r0, [sp, #4]
10002c5c:	b002      	add	sp, #8
10002c5e:	bd80      	pop	{r7, pc}

10002c60 <USART0_GetRxCount>:
10002c60:	b580      	push	{r7, lr}
10002c62:	f645 7080 	movw	r0, #24448	; 0x5f80
10002c66:	f2c1 0000 	movt	r0, #4096	; 0x1000
10002c6a:	f000 f9d3 	bl	10003014 <USART_GetRxCount>
10002c6e:	bd80      	pop	{r7, pc}

10002c70 <USART0_GetStatus>:
10002c70:	b580      	push	{r7, lr}
10002c72:	b082      	sub	sp, #8
10002c74:	f645 7080 	movw	r0, #24448	; 0x5f80
10002c78:	f2c1 0000 	movt	r0, #4096	; 0x1000
10002c7c:	f000 f9d2 	bl	10003024 <USART_GetStatus>
10002c80:	9001      	str	r0, [sp, #4]
10002c82:	9801      	ldr	r0, [sp, #4]
10002c84:	b002      	add	sp, #8
10002c86:	bd80      	pop	{r7, pc}

10002c88 <USART0_GetTxCount>:
10002c88:	b580      	push	{r7, lr}
10002c8a:	f645 7080 	movw	r0, #24448	; 0x5f80
10002c8e:	f2c1 0000 	movt	r0, #4096	; 0x1000
10002c92:	f000 f9e9 	bl	10003068 <USART_GetTxCount>
10002c96:	bd80      	pop	{r7, pc}

10002c98 <USART0_Initialize>:
10002c98:	b580      	push	{r7, lr}
10002c9a:	b082      	sub	sp, #8
10002c9c:	9001      	str	r0, [sp, #4]
10002c9e:	9801      	ldr	r0, [sp, #4]
10002ca0:	f645 7180 	movw	r1, #24448	; 0x5f80
10002ca4:	f2c1 0100 	movt	r1, #4096	; 0x1000
10002ca8:	f000 f9e6 	bl	10003078 <USART_Initialize>
10002cac:	b002      	add	sp, #8
10002cae:	bd80      	pop	{r7, pc}

10002cb0 <USART0_PowerControl>:
10002cb0:	b580      	push	{r7, lr}
10002cb2:	b082      	sub	sp, #8
10002cb4:	f88d 0007 	strb.w	r0, [sp, #7]
10002cb8:	f89d 0007 	ldrb.w	r0, [sp, #7]
10002cbc:	f645 7180 	movw	r1, #24448	; 0x5f80
10002cc0:	f2c1 0100 	movt	r1, #4096	; 0x1000
10002cc4:	f000 fa0e 	bl	100030e4 <USART_PowerControl>
10002cc8:	b002      	add	sp, #8
10002cca:	bd80      	pop	{r7, pc}

10002ccc <USART0_Receive>:
10002ccc:	b580      	push	{r7, lr}
10002cce:	b082      	sub	sp, #8
10002cd0:	9001      	str	r0, [sp, #4]
10002cd2:	9100      	str	r1, [sp, #0]
10002cd4:	9801      	ldr	r0, [sp, #4]
10002cd6:	9900      	ldr	r1, [sp, #0]
10002cd8:	f645 7280 	movw	r2, #24448	; 0x5f80
10002cdc:	f2c1 0200 	movt	r2, #4096	; 0x1000
10002ce0:	f000 fa70 	bl	100031c4 <USART_Receive>
10002ce4:	b002      	add	sp, #8
10002ce6:	bd80      	pop	{r7, pc}

10002ce8 <USART0_Send>:
10002ce8:	b580      	push	{r7, lr}
10002cea:	b082      	sub	sp, #8
10002cec:	9001      	str	r0, [sp, #4]
10002cee:	9100      	str	r1, [sp, #0]
10002cf0:	9801      	ldr	r0, [sp, #4]
10002cf2:	9900      	ldr	r1, [sp, #0]
10002cf4:	f645 7280 	movw	r2, #24448	; 0x5f80
10002cf8:	f2c1 0200 	movt	r2, #4096	; 0x1000
10002cfc:	f000 faaa 	bl	10003254 <USART_Send>
10002d00:	b002      	add	sp, #8
10002d02:	bd80      	pop	{r7, pc}

10002d04 <USART0_SetModemControl>:
10002d04:	b580      	push	{r7, lr}
10002d06:	b082      	sub	sp, #8
10002d08:	f88d 0007 	strb.w	r0, [sp, #7]
10002d0c:	f89d 0007 	ldrb.w	r0, [sp, #7]
10002d10:	f645 7180 	movw	r1, #24448	; 0x5f80
10002d14:	f2c1 0100 	movt	r1, #4096	; 0x1000
10002d18:	f000 fae6 	bl	100032e8 <USART_SetModemControl>
10002d1c:	b002      	add	sp, #8
10002d1e:	bd80      	pop	{r7, pc}

10002d20 <USART0_Transfer>:
10002d20:	b580      	push	{r7, lr}
10002d22:	b084      	sub	sp, #16
10002d24:	9003      	str	r0, [sp, #12]
10002d26:	9102      	str	r1, [sp, #8]
10002d28:	9201      	str	r2, [sp, #4]
10002d2a:	9803      	ldr	r0, [sp, #12]
10002d2c:	9902      	ldr	r1, [sp, #8]
10002d2e:	9a01      	ldr	r2, [sp, #4]
10002d30:	f645 7380 	movw	r3, #24448	; 0x5f80
10002d34:	f2c1 0300 	movt	r3, #4096	; 0x1000
10002d38:	f000 fade 	bl	100032f8 <USART_Transfer>
10002d3c:	b004      	add	sp, #16
10002d3e:	bd80      	pop	{r7, pc}

10002d40 <USART0_Uninitialize>:
10002d40:	b580      	push	{r7, lr}
10002d42:	f645 7080 	movw	r0, #24448	; 0x5f80
10002d46:	f2c1 0000 	movt	r0, #4096	; 0x1000
10002d4a:	f000 fadf 	bl	1000330c <USART_Uninitialize>
10002d4e:	bd80      	pop	{r7, pc}

10002d50 <USARTRX_IRQHandler>:
10002d50:	b580      	push	{r7, lr}
10002d52:	b082      	sub	sp, #8
10002d54:	9001      	str	r0, [sp, #4]
10002d56:	9801      	ldr	r0, [sp, #4]
10002d58:	68c0      	ldr	r0, [r0, #12]
10002d5a:	68c0      	ldr	r0, [r0, #12]
10002d5c:	9000      	str	r0, [sp, #0]
10002d5e:	9801      	ldr	r0, [sp, #4]
10002d60:	6980      	ldr	r0, [r0, #24]
10002d62:	6880      	ldr	r0, [r0, #8]
10002d64:	b178      	cbz	r0, 10002d86 <USARTRX_IRQHandler+0x36>
10002d66:	e7ff      	b.n	10002d68 <USARTRX_IRQHandler+0x18>
10002d68:	9801      	ldr	r0, [sp, #4]
10002d6a:	68c0      	ldr	r0, [r0, #12]
10002d6c:	6800      	ldr	r0, [r0, #0]
10002d6e:	9901      	ldr	r1, [sp, #4]
10002d70:	f8d1 c018 	ldr.w	ip, [r1, #24]
10002d74:	f8dc 1008 	ldr.w	r1, [ip, #8]
10002d78:	f8dc 2010 	ldr.w	r2, [ip, #16]
10002d7c:	1c53      	adds	r3, r2, #1
10002d7e:	f8cc 3010 	str.w	r3, [ip, #16]
10002d82:	5488      	strb	r0, [r1, r2]
10002d84:	e7ff      	b.n	10002d86 <USARTRX_IRQHandler+0x36>
10002d86:	9801      	ldr	r0, [sp, #4]
10002d88:	6980      	ldr	r0, [r0, #24]
10002d8a:	6801      	ldr	r1, [r0, #0]
10002d8c:	6900      	ldr	r0, [r0, #16]
10002d8e:	4288      	cmp	r0, r1
10002d90:	d319      	bcc.n	10002dc6 <USARTRX_IRQHandler+0x76>
10002d92:	e7ff      	b.n	10002d94 <USARTRX_IRQHandler+0x44>
10002d94:	9801      	ldr	r0, [sp, #4]
10002d96:	6981      	ldr	r1, [r0, #24]
10002d98:	2000      	movs	r0, #0
10002d9a:	6008      	str	r0, [r1, #0]
10002d9c:	9901      	ldr	r1, [sp, #4]
10002d9e:	6949      	ldr	r1, [r1, #20]
10002da0:	7148      	strb	r0, [r1, #5]
10002da2:	9801      	ldr	r0, [sp, #4]
10002da4:	68c1      	ldr	r1, [r0, #12]
10002da6:	6888      	ldr	r0, [r1, #8]
10002da8:	f020 0008 	bic.w	r0, r0, #8
10002dac:	6088      	str	r0, [r1, #8]
10002dae:	9801      	ldr	r0, [sp, #4]
10002db0:	6940      	ldr	r0, [r0, #20]
10002db2:	6800      	ldr	r0, [r0, #0]
10002db4:	b130      	cbz	r0, 10002dc4 <USARTRX_IRQHandler+0x74>
10002db6:	e7ff      	b.n	10002db8 <USARTRX_IRQHandler+0x68>
10002db8:	9801      	ldr	r0, [sp, #4]
10002dba:	6940      	ldr	r0, [r0, #20]
10002dbc:	6801      	ldr	r1, [r0, #0]
10002dbe:	2002      	movs	r0, #2
10002dc0:	4788      	blx	r1
10002dc2:	e7ff      	b.n	10002dc4 <USARTRX_IRQHandler+0x74>
10002dc4:	e7ff      	b.n	10002dc6 <USARTRX_IRQHandler+0x76>
10002dc6:	9800      	ldr	r0, [sp, #0]
10002dc8:	9901      	ldr	r1, [sp, #4]
10002dca:	68c9      	ldr	r1, [r1, #12]
10002dcc:	60c8      	str	r0, [r1, #12]
10002dce:	b002      	add	sp, #8
10002dd0:	bd80      	pop	{r7, pc}
	...

10002dd4 <USARTTX_IRQHandler>:
10002dd4:	b580      	push	{r7, lr}
10002dd6:	b082      	sub	sp, #8
10002dd8:	9001      	str	r0, [sp, #4]
10002dda:	9801      	ldr	r0, [sp, #4]
10002ddc:	68c0      	ldr	r0, [r0, #12]
10002dde:	68c0      	ldr	r0, [r0, #12]
10002de0:	9000      	str	r0, [sp, #0]
10002de2:	9801      	ldr	r0, [sp, #4]
10002de4:	6980      	ldr	r0, [r0, #24]
10002de6:	6840      	ldr	r0, [r0, #4]
10002de8:	b370      	cbz	r0, 10002e48 <USARTTX_IRQHandler+0x74>
10002dea:	e7ff      	b.n	10002dec <USARTTX_IRQHandler+0x18>
10002dec:	9801      	ldr	r0, [sp, #4]
10002dee:	6981      	ldr	r1, [r0, #24]
10002df0:	6948      	ldr	r0, [r1, #20]
10002df2:	3001      	adds	r0, #1
10002df4:	6148      	str	r0, [r1, #20]
10002df6:	9801      	ldr	r0, [sp, #4]
10002df8:	6980      	ldr	r0, [r0, #24]
10002dfa:	6841      	ldr	r1, [r0, #4]
10002dfc:	6940      	ldr	r0, [r0, #20]
10002dfe:	4288      	cmp	r0, r1
10002e00:	d208      	bcs.n	10002e14 <USARTTX_IRQHandler+0x40>
10002e02:	e7ff      	b.n	10002e04 <USARTTX_IRQHandler+0x30>
10002e04:	9801      	ldr	r0, [sp, #4]
10002e06:	68c1      	ldr	r1, [r0, #12]
10002e08:	6982      	ldr	r2, [r0, #24]
10002e0a:	68d0      	ldr	r0, [r2, #12]
10002e0c:	6952      	ldr	r2, [r2, #20]
10002e0e:	5c80      	ldrb	r0, [r0, r2]
10002e10:	6008      	str	r0, [r1, #0]
10002e12:	e018      	b.n	10002e46 <USARTTX_IRQHandler+0x72>
10002e14:	9801      	ldr	r0, [sp, #4]
10002e16:	6981      	ldr	r1, [r0, #24]
10002e18:	2000      	movs	r0, #0
10002e1a:	6048      	str	r0, [r1, #4]
10002e1c:	9901      	ldr	r1, [sp, #4]
10002e1e:	6949      	ldr	r1, [r1, #20]
10002e20:	7108      	strb	r0, [r1, #4]
10002e22:	9801      	ldr	r0, [sp, #4]
10002e24:	68c1      	ldr	r1, [r0, #12]
10002e26:	6888      	ldr	r0, [r1, #8]
10002e28:	f020 0004 	bic.w	r0, r0, #4
10002e2c:	6088      	str	r0, [r1, #8]
10002e2e:	9801      	ldr	r0, [sp, #4]
10002e30:	6940      	ldr	r0, [r0, #20]
10002e32:	6800      	ldr	r0, [r0, #0]
10002e34:	b130      	cbz	r0, 10002e44 <USARTTX_IRQHandler+0x70>
10002e36:	e7ff      	b.n	10002e38 <USARTTX_IRQHandler+0x64>
10002e38:	9801      	ldr	r0, [sp, #4]
10002e3a:	6940      	ldr	r0, [r0, #20]
10002e3c:	6801      	ldr	r1, [r0, #0]
10002e3e:	2001      	movs	r0, #1
10002e40:	4788      	blx	r1
10002e42:	e7ff      	b.n	10002e44 <USARTTX_IRQHandler+0x70>
10002e44:	e7ff      	b.n	10002e46 <USARTTX_IRQHandler+0x72>
10002e46:	e7ff      	b.n	10002e48 <USARTTX_IRQHandler+0x74>
10002e48:	9800      	ldr	r0, [sp, #0]
10002e4a:	9901      	ldr	r1, [sp, #4]
10002e4c:	68c9      	ldr	r1, [r1, #12]
10002e4e:	60c8      	str	r0, [r1, #12]
10002e50:	b002      	add	sp, #8
10002e52:	bd80      	pop	{r7, pc}

10002e54 <USART_Control>:
10002e54:	b085      	sub	sp, #20
10002e56:	9003      	str	r0, [sp, #12]
10002e58:	9102      	str	r1, [sp, #8]
10002e5a:	9201      	str	r2, [sp, #4]
10002e5c:	9801      	ldr	r0, [sp, #4]
10002e5e:	6940      	ldr	r0, [r0, #20]
10002e60:	79c0      	ldrb	r0, [r0, #7]
10002e62:	0780      	lsls	r0, r0, #30
10002e64:	2800      	cmp	r0, #0
10002e66:	d404      	bmi.n	10002e72 <USART_Control+0x1e>
10002e68:	e7ff      	b.n	10002e6a <USART_Control+0x16>
10002e6a:	f04f 30ff 	mov.w	r0, #4294967295	; 0xffffffff
10002e6e:	9004      	str	r0, [sp, #16]
10002e70:	e0bc      	b.n	10002fec <USART_Control+0x198>
10002e72:	f89d 000c 	ldrb.w	r0, [sp, #12]
10002e76:	3815      	subs	r0, #21
10002e78:	4601      	mov	r1, r0
10002e7a:	9100      	str	r1, [sp, #0]
10002e7c:	2805      	cmp	r0, #5
10002e7e:	d848      	bhi.n	10002f12 <USART_Control+0xbe>
10002e80:	9900      	ldr	r1, [sp, #0]
10002e82:	e8df f001 	tbb	[pc, r1]
10002e86:	3423      	.short	0x3423
10002e88:	1f130703 	.word	0x1f130703
10002e8c:	f06f 0003 	mvn.w	r0, #3
10002e90:	9004      	str	r0, [sp, #16]
10002e92:	e0ab      	b.n	10002fec <USART_Control+0x198>
10002e94:	9801      	ldr	r0, [sp, #4]
10002e96:	68c1      	ldr	r1, [r0, #12]
10002e98:	6888      	ldr	r0, [r1, #8]
10002e9a:	f020 0004 	bic.w	r0, r0, #4
10002e9e:	6088      	str	r0, [r1, #8]
10002ea0:	9801      	ldr	r0, [sp, #4]
10002ea2:	6941      	ldr	r1, [r0, #20]
10002ea4:	2000      	movs	r0, #0
10002ea6:	7108      	strb	r0, [r1, #4]
10002ea8:	9004      	str	r0, [sp, #16]
10002eaa:	e09f      	b.n	10002fec <USART_Control+0x198>
10002eac:	9801      	ldr	r0, [sp, #4]
10002eae:	68c1      	ldr	r1, [r0, #12]
10002eb0:	6888      	ldr	r0, [r1, #8]
10002eb2:	f020 0008 	bic.w	r0, r0, #8
10002eb6:	6088      	str	r0, [r1, #8]
10002eb8:	9801      	ldr	r0, [sp, #4]
10002eba:	6941      	ldr	r1, [r0, #20]
10002ebc:	2000      	movs	r0, #0
10002ebe:	7148      	strb	r0, [r1, #5]
10002ec0:	9004      	str	r0, [sp, #16]
10002ec2:	e093      	b.n	10002fec <USART_Control+0x198>
10002ec4:	f06f 0003 	mvn.w	r0, #3
10002ec8:	9004      	str	r0, [sp, #16]
10002eca:	e08f      	b.n	10002fec <USART_Control+0x198>
10002ecc:	9801      	ldr	r0, [sp, #4]
10002ece:	6941      	ldr	r1, [r0, #20]
10002ed0:	79c8      	ldrb	r0, [r1, #7]
10002ed2:	f040 0008 	orr.w	r0, r0, #8
10002ed6:	71c8      	strb	r0, [r1, #7]
10002ed8:	9802      	ldr	r0, [sp, #8]
10002eda:	f000 0201 	and.w	r2, r0, #1
10002ede:	9801      	ldr	r0, [sp, #4]
10002ee0:	68c1      	ldr	r1, [r0, #12]
10002ee2:	6888      	ldr	r0, [r1, #8]
10002ee4:	4310      	orrs	r0, r2
10002ee6:	6088      	str	r0, [r1, #8]
10002ee8:	2000      	movs	r0, #0
10002eea:	9004      	str	r0, [sp, #16]
10002eec:	e07e      	b.n	10002fec <USART_Control+0x198>
10002eee:	9801      	ldr	r0, [sp, #4]
10002ef0:	6941      	ldr	r1, [r0, #20]
10002ef2:	79c8      	ldrb	r0, [r1, #7]
10002ef4:	f040 0010 	orr.w	r0, r0, #16
10002ef8:	71c8      	strb	r0, [r1, #7]
10002efa:	9802      	ldr	r0, [sp, #8]
10002efc:	f000 0201 	and.w	r2, r0, #1
10002f00:	9801      	ldr	r0, [sp, #4]
10002f02:	68c1      	ldr	r1, [r0, #12]
10002f04:	6888      	ldr	r0, [r1, #8]
10002f06:	ea40 0042 	orr.w	r0, r0, r2, lsl #1
10002f0a:	6088      	str	r0, [r1, #8]
10002f0c:	2000      	movs	r0, #0
10002f0e:	9004      	str	r0, [sp, #16]
10002f10:	e06c      	b.n	10002fec <USART_Control+0x198>
10002f12:	e7ff      	b.n	10002f14 <USART_Control+0xc0>
10002f14:	9801      	ldr	r0, [sp, #4]
10002f16:	6940      	ldr	r0, [r0, #20]
10002f18:	7900      	ldrb	r0, [r0, #4]
10002f1a:	b958      	cbnz	r0, 10002f34 <USART_Control+0xe0>
10002f1c:	e7ff      	b.n	10002f1e <USART_Control+0xca>
10002f1e:	9801      	ldr	r0, [sp, #4]
10002f20:	6940      	ldr	r0, [r0, #20]
10002f22:	7940      	ldrb	r0, [r0, #5]
10002f24:	b930      	cbnz	r0, 10002f34 <USART_Control+0xe0>
10002f26:	e7ff      	b.n	10002f28 <USART_Control+0xd4>
10002f28:	9801      	ldr	r0, [sp, #4]
10002f2a:	68c0      	ldr	r0, [r0, #12]
10002f2c:	6840      	ldr	r0, [r0, #4]
10002f2e:	0780      	lsls	r0, r0, #30
10002f30:	b120      	cbz	r0, 10002f3c <USART_Control+0xe8>
10002f32:	e7ff      	b.n	10002f34 <USART_Control+0xe0>
10002f34:	f06f 0001 	mvn.w	r0, #1
10002f38:	9004      	str	r0, [sp, #16]
10002f3a:	e057      	b.n	10002fec <USART_Control+0x198>
10002f3c:	f89d 000c 	ldrb.w	r0, [sp, #12]
10002f40:	2801      	cmp	r0, #1
10002f42:	d101      	bne.n	10002f48 <USART_Control+0xf4>
10002f44:	e7ff      	b.n	10002f46 <USART_Control+0xf2>
10002f46:	e003      	b.n	10002f50 <USART_Control+0xfc>
10002f48:	f06f 0003 	mvn.w	r0, #3
10002f4c:	9004      	str	r0, [sp, #16]
10002f4e:	e04d      	b.n	10002fec <USART_Control+0x198>
10002f50:	f89d 000d 	ldrb.w	r0, [sp, #13]
10002f54:	0740      	lsls	r0, r0, #29
10002f56:	b908      	cbnz	r0, 10002f5c <USART_Control+0x108>
10002f58:	e7ff      	b.n	10002f5a <USART_Control+0x106>
10002f5a:	e003      	b.n	10002f64 <USART_Control+0x110>
10002f5c:	f06f 0008 	mvn.w	r0, #8
10002f60:	9004      	str	r0, [sp, #16]
10002f62:	e043      	b.n	10002fec <USART_Control+0x198>
10002f64:	f89d 000d 	ldrb.w	r0, [sp, #13]
10002f68:	f010 0f30 	tst.w	r0, #48	; 0x30
10002f6c:	d101      	bne.n	10002f72 <USART_Control+0x11e>
10002f6e:	e7ff      	b.n	10002f70 <USART_Control+0x11c>
10002f70:	e003      	b.n	10002f7a <USART_Control+0x126>
10002f72:	f06f 0009 	mvn.w	r0, #9
10002f76:	9004      	str	r0, [sp, #16]
10002f78:	e038      	b.n	10002fec <USART_Control+0x198>
10002f7a:	f89d 000d 	ldrb.w	r0, [sp, #13]
10002f7e:	f010 0fc0 	tst.w	r0, #192	; 0xc0
10002f82:	d101      	bne.n	10002f88 <USART_Control+0x134>
10002f84:	e7ff      	b.n	10002f86 <USART_Control+0x132>
10002f86:	e003      	b.n	10002f90 <USART_Control+0x13c>
10002f88:	f06f 000a 	mvn.w	r0, #10
10002f8c:	9004      	str	r0, [sp, #16]
10002f8e:	e02d      	b.n	10002fec <USART_Control+0x198>
10002f90:	f89d 000e 	ldrb.w	r0, [sp, #14]
10002f94:	0780      	lsls	r0, r0, #30
10002f96:	b908      	cbnz	r0, 10002f9c <USART_Control+0x148>
10002f98:	e7ff      	b.n	10002f9a <USART_Control+0x146>
10002f9a:	e003      	b.n	10002fa4 <USART_Control+0x150>
10002f9c:	f06f 000b 	mvn.w	r0, #11
10002fa0:	9004      	str	r0, [sp, #16]
10002fa2:	e023      	b.n	10002fec <USART_Control+0x198>
10002fa4:	f240 001c 	movw	r0, #28
10002fa8:	f6c3 0000 	movt	r0, #14336	; 0x3800
10002fac:	6800      	ldr	r0, [r0, #0]
10002fae:	9902      	ldr	r1, [sp, #8]
10002fb0:	fbb0 f0f1 	udiv	r0, r0, r1
10002fb4:	280f      	cmp	r0, #15
10002fb6:	d804      	bhi.n	10002fc2 <USART_Control+0x16e>
10002fb8:	e7ff      	b.n	10002fba <USART_Control+0x166>
10002fba:	f06f 0007 	mvn.w	r0, #7
10002fbe:	9004      	str	r0, [sp, #16]
10002fc0:	e014      	b.n	10002fec <USART_Control+0x198>
10002fc2:	f240 001c 	movw	r0, #28
10002fc6:	f6c3 0000 	movt	r0, #14336	; 0x3800
10002fca:	6800      	ldr	r0, [r0, #0]
10002fcc:	9902      	ldr	r1, [sp, #8]
10002fce:	fbb0 f0f1 	udiv	r0, r0, r1
10002fd2:	9901      	ldr	r1, [sp, #4]
10002fd4:	68c9      	ldr	r1, [r1, #12]
10002fd6:	6108      	str	r0, [r1, #16]
10002fd8:	e7ff      	b.n	10002fda <USART_Control+0x186>
10002fda:	9801      	ldr	r0, [sp, #4]
10002fdc:	6941      	ldr	r1, [r0, #20]
10002fde:	79c8      	ldrb	r0, [r1, #7]
10002fe0:	f040 0004 	orr.w	r0, r0, #4
10002fe4:	71c8      	strb	r0, [r1, #7]
10002fe6:	2000      	movs	r0, #0
10002fe8:	9004      	str	r0, [sp, #16]
10002fea:	e7ff      	b.n	10002fec <USART_Control+0x198>
10002fec:	9804      	ldr	r0, [sp, #16]
10002fee:	b005      	add	sp, #20
10002ff0:	4770      	bx	lr
	...

10002ff4 <USART_GetCapabilities>:
10002ff4:	b082      	sub	sp, #8
10002ff6:	9000      	str	r0, [sp, #0]
10002ff8:	9800      	ldr	r0, [sp, #0]
10002ffa:	6800      	ldr	r0, [r0, #0]
10002ffc:	9001      	str	r0, [sp, #4]
10002ffe:	9801      	ldr	r0, [sp, #4]
10003000:	b002      	add	sp, #8
10003002:	4770      	bx	lr

10003004 <USART_GetModemStatus>:
10003004:	b082      	sub	sp, #8
10003006:	9000      	str	r0, [sp, #0]
10003008:	2000      	movs	r0, #0
1000300a:	9001      	str	r0, [sp, #4]
1000300c:	9801      	ldr	r0, [sp, #4]
1000300e:	b002      	add	sp, #8
10003010:	4770      	bx	lr
	...

10003014 <USART_GetRxCount>:
10003014:	b081      	sub	sp, #4
10003016:	9000      	str	r0, [sp, #0]
10003018:	9800      	ldr	r0, [sp, #0]
1000301a:	6980      	ldr	r0, [r0, #24]
1000301c:	6900      	ldr	r0, [r0, #16]
1000301e:	b001      	add	sp, #4
10003020:	4770      	bx	lr
	...

10003024 <USART_GetStatus>:
10003024:	b082      	sub	sp, #8
10003026:	9000      	str	r0, [sp, #0]
10003028:	9800      	ldr	r0, [sp, #0]
1000302a:	6940      	ldr	r0, [r0, #20]
1000302c:	7901      	ldrb	r1, [r0, #4]
1000302e:	9801      	ldr	r0, [sp, #4]
10003030:	f361 0000 	bfi	r0, r1, #0, #1
10003034:	9001      	str	r0, [sp, #4]
10003036:	9800      	ldr	r0, [sp, #0]
10003038:	6940      	ldr	r0, [r0, #20]
1000303a:	7941      	ldrb	r1, [r0, #5]
1000303c:	9801      	ldr	r0, [sp, #4]
1000303e:	f001 0101 	and.w	r1, r1, #1
10003042:	f020 0002 	bic.w	r0, r0, #2
10003046:	ea40 0041 	orr.w	r0, r0, r1, lsl #1
1000304a:	9001      	str	r0, [sp, #4]
1000304c:	9800      	ldr	r0, [sp, #0]
1000304e:	6940      	ldr	r0, [r0, #20]
10003050:	7981      	ldrb	r1, [r0, #6]
10003052:	9801      	ldr	r0, [sp, #4]
10003054:	f001 0101 	and.w	r1, r1, #1
10003058:	f020 0008 	bic.w	r0, r0, #8
1000305c:	ea40 00c1 	orr.w	r0, r0, r1, lsl #3
10003060:	9001      	str	r0, [sp, #4]
10003062:	9801      	ldr	r0, [sp, #4]
10003064:	b002      	add	sp, #8
10003066:	4770      	bx	lr

10003068 <USART_GetTxCount>:
10003068:	b081      	sub	sp, #4
1000306a:	9000      	str	r0, [sp, #0]
1000306c:	9800      	ldr	r0, [sp, #0]
1000306e:	6980      	ldr	r0, [r0, #24]
10003070:	6940      	ldr	r0, [r0, #20]
10003072:	b001      	add	sp, #4
10003074:	4770      	bx	lr
	...

10003078 <USART_Initialize>:
10003078:	b083      	sub	sp, #12
1000307a:	9001      	str	r0, [sp, #4]
1000307c:	9100      	str	r1, [sp, #0]
1000307e:	9800      	ldr	r0, [sp, #0]
10003080:	6940      	ldr	r0, [r0, #20]
10003082:	79c0      	ldrb	r0, [r0, #7]
10003084:	07c0      	lsls	r0, r0, #31
10003086:	b118      	cbz	r0, 10003090 <USART_Initialize+0x18>
10003088:	e7ff      	b.n	1000308a <USART_Initialize+0x12>
1000308a:	2000      	movs	r0, #0
1000308c:	9002      	str	r0, [sp, #8]
1000308e:	e026      	b.n	100030de <USART_Initialize+0x66>
10003090:	9801      	ldr	r0, [sp, #4]
10003092:	9900      	ldr	r1, [sp, #0]
10003094:	6949      	ldr	r1, [r1, #20]
10003096:	6008      	str	r0, [r1, #0]
10003098:	9800      	ldr	r0, [sp, #0]
1000309a:	6981      	ldr	r1, [r0, #24]
1000309c:	2000      	movs	r0, #0
1000309e:	6148      	str	r0, [r1, #20]
100030a0:	6108      	str	r0, [r1, #16]
100030a2:	60c8      	str	r0, [r1, #12]
100030a4:	6088      	str	r0, [r1, #8]
100030a6:	6048      	str	r0, [r1, #4]
100030a8:	6008      	str	r0, [r1, #0]
100030aa:	9900      	ldr	r1, [sp, #0]
100030ac:	684a      	ldr	r2, [r1, #4]
100030ae:	7913      	ldrb	r3, [r2, #4]
100030b0:	2101      	movs	r1, #1
100030b2:	fa01 fc03 	lsl.w	ip, r1, r3
100030b6:	6813      	ldr	r3, [r2, #0]
100030b8:	699a      	ldr	r2, [r3, #24]
100030ba:	ea42 020c 	orr.w	r2, r2, ip
100030be:	619a      	str	r2, [r3, #24]
100030c0:	9a00      	ldr	r2, [sp, #0]
100030c2:	6892      	ldr	r2, [r2, #8]
100030c4:	7913      	ldrb	r3, [r2, #4]
100030c6:	fa01 fc03 	lsl.w	ip, r1, r3
100030ca:	6813      	ldr	r3, [r2, #0]
100030cc:	699a      	ldr	r2, [r3, #24]
100030ce:	ea42 020c 	orr.w	r2, r2, ip
100030d2:	619a      	str	r2, [r3, #24]
100030d4:	9a00      	ldr	r2, [sp, #0]
100030d6:	6952      	ldr	r2, [r2, #20]
100030d8:	71d1      	strb	r1, [r2, #7]
100030da:	9002      	str	r0, [sp, #8]
100030dc:	e7ff      	b.n	100030de <USART_Initialize+0x66>
100030de:	9802      	ldr	r0, [sp, #8]
100030e0:	b003      	add	sp, #12
100030e2:	4770      	bx	lr

100030e4 <USART_PowerControl>:
100030e4:	b580      	push	{r7, lr}
100030e6:	b084      	sub	sp, #16
100030e8:	f88d 000b 	strb.w	r0, [sp, #11]
100030ec:	9101      	str	r1, [sp, #4]
100030ee:	f89d 000b 	ldrb.w	r0, [sp, #11]
100030f2:	4601      	mov	r1, r0
100030f4:	9100      	str	r1, [sp, #0]
100030f6:	b140      	cbz	r0, 1000310a <USART_PowerControl+0x26>
100030f8:	e7ff      	b.n	100030fa <USART_PowerControl+0x16>
100030fa:	9800      	ldr	r0, [sp, #0]
100030fc:	2801      	cmp	r0, #1
100030fe:	d01f      	beq.n	10003140 <USART_PowerControl+0x5c>
10003100:	e7ff      	b.n	10003102 <USART_PowerControl+0x1e>
10003102:	9800      	ldr	r0, [sp, #0]
10003104:	2802      	cmp	r0, #2
10003106:	d01f      	beq.n	10003148 <USART_PowerControl+0x64>
10003108:	e055      	b.n	100031b6 <USART_PowerControl+0xd2>
1000310a:	9801      	ldr	r0, [sp, #4]
1000310c:	6941      	ldr	r1, [r0, #20]
1000310e:	79c8      	ldrb	r0, [r1, #7]
10003110:	f000 00fd 	and.w	r0, r0, #253	; 0xfd
10003114:	71c8      	strb	r0, [r1, #7]
10003116:	9801      	ldr	r0, [sp, #4]
10003118:	f990 0010 	ldrsb.w	r0, [r0, #16]
1000311c:	f000 f934 	bl	10003388 <__NVIC_DisableIRQ>
10003120:	9801      	ldr	r0, [sp, #4]
10003122:	f990 0010 	ldrsb.w	r0, [r0, #16]
10003126:	f000 f917 	bl	10003358 <__NVIC_ClearPendingIRQ>
1000312a:	9801      	ldr	r0, [sp, #4]
1000312c:	f990 0011 	ldrsb.w	r0, [r0, #17]
10003130:	f000 f92a 	bl	10003388 <__NVIC_DisableIRQ>
10003134:	9801      	ldr	r0, [sp, #4]
10003136:	f990 0011 	ldrsb.w	r0, [r0, #17]
1000313a:	f000 f90d 	bl	10003358 <__NVIC_ClearPendingIRQ>
1000313e:	e03a      	b.n	100031b6 <USART_PowerControl+0xd2>
10003140:	f06f 0003 	mvn.w	r0, #3
10003144:	9003      	str	r0, [sp, #12]
10003146:	e039      	b.n	100031bc <USART_PowerControl+0xd8>
10003148:	9801      	ldr	r0, [sp, #4]
1000314a:	6940      	ldr	r0, [r0, #20]
1000314c:	79c0      	ldrb	r0, [r0, #7]
1000314e:	07c0      	lsls	r0, r0, #31
10003150:	b920      	cbnz	r0, 1000315c <USART_PowerControl+0x78>
10003152:	e7ff      	b.n	10003154 <USART_PowerControl+0x70>
10003154:	f04f 30ff 	mov.w	r0, #4294967295	; 0xffffffff
10003158:	9003      	str	r0, [sp, #12]
1000315a:	e02f      	b.n	100031bc <USART_PowerControl+0xd8>
1000315c:	9801      	ldr	r0, [sp, #4]
1000315e:	6940      	ldr	r0, [r0, #20]
10003160:	79c0      	ldrb	r0, [r0, #7]
10003162:	0780      	lsls	r0, r0, #30
10003164:	2800      	cmp	r0, #0
10003166:	d503      	bpl.n	10003170 <USART_PowerControl+0x8c>
10003168:	e7ff      	b.n	1000316a <USART_PowerControl+0x86>
1000316a:	2000      	movs	r0, #0
1000316c:	9003      	str	r0, [sp, #12]
1000316e:	e025      	b.n	100031bc <USART_PowerControl+0xd8>
10003170:	9801      	ldr	r0, [sp, #4]
10003172:	6941      	ldr	r1, [r0, #20]
10003174:	2000      	movs	r0, #0
10003176:	7108      	strb	r0, [r1, #4]
10003178:	9901      	ldr	r1, [sp, #4]
1000317a:	6949      	ldr	r1, [r1, #20]
1000317c:	7148      	strb	r0, [r1, #5]
1000317e:	9901      	ldr	r1, [sp, #4]
10003180:	6949      	ldr	r1, [r1, #20]
10003182:	7188      	strb	r0, [r1, #6]
10003184:	9801      	ldr	r0, [sp, #4]
10003186:	6941      	ldr	r1, [r0, #20]
10003188:	2003      	movs	r0, #3
1000318a:	71c8      	strb	r0, [r1, #7]
1000318c:	9801      	ldr	r0, [sp, #4]
1000318e:	f990 0010 	ldrsb.w	r0, [r0, #16]
10003192:	f000 f8e1 	bl	10003358 <__NVIC_ClearPendingIRQ>
10003196:	9801      	ldr	r0, [sp, #4]
10003198:	f990 0010 	ldrsb.w	r0, [r0, #16]
1000319c:	f000 f910 	bl	100033c0 <__NVIC_EnableIRQ>
100031a0:	9801      	ldr	r0, [sp, #4]
100031a2:	f990 0011 	ldrsb.w	r0, [r0, #17]
100031a6:	f000 f8d7 	bl	10003358 <__NVIC_ClearPendingIRQ>
100031aa:	9801      	ldr	r0, [sp, #4]
100031ac:	f990 0011 	ldrsb.w	r0, [r0, #17]
100031b0:	f000 f906 	bl	100033c0 <__NVIC_EnableIRQ>
100031b4:	e7ff      	b.n	100031b6 <USART_PowerControl+0xd2>
100031b6:	2000      	movs	r0, #0
100031b8:	9003      	str	r0, [sp, #12]
100031ba:	e7ff      	b.n	100031bc <USART_PowerControl+0xd8>
100031bc:	9803      	ldr	r0, [sp, #12]
100031be:	b004      	add	sp, #16
100031c0:	bd80      	pop	{r7, pc}
	...

100031c4 <USART_Receive>:
100031c4:	b084      	sub	sp, #16
100031c6:	9002      	str	r0, [sp, #8]
100031c8:	9101      	str	r1, [sp, #4]
100031ca:	9200      	str	r2, [sp, #0]
100031cc:	9802      	ldr	r0, [sp, #8]
100031ce:	b118      	cbz	r0, 100031d8 <USART_Receive+0x14>
100031d0:	e7ff      	b.n	100031d2 <USART_Receive+0xe>
100031d2:	9801      	ldr	r0, [sp, #4]
100031d4:	b920      	cbnz	r0, 100031e0 <USART_Receive+0x1c>
100031d6:	e7ff      	b.n	100031d8 <USART_Receive+0x14>
100031d8:	f06f 0004 	mvn.w	r0, #4
100031dc:	9003      	str	r0, [sp, #12]
100031de:	e035      	b.n	1000324c <USART_Receive+0x88>
100031e0:	9800      	ldr	r0, [sp, #0]
100031e2:	6940      	ldr	r0, [r0, #20]
100031e4:	79c0      	ldrb	r0, [r0, #7]
100031e6:	0740      	lsls	r0, r0, #29
100031e8:	2800      	cmp	r0, #0
100031ea:	d404      	bmi.n	100031f6 <USART_Receive+0x32>
100031ec:	e7ff      	b.n	100031ee <USART_Receive+0x2a>
100031ee:	f04f 30ff 	mov.w	r0, #4294967295	; 0xffffffff
100031f2:	9003      	str	r0, [sp, #12]
100031f4:	e02a      	b.n	1000324c <USART_Receive+0x88>
100031f6:	9800      	ldr	r0, [sp, #0]
100031f8:	6940      	ldr	r0, [r0, #20]
100031fa:	7940      	ldrb	r0, [r0, #5]
100031fc:	b938      	cbnz	r0, 1000320e <USART_Receive+0x4a>
100031fe:	e7ff      	b.n	10003200 <USART_Receive+0x3c>
10003200:	9800      	ldr	r0, [sp, #0]
10003202:	68c0      	ldr	r0, [r0, #12]
10003204:	6840      	ldr	r0, [r0, #4]
10003206:	0780      	lsls	r0, r0, #30
10003208:	2800      	cmp	r0, #0
1000320a:	d504      	bpl.n	10003216 <USART_Receive+0x52>
1000320c:	e7ff      	b.n	1000320e <USART_Receive+0x4a>
1000320e:	f06f 0001 	mvn.w	r0, #1
10003212:	9003      	str	r0, [sp, #12]
10003214:	e01a      	b.n	1000324c <USART_Receive+0x88>
10003216:	9801      	ldr	r0, [sp, #4]
10003218:	9900      	ldr	r1, [sp, #0]
1000321a:	6989      	ldr	r1, [r1, #24]
1000321c:	6008      	str	r0, [r1, #0]
1000321e:	9800      	ldr	r0, [sp, #0]
10003220:	6941      	ldr	r1, [r0, #20]
10003222:	2000      	movs	r0, #0
10003224:	7188      	strb	r0, [r1, #6]
10003226:	9902      	ldr	r1, [sp, #8]
10003228:	9a00      	ldr	r2, [sp, #0]
1000322a:	6992      	ldr	r2, [r2, #24]
1000322c:	6091      	str	r1, [r2, #8]
1000322e:	9900      	ldr	r1, [sp, #0]
10003230:	6989      	ldr	r1, [r1, #24]
10003232:	6108      	str	r0, [r1, #16]
10003234:	9900      	ldr	r1, [sp, #0]
10003236:	694a      	ldr	r2, [r1, #20]
10003238:	2101      	movs	r1, #1
1000323a:	7151      	strb	r1, [r2, #5]
1000323c:	9900      	ldr	r1, [sp, #0]
1000323e:	68ca      	ldr	r2, [r1, #12]
10003240:	6891      	ldr	r1, [r2, #8]
10003242:	f041 0108 	orr.w	r1, r1, #8
10003246:	6091      	str	r1, [r2, #8]
10003248:	9003      	str	r0, [sp, #12]
1000324a:	e7ff      	b.n	1000324c <USART_Receive+0x88>
1000324c:	9803      	ldr	r0, [sp, #12]
1000324e:	b004      	add	sp, #16
10003250:	4770      	bx	lr
	...

10003254 <USART_Send>:
10003254:	b084      	sub	sp, #16
10003256:	9002      	str	r0, [sp, #8]
10003258:	9101      	str	r1, [sp, #4]
1000325a:	9200      	str	r2, [sp, #0]
1000325c:	9802      	ldr	r0, [sp, #8]
1000325e:	b118      	cbz	r0, 10003268 <USART_Send+0x14>
10003260:	e7ff      	b.n	10003262 <USART_Send+0xe>
10003262:	9801      	ldr	r0, [sp, #4]
10003264:	b920      	cbnz	r0, 10003270 <USART_Send+0x1c>
10003266:	e7ff      	b.n	10003268 <USART_Send+0x14>
10003268:	f06f 0004 	mvn.w	r0, #4
1000326c:	9003      	str	r0, [sp, #12]
1000326e:	e038      	b.n	100032e2 <USART_Send+0x8e>
10003270:	9800      	ldr	r0, [sp, #0]
10003272:	6940      	ldr	r0, [r0, #20]
10003274:	79c0      	ldrb	r0, [r0, #7]
10003276:	0740      	lsls	r0, r0, #29
10003278:	2800      	cmp	r0, #0
1000327a:	d404      	bmi.n	10003286 <USART_Send+0x32>
1000327c:	e7ff      	b.n	1000327e <USART_Send+0x2a>
1000327e:	f04f 30ff 	mov.w	r0, #4294967295	; 0xffffffff
10003282:	9003      	str	r0, [sp, #12]
10003284:	e02d      	b.n	100032e2 <USART_Send+0x8e>
10003286:	9800      	ldr	r0, [sp, #0]
10003288:	6940      	ldr	r0, [r0, #20]
1000328a:	7900      	ldrb	r0, [r0, #4]
1000328c:	b930      	cbnz	r0, 1000329c <USART_Send+0x48>
1000328e:	e7ff      	b.n	10003290 <USART_Send+0x3c>
10003290:	9800      	ldr	r0, [sp, #0]
10003292:	68c0      	ldr	r0, [r0, #12]
10003294:	6840      	ldr	r0, [r0, #4]
10003296:	07c0      	lsls	r0, r0, #31
10003298:	b120      	cbz	r0, 100032a4 <USART_Send+0x50>
1000329a:	e7ff      	b.n	1000329c <USART_Send+0x48>
1000329c:	f06f 0001 	mvn.w	r0, #1
100032a0:	9003      	str	r0, [sp, #12]
100032a2:	e01e      	b.n	100032e2 <USART_Send+0x8e>
100032a4:	9800      	ldr	r0, [sp, #0]
100032a6:	6941      	ldr	r1, [r0, #20]
100032a8:	2001      	movs	r0, #1
100032aa:	7108      	strb	r0, [r1, #4]
100032ac:	9802      	ldr	r0, [sp, #8]
100032ae:	9900      	ldr	r1, [sp, #0]
100032b0:	6989      	ldr	r1, [r1, #24]
100032b2:	60c8      	str	r0, [r1, #12]
100032b4:	9801      	ldr	r0, [sp, #4]
100032b6:	9900      	ldr	r1, [sp, #0]
100032b8:	6989      	ldr	r1, [r1, #24]
100032ba:	6048      	str	r0, [r1, #4]
100032bc:	9800      	ldr	r0, [sp, #0]
100032be:	6981      	ldr	r1, [r0, #24]
100032c0:	2000      	movs	r0, #0
100032c2:	6148      	str	r0, [r1, #20]
100032c4:	9900      	ldr	r1, [sp, #0]
100032c6:	68ca      	ldr	r2, [r1, #12]
100032c8:	6891      	ldr	r1, [r2, #8]
100032ca:	f041 0104 	orr.w	r1, r1, #4
100032ce:	6091      	str	r1, [r2, #8]
100032d0:	9900      	ldr	r1, [sp, #0]
100032d2:	68ca      	ldr	r2, [r1, #12]
100032d4:	698b      	ldr	r3, [r1, #24]
100032d6:	68d9      	ldr	r1, [r3, #12]
100032d8:	695b      	ldr	r3, [r3, #20]
100032da:	5cc9      	ldrb	r1, [r1, r3]
100032dc:	6011      	str	r1, [r2, #0]
100032de:	9003      	str	r0, [sp, #12]
100032e0:	e7ff      	b.n	100032e2 <USART_Send+0x8e>
100032e2:	9803      	ldr	r0, [sp, #12]
100032e4:	b004      	add	sp, #16
100032e6:	4770      	bx	lr

100032e8 <USART_SetModemControl>:
100032e8:	b082      	sub	sp, #8
100032ea:	f88d 0007 	strb.w	r0, [sp, #7]
100032ee:	9100      	str	r1, [sp, #0]
100032f0:	f06f 0003 	mvn.w	r0, #3
100032f4:	b002      	add	sp, #8
100032f6:	4770      	bx	lr

100032f8 <USART_Transfer>:
100032f8:	b084      	sub	sp, #16
100032fa:	9003      	str	r0, [sp, #12]
100032fc:	9102      	str	r1, [sp, #8]
100032fe:	9201      	str	r2, [sp, #4]
10003300:	9300      	str	r3, [sp, #0]
10003302:	f06f 0003 	mvn.w	r0, #3
10003306:	b004      	add	sp, #16
10003308:	4770      	bx	lr
	...

1000330c <USART_Uninitialize>:
1000330c:	b081      	sub	sp, #4
1000330e:	9000      	str	r0, [sp, #0]
10003310:	9800      	ldr	r0, [sp, #0]
10003312:	6840      	ldr	r0, [r0, #4]
10003314:	7902      	ldrb	r2, [r0, #4]
10003316:	2101      	movs	r1, #1
10003318:	fa01 f302 	lsl.w	r3, r1, r2
1000331c:	6802      	ldr	r2, [r0, #0]
1000331e:	6990      	ldr	r0, [r2, #24]
10003320:	4398      	bics	r0, r3
10003322:	6190      	str	r0, [r2, #24]
10003324:	9800      	ldr	r0, [sp, #0]
10003326:	6880      	ldr	r0, [r0, #8]
10003328:	7902      	ldrb	r2, [r0, #4]
1000332a:	fa01 f202 	lsl.w	r2, r1, r2
1000332e:	6801      	ldr	r1, [r0, #0]
10003330:	6988      	ldr	r0, [r1, #24]
10003332:	4390      	bics	r0, r2
10003334:	6188      	str	r0, [r1, #24]
10003336:	9800      	ldr	r0, [sp, #0]
10003338:	6941      	ldr	r1, [r0, #20]
1000333a:	2000      	movs	r0, #0
1000333c:	71c8      	strb	r0, [r1, #7]
1000333e:	b001      	add	sp, #4
10003340:	4770      	bx	lr
	...

10003344 <USARTx_GetVersion>:
10003344:	b081      	sub	sp, #4
10003346:	f240 2004 	movw	r0, #516	; 0x204
1000334a:	f2c0 1000 	movt	r0, #256	; 0x100
1000334e:	9000      	str	r0, [sp, #0]
10003350:	9800      	ldr	r0, [sp, #0]
10003352:	b001      	add	sp, #4
10003354:	4770      	bx	lr
	...

10003358 <__NVIC_ClearPendingIRQ>:
10003358:	b081      	sub	sp, #4
1000335a:	f88d 0003 	strb.w	r0, [sp, #3]
1000335e:	f99d 0003 	ldrsb.w	r0, [sp, #3]
10003362:	2800      	cmp	r0, #0
10003364:	d40e      	bmi.n	10003384 <__NVIC_ClearPendingIRQ+0x2c>
10003366:	e7ff      	b.n	10003368 <__NVIC_ClearPendingIRQ+0x10>
10003368:	f99d 1003 	ldrsb.w	r1, [sp, #3]
1000336c:	f001 021f 	and.w	r2, r1, #31
10003370:	2001      	movs	r0, #1
10003372:	4090      	lsls	r0, r2
10003374:	094a      	lsrs	r2, r1, #5
10003376:	f24e 2180 	movw	r1, #57984	; 0xe280
1000337a:	f2ce 0100 	movt	r1, #57344	; 0xe000
1000337e:	f841 0022 	str.w	r0, [r1, r2, lsl #2]
10003382:	e7ff      	b.n	10003384 <__NVIC_ClearPendingIRQ+0x2c>
10003384:	b001      	add	sp, #4
10003386:	4770      	bx	lr

10003388 <__NVIC_DisableIRQ>:
10003388:	b081      	sub	sp, #4
1000338a:	f88d 0003 	strb.w	r0, [sp, #3]
1000338e:	f99d 0003 	ldrsb.w	r0, [sp, #3]
10003392:	2800      	cmp	r0, #0
10003394:	d412      	bmi.n	100033bc <__NVIC_DisableIRQ+0x34>
10003396:	e7ff      	b.n	10003398 <__NVIC_DisableIRQ+0x10>
10003398:	f99d 1003 	ldrsb.w	r1, [sp, #3]
1000339c:	f001 021f 	and.w	r2, r1, #31
100033a0:	2001      	movs	r0, #1
100033a2:	4090      	lsls	r0, r2
100033a4:	094a      	lsrs	r2, r1, #5
100033a6:	f24e 1180 	movw	r1, #57728	; 0xe180
100033aa:	f2ce 0100 	movt	r1, #57344	; 0xe000
100033ae:	f841 0022 	str.w	r0, [r1, r2, lsl #2]
100033b2:	f3bf 8f4f 	dsb	sy
100033b6:	f3bf 8f6f 	isb	sy
100033ba:	e7ff      	b.n	100033bc <__NVIC_DisableIRQ+0x34>
100033bc:	b001      	add	sp, #4
100033be:	4770      	bx	lr

100033c0 <__NVIC_EnableIRQ>:
100033c0:	b081      	sub	sp, #4
100033c2:	f88d 0003 	strb.w	r0, [sp, #3]
100033c6:	f99d 0003 	ldrsb.w	r0, [sp, #3]
100033ca:	2800      	cmp	r0, #0
100033cc:	d40e      	bmi.n	100033ec <__NVIC_EnableIRQ+0x2c>
100033ce:	e7ff      	b.n	100033d0 <__NVIC_EnableIRQ+0x10>
100033d0:	f99d 1003 	ldrsb.w	r1, [sp, #3]
100033d4:	f001 021f 	and.w	r2, r1, #31
100033d8:	2001      	movs	r0, #1
100033da:	4090      	lsls	r0, r2
100033dc:	094a      	lsrs	r2, r1, #5
100033de:	f24e 1100 	movw	r1, #57600	; 0xe100
100033e2:	f2ce 0100 	movt	r1, #57344	; 0xe000
100033e6:	f841 0022 	str.w	r0, [r1, r2, lsl #2]
100033ea:	e7ff      	b.n	100033ec <__NVIC_EnableIRQ+0x2c>
100033ec:	b001      	add	sp, #4
100033ee:	4770      	bx	lr

100033f0 <__NVIC_SetPriority>:
100033f0:	b082      	sub	sp, #8
100033f2:	f88d 0007 	strb.w	r0, [sp, #7]
100033f6:	9100      	str	r1, [sp, #0]
100033f8:	f99d 0007 	ldrsb.w	r0, [sp, #7]
100033fc:	2800      	cmp	r0, #0
100033fe:	d40a      	bmi.n	10003416 <__NVIC_SetPriority+0x26>
10003400:	e7ff      	b.n	10003402 <__NVIC_SetPriority+0x12>
10003402:	9800      	ldr	r0, [sp, #0]
10003404:	0140      	lsls	r0, r0, #5
10003406:	f99d 1007 	ldrsb.w	r1, [sp, #7]
1000340a:	f24e 4200 	movw	r2, #58368	; 0xe400
1000340e:	f2ce 0200 	movt	r2, #57344	; 0xe000
10003412:	5488      	strb	r0, [r1, r2]
10003414:	e00b      	b.n	1000342e <__NVIC_SetPriority+0x3e>
10003416:	9800      	ldr	r0, [sp, #0]
10003418:	0140      	lsls	r0, r0, #5
1000341a:	f89d 1007 	ldrb.w	r1, [sp, #7]
1000341e:	f001 010f 	and.w	r1, r1, #15
10003422:	f64e 5214 	movw	r2, #60692	; 0xed14
10003426:	f2ce 0200 	movt	r2, #57344	; 0xe000
1000342a:	5488      	strb	r0, [r1, r2]
1000342c:	e7ff      	b.n	1000342e <__NVIC_SetPriority+0x3e>
1000342e:	b002      	add	sp, #8
10003430:	4770      	bx	lr
	...

10003434 <__NVIC_SetPriority>:
10003434:	b082      	sub	sp, #8
10003436:	f88d 0007 	strb.w	r0, [sp, #7]
1000343a:	9100      	str	r1, [sp, #0]
1000343c:	f99d 0007 	ldrsb.w	r0, [sp, #7]
10003440:	2800      	cmp	r0, #0
10003442:	d40a      	bmi.n	1000345a <__NVIC_SetPriority+0x26>
10003444:	e7ff      	b.n	10003446 <__NVIC_SetPriority+0x12>
10003446:	9800      	ldr	r0, [sp, #0]
10003448:	0140      	lsls	r0, r0, #5
1000344a:	f99d 1007 	ldrsb.w	r1, [sp, #7]
1000344e:	f24e 4200 	movw	r2, #58368	; 0xe400
10003452:	f2ce 0200 	movt	r2, #57344	; 0xe000
10003456:	5488      	strb	r0, [r1, r2]
10003458:	e00b      	b.n	10003472 <__NVIC_SetPriority+0x3e>
1000345a:	9800      	ldr	r0, [sp, #0]
1000345c:	0140      	lsls	r0, r0, #5
1000345e:	f89d 1007 	ldrb.w	r1, [sp, #7]
10003462:	f001 010f 	and.w	r1, r1, #15
10003466:	f64e 5214 	movw	r2, #60692	; 0xed14
1000346a:	f2ce 0200 	movt	r2, #57344	; 0xe000
1000346e:	5488      	strb	r0, [r1, r2]
10003470:	e7ff      	b.n	10003472 <__NVIC_SetPriority+0x3e>
10003472:	b002      	add	sp, #8
10003474:	4770      	bx	lr
	...

10003478 <__debug_DWT_Registers>:
10003478:	b580      	push	{r7, lr}
1000347a:	b082      	sub	sp, #8
1000347c:	f246 00f5 	movw	r0, #24821	; 0x60f5
10003480:	f2c1 0000 	movt	r0, #4096	; 0x1000
10003484:	f7fd f884 	bl	10000590 <printf>
10003488:	f240 0010 	movw	r0, #16
1000348c:	f6c3 0000 	movt	r0, #14336	; 0x3800
10003490:	9001      	str	r0, [sp, #4]
10003492:	6800      	ldr	r0, [r0, #0]
10003494:	6a01      	ldr	r1, [r0, #32]
10003496:	f246 104b 	movw	r0, #24907	; 0x614b
1000349a:	f2c1 0000 	movt	r0, #4096	; 0x1000
1000349e:	f7fd f877 	bl	10000590 <printf>
100034a2:	9801      	ldr	r0, [sp, #4]
100034a4:	6800      	ldr	r0, [r0, #0]
100034a6:	6b01      	ldr	r1, [r0, #48]	; 0x30
100034a8:	f246 107b 	movw	r0, #24955	; 0x617b
100034ac:	f2c1 0000 	movt	r0, #4096	; 0x1000
100034b0:	f7fd f86e 	bl	10000590 <printf>
100034b4:	9801      	ldr	r0, [sp, #4]
100034b6:	6800      	ldr	r0, [r0, #0]
100034b8:	6c01      	ldr	r1, [r0, #64]	; 0x40
100034ba:	f246 10ab 	movw	r0, #25003	; 0x61ab
100034be:	f2c1 0000 	movt	r0, #4096	; 0x1000
100034c2:	f7fd f865 	bl	10000590 <printf>
100034c6:	9801      	ldr	r0, [sp, #4]
100034c8:	6800      	ldr	r0, [r0, #0]
100034ca:	6d01      	ldr	r1, [r0, #80]	; 0x50
100034cc:	f246 10db 	movw	r0, #25051	; 0x61db
100034d0:	f2c1 0000 	movt	r0, #4096	; 0x1000
100034d4:	f7fd f85c 	bl	10000590 <printf>
100034d8:	9801      	ldr	r0, [sp, #4]
100034da:	6800      	ldr	r0, [r0, #0]
100034dc:	6a81      	ldr	r1, [r0, #40]	; 0x28
100034de:	f246 1031 	movw	r0, #24881	; 0x6131
100034e2:	f2c1 0000 	movt	r0, #4096	; 0x1000
100034e6:	f7fd f853 	bl	10000590 <printf>
100034ea:	9801      	ldr	r0, [sp, #4]
100034ec:	6800      	ldr	r0, [r0, #0]
100034ee:	6b81      	ldr	r1, [r0, #56]	; 0x38
100034f0:	f246 1061 	movw	r0, #24929	; 0x6161
100034f4:	f2c1 0000 	movt	r0, #4096	; 0x1000
100034f8:	f7fd f84a 	bl	10000590 <printf>
100034fc:	9801      	ldr	r0, [sp, #4]
100034fe:	6800      	ldr	r0, [r0, #0]
10003500:	6c81      	ldr	r1, [r0, #72]	; 0x48
10003502:	f246 1091 	movw	r0, #24977	; 0x6191
10003506:	f2c1 0000 	movt	r0, #4096	; 0x1000
1000350a:	f7fd f841 	bl	10000590 <printf>
1000350e:	9801      	ldr	r0, [sp, #4]
10003510:	6800      	ldr	r0, [r0, #0]
10003512:	6d81      	ldr	r1, [r0, #88]	; 0x58
10003514:	f246 10c1 	movw	r0, #25025	; 0x61c1
10003518:	f2c1 0000 	movt	r0, #4096	; 0x1000
1000351c:	f7fd f838 	bl	10000590 <printf>
10003520:	b002      	add	sp, #8
10003522:	bd80      	pop	{r7, pc}

10003524 <__debug_MTB_Registers>:
10003524:	b580      	push	{r7, lr}
10003526:	b082      	sub	sp, #8
10003528:	f246 00d1 	movw	r0, #24785	; 0x60d1
1000352c:	f2c1 0000 	movt	r0, #4096	; 0x1000
10003530:	f7fd f82e 	bl	10000590 <printf>
10003534:	f240 0034 	movw	r0, #52	; 0x34
10003538:	f6c3 0000 	movt	r0, #14336	; 0x3800
1000353c:	9001      	str	r0, [sp, #4]
1000353e:	6800      	ldr	r0, [r0, #0]
10003540:	68c1      	ldr	r1, [r0, #12]
10003542:	f246 2008 	movw	r0, #25096	; 0x6208
10003546:	f2c1 0000 	movt	r0, #4096	; 0x1000
1000354a:	f7fd f821 	bl	10000590 <printf>
1000354e:	9801      	ldr	r0, [sp, #4]
10003550:	6800      	ldr	r0, [r0, #0]
10003552:	6801      	ldr	r1, [r0, #0]
10003554:	f246 201d 	movw	r0, #25117	; 0x621d
10003558:	f2c1 0000 	movt	r0, #4096	; 0x1000
1000355c:	f7fd f818 	bl	10000590 <printf>
10003560:	9801      	ldr	r0, [sp, #4]
10003562:	6800      	ldr	r0, [r0, #0]
10003564:	6841      	ldr	r1, [r0, #4]
10003566:	f246 206a 	movw	r0, #25194	; 0x626a
1000356a:	f2c1 0000 	movt	r0, #4096	; 0x1000
1000356e:	f7fd f80f 	bl	10000590 <printf>
10003572:	9801      	ldr	r0, [sp, #4]
10003574:	6800      	ldr	r0, [r0, #0]
10003576:	6881      	ldr	r1, [r0, #8]
10003578:	f246 20b6 	movw	r0, #25270	; 0x62b6
1000357c:	f2c1 0000 	movt	r0, #4096	; 0x1000
10003580:	f7fd f806 	bl	10000590 <printf>
10003584:	9801      	ldr	r0, [sp, #4]
10003586:	6800      	ldr	r0, [r0, #0]
10003588:	6901      	ldr	r1, [r0, #16]
1000358a:	f246 209f 	movw	r0, #25247	; 0x629f
1000358e:	f2c1 0000 	movt	r0, #4096	; 0x1000
10003592:	f7fc fffd 	bl	10000590 <printf>
10003596:	9801      	ldr	r0, [sp, #4]
10003598:	6800      	ldr	r0, [r0, #0]
1000359a:	6941      	ldr	r1, [r0, #20]
1000359c:	f246 2036 	movw	r0, #25142	; 0x6236
100035a0:	f2c1 0000 	movt	r0, #4096	; 0x1000
100035a4:	f7fc fff4 	bl	10000590 <printf>
100035a8:	9801      	ldr	r0, [sp, #4]
100035aa:	6800      	ldr	r0, [r0, #0]
100035ac:	6981      	ldr	r1, [r0, #24]
100035ae:	f246 10f1 	movw	r0, #25073	; 0x61f1
100035b2:	f2c1 0000 	movt	r0, #4096	; 0x1000
100035b6:	f7fc ffeb 	bl	10000590 <printf>
100035ba:	b002      	add	sp, #8
100035bc:	bd80      	pop	{r7, pc}
	...

100035c0 <_clear_stat>:
100035c0:	b672      	cpsid	i
100035c2:	f240 1194 	movw	r1, #404	; 0x194
100035c6:	f6c3 0100 	movt	r1, #14336	; 0x3800
100035ca:	2000      	movs	r0, #0
100035cc:	6008      	str	r0, [r1, #0]
100035ce:	b662      	cpsie	i
100035d0:	4770      	bx	lr
	...

100035d4 <_set_stat>:
100035d4:	b081      	sub	sp, #4
100035d6:	b672      	cpsid	i
100035d8:	f240 1094 	movw	r0, #404	; 0x194
100035dc:	f6c3 0000 	movt	r0, #14336	; 0x3800
100035e0:	6800      	ldr	r0, [r0, #0]
100035e2:	2801      	cmp	r0, #1
100035e4:	d105      	bne.n	100035f2 <_set_stat+0x1e>
100035e6:	e7ff      	b.n	100035e8 <_set_stat+0x14>
100035e8:	b662      	cpsie	i
100035ea:	2001      	movs	r0, #1
100035ec:	f88d 0003 	strb.w	r0, [sp, #3]
100035f0:	e00a      	b.n	10003608 <_set_stat+0x34>
100035f2:	f240 1194 	movw	r1, #404	; 0x194
100035f6:	f6c3 0100 	movt	r1, #14336	; 0x3800
100035fa:	2001      	movs	r0, #1
100035fc:	6008      	str	r0, [r1, #0]
100035fe:	b662      	cpsie	i
10003600:	2000      	movs	r0, #0
10003602:	f88d 0003 	strb.w	r0, [sp, #3]
10003606:	e7ff      	b.n	10003608 <_set_stat+0x34>
10003608:	f89d 0003 	ldrb.w	r0, [sp, #3]
1000360c:	b001      	add	sp, #4
1000360e:	4770      	bx	lr

10003610 <_sys_close>:
10003610:	b083      	sub	sp, #12
10003612:	9001      	str	r0, [sp, #4]
10003614:	9801      	ldr	r0, [sp, #4]
10003616:	9000      	str	r0, [sp, #0]
10003618:	f248 0101 	movw	r1, #32769	; 0x8001
1000361c:	4288      	cmp	r0, r1
1000361e:	d00c      	beq.n	1000363a <_sys_close+0x2a>
10003620:	e7ff      	b.n	10003622 <_sys_close+0x12>
10003622:	9800      	ldr	r0, [sp, #0]
10003624:	f248 0102 	movw	r1, #32770	; 0x8002
10003628:	4288      	cmp	r0, r1
1000362a:	d009      	beq.n	10003640 <_sys_close+0x30>
1000362c:	e7ff      	b.n	1000362e <_sys_close+0x1e>
1000362e:	9800      	ldr	r0, [sp, #0]
10003630:	f248 0103 	movw	r1, #32771	; 0x8003
10003634:	4288      	cmp	r0, r1
10003636:	d006      	beq.n	10003646 <_sys_close+0x36>
10003638:	e008      	b.n	1000364c <_sys_close+0x3c>
1000363a:	2000      	movs	r0, #0
1000363c:	9002      	str	r0, [sp, #8]
1000363e:	e009      	b.n	10003654 <_sys_close+0x44>
10003640:	2000      	movs	r0, #0
10003642:	9002      	str	r0, [sp, #8]
10003644:	e006      	b.n	10003654 <_sys_close+0x44>
10003646:	2000      	movs	r0, #0
10003648:	9002      	str	r0, [sp, #8]
1000364a:	e003      	b.n	10003654 <_sys_close+0x44>
1000364c:	f04f 30ff 	mov.w	r0, #4294967295	; 0xffffffff
10003650:	9002      	str	r0, [sp, #8]
10003652:	e7ff      	b.n	10003654 <_sys_close+0x44>
10003654:	9802      	ldr	r0, [sp, #8]
10003656:	b003      	add	sp, #12
10003658:	4770      	bx	lr
	...

1000365c <_sys_flen>:
1000365c:	b083      	sub	sp, #12
1000365e:	9001      	str	r0, [sp, #4]
10003660:	9801      	ldr	r0, [sp, #4]
10003662:	9000      	str	r0, [sp, #0]
10003664:	f248 0101 	movw	r1, #32769	; 0x8001
10003668:	4288      	cmp	r0, r1
1000366a:	d00c      	beq.n	10003686 <_sys_flen+0x2a>
1000366c:	e7ff      	b.n	1000366e <_sys_flen+0x12>
1000366e:	9800      	ldr	r0, [sp, #0]
10003670:	f248 0102 	movw	r1, #32770	; 0x8002
10003674:	4288      	cmp	r0, r1
10003676:	d009      	beq.n	1000368c <_sys_flen+0x30>
10003678:	e7ff      	b.n	1000367a <_sys_flen+0x1e>
1000367a:	9800      	ldr	r0, [sp, #0]
1000367c:	f248 0103 	movw	r1, #32771	; 0x8003
10003680:	4288      	cmp	r0, r1
10003682:	d006      	beq.n	10003692 <_sys_flen+0x36>
10003684:	e008      	b.n	10003698 <_sys_flen+0x3c>
10003686:	2000      	movs	r0, #0
10003688:	9002      	str	r0, [sp, #8]
1000368a:	e008      	b.n	1000369e <_sys_flen+0x42>
1000368c:	2000      	movs	r0, #0
1000368e:	9002      	str	r0, [sp, #8]
10003690:	e005      	b.n	1000369e <_sys_flen+0x42>
10003692:	2000      	movs	r0, #0
10003694:	9002      	str	r0, [sp, #8]
10003696:	e002      	b.n	1000369e <_sys_flen+0x42>
10003698:	2000      	movs	r0, #0
1000369a:	9002      	str	r0, [sp, #8]
1000369c:	e7ff      	b.n	1000369e <_sys_flen+0x42>
1000369e:	9802      	ldr	r0, [sp, #8]
100036a0:	b003      	add	sp, #12
100036a2:	4770      	bx	lr

100036a4 <_sys_istty>:
100036a4:	b083      	sub	sp, #12
100036a6:	9001      	str	r0, [sp, #4]
100036a8:	9801      	ldr	r0, [sp, #4]
100036aa:	9000      	str	r0, [sp, #0]
100036ac:	f248 0101 	movw	r1, #32769	; 0x8001
100036b0:	4288      	cmp	r0, r1
100036b2:	d00c      	beq.n	100036ce <_sys_istty+0x2a>
100036b4:	e7ff      	b.n	100036b6 <_sys_istty+0x12>
100036b6:	9800      	ldr	r0, [sp, #0]
100036b8:	f248 0102 	movw	r1, #32770	; 0x8002
100036bc:	4288      	cmp	r0, r1
100036be:	d009      	beq.n	100036d4 <_sys_istty+0x30>
100036c0:	e7ff      	b.n	100036c2 <_sys_istty+0x1e>
100036c2:	9800      	ldr	r0, [sp, #0]
100036c4:	f248 0103 	movw	r1, #32771	; 0x8003
100036c8:	4288      	cmp	r0, r1
100036ca:	d006      	beq.n	100036da <_sys_istty+0x36>
100036cc:	e008      	b.n	100036e0 <_sys_istty+0x3c>
100036ce:	2001      	movs	r0, #1
100036d0:	9002      	str	r0, [sp, #8]
100036d2:	e008      	b.n	100036e6 <_sys_istty+0x42>
100036d4:	2001      	movs	r0, #1
100036d6:	9002      	str	r0, [sp, #8]
100036d8:	e005      	b.n	100036e6 <_sys_istty+0x42>
100036da:	2001      	movs	r0, #1
100036dc:	9002      	str	r0, [sp, #8]
100036de:	e002      	b.n	100036e6 <_sys_istty+0x42>
100036e0:	2000      	movs	r0, #0
100036e2:	9002      	str	r0, [sp, #8]
100036e4:	e7ff      	b.n	100036e6 <_sys_istty+0x42>
100036e6:	9802      	ldr	r0, [sp, #8]
100036e8:	b003      	add	sp, #12
100036ea:	4770      	bx	lr

100036ec <_sys_open>:
100036ec:	b580      	push	{r7, lr}
100036ee:	b084      	sub	sp, #16
100036f0:	9002      	str	r0, [sp, #8]
100036f2:	9101      	str	r1, [sp, #4]
100036f4:	9802      	ldr	r0, [sp, #8]
100036f6:	b920      	cbnz	r0, 10003702 <_sys_open+0x16>
100036f8:	e7ff      	b.n	100036fa <_sys_open+0xe>
100036fa:	f04f 30ff 	mov.w	r0, #4294967295	; 0xffffffff
100036fe:	9003      	str	r0, [sp, #12]
10003700:	e033      	b.n	1000376a <_sys_open+0x7e>
10003702:	9802      	ldr	r0, [sp, #8]
10003704:	7800      	ldrb	r0, [r0, #0]
10003706:	283a      	cmp	r0, #58	; 0x3a
10003708:	d12b      	bne.n	10003762 <_sys_open+0x76>
1000370a:	e7ff      	b.n	1000370c <_sys_open+0x20>
1000370c:	9802      	ldr	r0, [sp, #8]
1000370e:	f246 410a 	movw	r1, #25610	; 0x640a
10003712:	f2c1 0100 	movt	r1, #4096	; 0x1000
10003716:	f7fc ff9b 	bl	10000650 <strcmp>
1000371a:	b920      	cbnz	r0, 10003726 <_sys_open+0x3a>
1000371c:	e7ff      	b.n	1000371e <_sys_open+0x32>
1000371e:	f248 0001 	movw	r0, #32769	; 0x8001
10003722:	9003      	str	r0, [sp, #12]
10003724:	e021      	b.n	1000376a <_sys_open+0x7e>
10003726:	9802      	ldr	r0, [sp, #8]
10003728:	f246 4119 	movw	r1, #25625	; 0x6419
1000372c:	f2c1 0100 	movt	r1, #4096	; 0x1000
10003730:	f7fc ff8e 	bl	10000650 <strcmp>
10003734:	b920      	cbnz	r0, 10003740 <_sys_open+0x54>
10003736:	e7ff      	b.n	10003738 <_sys_open+0x4c>
10003738:	f248 0002 	movw	r0, #32770	; 0x8002
1000373c:	9003      	str	r0, [sp, #12]
1000373e:	e014      	b.n	1000376a <_sys_open+0x7e>
10003740:	9802      	ldr	r0, [sp, #8]
10003742:	f246 4111 	movw	r1, #25617	; 0x6411
10003746:	f2c1 0100 	movt	r1, #4096	; 0x1000
1000374a:	f7fc ff81 	bl	10000650 <strcmp>
1000374e:	b920      	cbnz	r0, 1000375a <_sys_open+0x6e>
10003750:	e7ff      	b.n	10003752 <_sys_open+0x66>
10003752:	f248 0003 	movw	r0, #32771	; 0x8003
10003756:	9003      	str	r0, [sp, #12]
10003758:	e007      	b.n	1000376a <_sys_open+0x7e>
1000375a:	f04f 30ff 	mov.w	r0, #4294967295	; 0xffffffff
1000375e:	9003      	str	r0, [sp, #12]
10003760:	e003      	b.n	1000376a <_sys_open+0x7e>
10003762:	f04f 30ff 	mov.w	r0, #4294967295	; 0xffffffff
10003766:	9003      	str	r0, [sp, #12]
10003768:	e7ff      	b.n	1000376a <_sys_open+0x7e>
1000376a:	9803      	ldr	r0, [sp, #12]
1000376c:	b004      	add	sp, #16
1000376e:	bd80      	pop	{r7, pc}

10003770 <_sys_seek>:
10003770:	b084      	sub	sp, #16
10003772:	9002      	str	r0, [sp, #8]
10003774:	9101      	str	r1, [sp, #4]
10003776:	9802      	ldr	r0, [sp, #8]
10003778:	9000      	str	r0, [sp, #0]
1000377a:	f248 0101 	movw	r1, #32769	; 0x8001
1000377e:	4288      	cmp	r0, r1
10003780:	d00c      	beq.n	1000379c <_sys_seek+0x2c>
10003782:	e7ff      	b.n	10003784 <_sys_seek+0x14>
10003784:	9800      	ldr	r0, [sp, #0]
10003786:	f248 0102 	movw	r1, #32770	; 0x8002
1000378a:	4288      	cmp	r0, r1
1000378c:	d00a      	beq.n	100037a4 <_sys_seek+0x34>
1000378e:	e7ff      	b.n	10003790 <_sys_seek+0x20>
10003790:	9800      	ldr	r0, [sp, #0]
10003792:	f248 0103 	movw	r1, #32771	; 0x8003
10003796:	4288      	cmp	r0, r1
10003798:	d008      	beq.n	100037ac <_sys_seek+0x3c>
1000379a:	e00b      	b.n	100037b4 <_sys_seek+0x44>
1000379c:	f04f 30ff 	mov.w	r0, #4294967295	; 0xffffffff
100037a0:	9003      	str	r0, [sp, #12]
100037a2:	e00b      	b.n	100037bc <_sys_seek+0x4c>
100037a4:	f04f 30ff 	mov.w	r0, #4294967295	; 0xffffffff
100037a8:	9003      	str	r0, [sp, #12]
100037aa:	e007      	b.n	100037bc <_sys_seek+0x4c>
100037ac:	f04f 30ff 	mov.w	r0, #4294967295	; 0xffffffff
100037b0:	9003      	str	r0, [sp, #12]
100037b2:	e003      	b.n	100037bc <_sys_seek+0x4c>
100037b4:	f04f 30ff 	mov.w	r0, #4294967295	; 0xffffffff
100037b8:	9003      	str	r0, [sp, #12]
100037ba:	e7ff      	b.n	100037bc <_sys_seek+0x4c>
100037bc:	9803      	ldr	r0, [sp, #12]
100037be:	b004      	add	sp, #16
100037c0:	4770      	bx	lr
	...

100037c4 <_sys_write>:
100037c4:	b580      	push	{r7, lr}
100037c6:	b088      	sub	sp, #32
100037c8:	9006      	str	r0, [sp, #24]
100037ca:	9105      	str	r1, [sp, #20]
100037cc:	9204      	str	r2, [sp, #16]
100037ce:	9303      	str	r3, [sp, #12]
100037d0:	9806      	ldr	r0, [sp, #24]
100037d2:	9001      	str	r0, [sp, #4]
100037d4:	f248 0101 	movw	r1, #32769	; 0x8001
100037d8:	4288      	cmp	r0, r1
100037da:	d00c      	beq.n	100037f6 <_sys_write+0x32>
100037dc:	e7ff      	b.n	100037de <_sys_write+0x1a>
100037de:	9801      	ldr	r0, [sp, #4]
100037e0:	f248 0102 	movw	r1, #32770	; 0x8002
100037e4:	4288      	cmp	r0, r1
100037e6:	d00a      	beq.n	100037fe <_sys_write+0x3a>
100037e8:	e7ff      	b.n	100037ea <_sys_write+0x26>
100037ea:	9801      	ldr	r0, [sp, #4]
100037ec:	f248 0103 	movw	r1, #32771	; 0x8003
100037f0:	4288      	cmp	r0, r1
100037f2:	d018      	beq.n	10003826 <_sys_write+0x62>
100037f4:	e01a      	b.n	1000382c <_sys_write+0x68>
100037f6:	f04f 30ff 	mov.w	r0, #4294967295	; 0xffffffff
100037fa:	9007      	str	r0, [sp, #28]
100037fc:	e01a      	b.n	10003834 <_sys_write+0x70>
100037fe:	e7ff      	b.n	10003800 <_sys_write+0x3c>
10003800:	9804      	ldr	r0, [sp, #16]
10003802:	b168      	cbz	r0, 10003820 <_sys_write+0x5c>
10003804:	e7ff      	b.n	10003806 <_sys_write+0x42>
10003806:	9805      	ldr	r0, [sp, #20]
10003808:	1c41      	adds	r1, r0, #1
1000380a:	9105      	str	r1, [sp, #20]
1000380c:	7800      	ldrb	r0, [r0, #0]
1000380e:	9002      	str	r0, [sp, #8]
10003810:	9802      	ldr	r0, [sp, #8]
10003812:	f000 fb75 	bl	10003f00 <stdout_putchar>
10003816:	e7ff      	b.n	10003818 <_sys_write+0x54>
10003818:	9804      	ldr	r0, [sp, #16]
1000381a:	3801      	subs	r0, #1
1000381c:	9004      	str	r0, [sp, #16]
1000381e:	e7ef      	b.n	10003800 <_sys_write+0x3c>
10003820:	2000      	movs	r0, #0
10003822:	9007      	str	r0, [sp, #28]
10003824:	e006      	b.n	10003834 <_sys_write+0x70>
10003826:	2000      	movs	r0, #0
10003828:	9007      	str	r0, [sp, #28]
1000382a:	e003      	b.n	10003834 <_sys_write+0x70>
1000382c:	f04f 30ff 	mov.w	r0, #4294967295	; 0xffffffff
10003830:	9007      	str	r0, [sp, #28]
10003832:	e7ff      	b.n	10003834 <_sys_write+0x70>
10003834:	9807      	ldr	r0, [sp, #28]
10003836:	b008      	add	sp, #32
10003838:	bd80      	pop	{r7, pc}
	...

1000383c <delay_ms>:
1000383c:	b081      	sub	sp, #4
1000383e:	9000      	str	r0, [sp, #0]
10003840:	f240 001c 	movw	r0, #28
10003844:	f6c3 0000 	movt	r0, #14336	; 0x3800
10003848:	6800      	ldr	r0, [r0, #0]
1000384a:	f644 51d3 	movw	r1, #19923	; 0x4dd3
1000384e:	f2c1 0162 	movt	r1, #4194	; 0x1062
10003852:	fba0 1001 	umull	r1, r0, r0, r1
10003856:	0981      	lsrs	r1, r0, #6
10003858:	9800      	ldr	r0, [sp, #0]
1000385a:	fb00 f001 	mul.w	r0, r0, r1
1000385e:	9000      	str	r0, [sp, #0]
10003860:	e7ff      	b.n	10003862 <delay_ms+0x26>
10003862:	9800      	ldr	r0, [sp, #0]
10003864:	1e41      	subs	r1, r0, #1
10003866:	9100      	str	r1, [sp, #0]
10003868:	b110      	cbz	r0, 10003870 <delay_ms+0x34>
1000386a:	e7ff      	b.n	1000386c <delay_ms+0x30>
1000386c:	bf00      	nop
1000386e:	e7f8      	b.n	10003862 <delay_ms+0x26>
10003870:	b001      	add	sp, #4
10003872:	4770      	bx	lr

10003874 <eCFA_init_cfa>:
10003874:	b580      	push	{r7, lr}
10003876:	b084      	sub	sp, #16
10003878:	9002      	str	r0, [sp, #8]
1000387a:	f246 307f 	movw	r0, #25471	; 0x637f
1000387e:	f2c1 0000 	movt	r0, #4096	; 0x1000
10003882:	f7fc fe85 	bl	10000590 <printf>
10003886:	9902      	ldr	r1, [sp, #8]
10003888:	2001      	movs	r0, #1
1000388a:	7008      	strb	r0, [r1, #0]
1000388c:	9802      	ldr	r0, [sp, #8]
1000388e:	3008      	adds	r0, #8
10003890:	f240 11d4 	movw	r1, #468	; 0x1d4
10003894:	f6c3 0100 	movt	r1, #14336	; 0x3800
10003898:	3108      	adds	r1, #8
1000389a:	2270      	movs	r2, #112	; 0x70
1000389c:	f7fc fe84 	bl	100005a8 <memcmp>
100038a0:	b130      	cbz	r0, 100038b0 <eCFA_init_cfa+0x3c>
100038a2:	e7ff      	b.n	100038a4 <eCFA_init_cfa+0x30>
100038a4:	9902      	ldr	r1, [sp, #8]
100038a6:	2065      	movs	r0, #101	; 0x65
100038a8:	7008      	strb	r0, [r1, #0]
100038aa:	f88d 000f 	strb.w	r0, [sp, #15]
100038ae:	e053      	b.n	10003958 <eCFA_init_cfa+0xe4>
100038b0:	9802      	ldr	r0, [sp, #8]
100038b2:	f640 0164 	movw	r1, #2148	; 0x864
100038b6:	f7fc fea3 	bl	10000600 <__aeabi_memclr4>
100038ba:	f000 f9bd 	bl	10003c38 <mtb_init>
100038be:	f240 10c0 	movw	r0, #448	; 0x1c0
100038c2:	f6c3 0000 	movt	r0, #14336	; 0x3800
100038c6:	9000      	str	r0, [sp, #0]
100038c8:	6801      	ldr	r1, [r0, #0]
100038ca:	f246 30de 	movw	r0, #25566	; 0x63de
100038ce:	f2c1 0000 	movt	r0, #4096	; 0x1000
100038d2:	f7fc fe5d 	bl	10000590 <printf>
100038d6:	9800      	ldr	r0, [sp, #0]
100038d8:	6800      	ldr	r0, [r0, #0]
100038da:	e92d 0ff0 	stmdb	sp!, {r4, r5, r6, r7, r8, r9, sl, fp}
100038de:	f020 0001 	bic.w	r0, r0, #1
100038e2:	b0a2      	sub	sp, #136	; 0x88
100038e4:	ec2d 0a00 	vlstm	sp
100038e8:	4601      	mov	r1, r0
100038ea:	4602      	mov	r2, r0
100038ec:	4603      	mov	r3, r0
100038ee:	4604      	mov	r4, r0
100038f0:	4605      	mov	r5, r0
100038f2:	4606      	mov	r6, r0
100038f4:	4607      	mov	r7, r0
100038f6:	4680      	mov	r8, r0
100038f8:	4681      	mov	r9, r0
100038fa:	4682      	mov	sl, r0
100038fc:	4683      	mov	fp, r0
100038fe:	4684      	mov	ip, r0
10003900:	f380 8c00 	msr	CPSR_fs, r0
10003904:	4784      	blxns	r0
10003906:	f3ef 8c14 	mrs	ip, CONTROL
1000390a:	f01c 0f08 	tst.w	ip, #8
1000390e:	bf18      	it	ne
10003910:	eeb0 0a40 	vmovne.f32	s0, s0
10003914:	ec3d 0a00 	vlldm	sp
10003918:	b022      	add	sp, #136	; 0x88
1000391a:	e8bd 0ff0 	ldmia.w	sp!, {r4, r5, r6, r7, r8, r9, sl, fp}
1000391e:	f246 3099 	movw	r0, #25497	; 0x6399
10003922:	f2c1 0000 	movt	r0, #4096	; 0x1000
10003926:	f7fc fe33 	bl	10000590 <printf>
1000392a:	f7ff fdfb 	bl	10003524 <__debug_MTB_Registers>
1000392e:	f7ff fda3 	bl	10003478 <__debug_DWT_Registers>
10003932:	9902      	ldr	r1, [sp, #8]
10003934:	f04f 0002 	mov.w	r0, #2
10003938:	9001      	str	r0, [sp, #4]
1000393a:	7008      	strb	r0, [r1, #0]
1000393c:	f000 fb06 	bl	10003f4c <vMTB_sendBuffer>
10003940:	f000 f94a 	bl	10003bd8 <mtb_exit>
10003944:	f246 30c6 	movw	r0, #25542	; 0x63c6
10003948:	f2c1 0000 	movt	r0, #4096	; 0x1000
1000394c:	f7fc fe20 	bl	10000590 <printf>
10003950:	9801      	ldr	r0, [sp, #4]
10003952:	f88d 000f 	strb.w	r0, [sp, #15]
10003956:	e7ff      	b.n	10003958 <eCFA_init_cfa+0xe4>
10003958:	f89d 000f 	ldrb.w	r0, [sp, #15]
1000395c:	b004      	add	sp, #16
1000395e:	bd80      	pop	{r7, pc}

10003960 <main>:
10003960:	b580      	push	{r7, lr}
10003962:	b090      	sub	sp, #64	; 0x40
10003964:	2000      	movs	r0, #0
10003966:	9001      	str	r0, [sp, #4]
10003968:	9009      	str	r0, [sp, #36]	; 0x24
1000396a:	f44f 1000 	mov.w	r0, #2097152	; 0x200000
1000396e:	6800      	ldr	r0, [r0, #0]
10003970:	9008      	str	r0, [sp, #32]
10003972:	2004      	movs	r0, #4
10003974:	f2c0 0020 	movt	r0, #32
10003978:	6800      	ldr	r0, [r0, #0]
1000397a:	9007      	str	r0, [sp, #28]
1000397c:	f7fe fe66 	bl	1000264c <SCB_GetFPUType>
10003980:	9006      	str	r0, [sp, #24]
10003982:	f644 60a5 	movw	r0, #20133	; 0x4ea5
10003986:	f2c4 1047 	movt	r0, #16711	; 0x4147
1000398a:	9005      	str	r0, [sp, #20]
1000398c:	f64e 6095 	movw	r0, #61077	; 0xee95
10003990:	f6c3 7029 	movt	r0, #16169	; 0x3f29
10003994:	9004      	str	r0, [sp, #16]
10003996:	f24e 308f 	movw	r0, #58255	; 0xe38f
1000399a:	f2c4 10c0 	movt	r0, #16832	; 0x41c0
1000399e:	9003      	str	r0, [sp, #12]
100039a0:	ed9d 0a03 	vldr	s0, [sp, #12]
100039a4:	ed9d 1a05 	vldr	s2, [sp, #20]
100039a8:	ed9d 2a04 	vldr	s4, [sp, #16]
100039ac:	ee81 1a02 	vdiv.f32	s2, s2, s4
100039b0:	ee20 0a01 	vmul.f32	s0, s0, s2
100039b4:	ed8d 0a03 	vstr	s0, [sp, #12]
100039b8:	f3ef 8008 	mrs	r0, MSP
100039bc:	900a      	str	r0, [sp, #40]	; 0x28
100039be:	980a      	ldr	r0, [sp, #40]	; 0x28
100039c0:	f640 2138 	movw	r1, #2616	; 0xa38
100039c4:	f6c3 0100 	movt	r1, #14336	; 0x3800
100039c8:	6008      	str	r0, [r1, #0]
100039ca:	f3ef 8009 	mrs	r0, PSP
100039ce:	900b      	str	r0, [sp, #44]	; 0x2c
100039d0:	980b      	ldr	r0, [sp, #44]	; 0x2c
100039d2:	6008      	str	r0, [r1, #0]
100039d4:	9808      	ldr	r0, [sp, #32]
100039d6:	900c      	str	r0, [sp, #48]	; 0x30
100039d8:	980c      	ldr	r0, [sp, #48]	; 0x30
100039da:	f380 8888 	msr	MSP_NS, r0
100039de:	f3ef 8088 	mrs	r0, MSP_NS
100039e2:	900d      	str	r0, [sp, #52]	; 0x34
100039e4:	980d      	ldr	r0, [sp, #52]	; 0x34
100039e6:	6008      	str	r0, [r1, #0]
100039e8:	f04f 5008 	mov.w	r0, #570425344	; 0x22000000
100039ec:	900e      	str	r0, [sp, #56]	; 0x38
100039ee:	980e      	ldr	r0, [sp, #56]	; 0x38
100039f0:	f380 8889 	msr	PSP_NS, r0
100039f4:	f3ef 8089 	mrs	r0, PSP_NS
100039f8:	900f      	str	r0, [sp, #60]	; 0x3c
100039fa:	980f      	ldr	r0, [sp, #60]	; 0x3c
100039fc:	6008      	str	r0, [r1, #0]
100039fe:	f7ff f81b 	bl	10002a38 <SystemCoreClockUpdate>
10003a02:	f000 fa35 	bl	10003e70 <stdout_init>
10003a06:	f7fe fdcd 	bl	100025a4 <LED_Initialize>
10003a0a:	f7fe fbfb 	bl	10002204 <GLCD_Initialize>
10003a0e:	f645 7070 	movw	r0, #24432	; 0x5f70
10003a12:	f2c1 0000 	movt	r0, #4096	; 0x1000
10003a16:	f7fe fd69 	bl	100024ec <GLCD_SetFont>
10003a1a:	f64f 70ff 	movw	r0, #65535	; 0xffff
10003a1e:	9000      	str	r0, [sp, #0]
10003a20:	f7fe fd58 	bl	100024d4 <GLCD_SetBackgroundColor>
10003a24:	f7fe fb12 	bl	1000204c <GLCD_ClearScreen>
10003a28:	201f      	movs	r0, #31
10003a2a:	f7fe fd53 	bl	100024d4 <GLCD_SetBackgroundColor>
10003a2e:	f44f 4078 	mov.w	r0, #63488	; 0xf800
10003a32:	f7fe fd67 	bl	10002504 <GLCD_SetForegroundColor>
10003a36:	9901      	ldr	r1, [sp, #4]
10003a38:	f645 72f2 	movw	r2, #24562	; 0x5ff2
10003a3c:	f2c1 0200 	movt	r2, #4096	; 0x1000
10003a40:	4608      	mov	r0, r1
10003a42:	f7fe fbbf 	bl	100021c4 <GLCD_DrawString>
10003a46:	9801      	ldr	r0, [sp, #4]
10003a48:	f246 021c 	movw	r2, #24604	; 0x601c
10003a4c:	f2c1 0200 	movt	r2, #4096	; 0x1000
10003a50:	2118      	movs	r1, #24
10003a52:	f7fe fbb7 	bl	100021c4 <GLCD_DrawString>
10003a56:	9801      	ldr	r0, [sp, #4]
10003a58:	f645 72dd 	movw	r2, #24541	; 0x5fdd
10003a5c:	f2c1 0200 	movt	r2, #4096	; 0x1000
10003a60:	2130      	movs	r1, #48	; 0x30
10003a62:	f7fe fbaf 	bl	100021c4 <GLCD_DrawString>
10003a66:	9800      	ldr	r0, [sp, #0]
10003a68:	f7fe fd34 	bl	100024d4 <GLCD_SetBackgroundColor>
10003a6c:	9801      	ldr	r0, [sp, #4]
10003a6e:	f7fe fd49 	bl	10002504 <GLCD_SetForegroundColor>
10003a72:	f64e 5000 	movw	r0, #60672	; 0xed00
10003a76:	f2ce 0000 	movt	r0, #57344	; 0xe000
10003a7a:	6800      	ldr	r0, [r0, #0]
10003a7c:	f3c0 100b 	ubfx	r0, r0, #4, #12
10003a80:	4601      	mov	r1, r0
10003a82:	9102      	str	r1, [sp, #8]
10003a84:	f5b0 6f52 	cmp.w	r0, #3360	; 0xd20
10003a88:	d006      	beq.n	10003a98 <main+0x138>
10003a8a:	e7ff      	b.n	10003a8c <main+0x12c>
10003a8c:	9802      	ldr	r0, [sp, #8]
10003a8e:	f640 5121 	movw	r1, #3361	; 0xd21
10003a92:	4288      	cmp	r0, r1
10003a94:	d009      	beq.n	10003aaa <main+0x14a>
10003a96:	e011      	b.n	10003abc <main+0x15c>
10003a98:	f645 72b3 	movw	r2, #24499	; 0x5fb3
10003a9c:	f2c1 0200 	movt	r2, #4096	; 0x1000
10003aa0:	2000      	movs	r0, #0
10003aa2:	2160      	movs	r1, #96	; 0x60
10003aa4:	f7fe fb8e 	bl	100021c4 <GLCD_DrawString>
10003aa8:	e011      	b.n	10003ace <main+0x16e>
10003aaa:	f645 72c8 	movw	r2, #24520	; 0x5fc8
10003aae:	f2c1 0200 	movt	r2, #4096	; 0x1000
10003ab2:	2000      	movs	r0, #0
10003ab4:	2160      	movs	r1, #96	; 0x60
10003ab6:	f7fe fb85 	bl	100021c4 <GLCD_DrawString>
10003aba:	e008      	b.n	10003ace <main+0x16e>
10003abc:	f246 0207 	movw	r2, #24583	; 0x6007
10003ac0:	f2c1 0200 	movt	r2, #4096	; 0x1000
10003ac4:	2000      	movs	r0, #0
10003ac6:	2160      	movs	r1, #96	; 0x60
10003ac8:	f7fe fb7c 	bl	100021c4 <GLCD_DrawString>
10003acc:	e7ff      	b.n	10003ace <main+0x16e>
10003ace:	f000 f9cf 	bl	10003e70 <stdout_init>
10003ad2:	f240 001c 	movw	r0, #28
10003ad6:	f6c3 0000 	movt	r0, #14336	; 0x3800
10003ada:	6800      	ldr	r0, [r0, #0]
10003adc:	f248 511f 	movw	r1, #34079	; 0x851f
10003ae0:	f2c5 11eb 	movt	r1, #20971	; 0x51eb
10003ae4:	fba0 1001 	umull	r1, r0, r0, r1
10003ae8:	0940      	lsrs	r0, r0, #5
10003aea:	f7fe ff73 	bl	100029d4 <SysTick_Config>
10003aee:	9807      	ldr	r0, [sp, #28]
10003af0:	e92d 0ff0 	stmdb	sp!, {r4, r5, r6, r7, r8, r9, sl, fp}
10003af4:	f020 0001 	bic.w	r0, r0, #1
10003af8:	b0a2      	sub	sp, #136	; 0x88
10003afa:	ec2d 0a00 	vlstm	sp
10003afe:	4601      	mov	r1, r0
10003b00:	4602      	mov	r2, r0
10003b02:	4603      	mov	r3, r0
10003b04:	4604      	mov	r4, r0
10003b06:	4605      	mov	r5, r0
10003b08:	4606      	mov	r6, r0
10003b0a:	4607      	mov	r7, r0
10003b0c:	4680      	mov	r8, r0
10003b0e:	4681      	mov	r9, r0
10003b10:	4682      	mov	sl, r0
10003b12:	4683      	mov	fp, r0
10003b14:	4684      	mov	ip, r0
10003b16:	f380 8c00 	msr	CPSR_fs, r0
10003b1a:	4784      	blxns	r0
10003b1c:	f3ef 8c14 	mrs	ip, CONTROL
10003b20:	f01c 0f08 	tst.w	ip, #8
10003b24:	bf18      	it	ne
10003b26:	eeb0 0a40 	vmovne.f32	s0, s0
10003b2a:	ec3d 0a00 	vlldm	sp
10003b2e:	b022      	add	sp, #136	; 0x88
10003b30:	e8bd 0ff0 	ldmia.w	sp!, {r4, r5, r6, r7, r8, r9, sl, fp}
10003b34:	9809      	ldr	r0, [sp, #36]	; 0x24
10003b36:	b010      	add	sp, #64	; 0x40
10003b38:	bd80      	pop	{r7, pc}
	...

10003b3c <mtb_cleanMTB>:
10003b3c:	b082      	sub	sp, #8
10003b3e:	f240 0034 	movw	r0, #52	; 0x34
10003b42:	f6c3 0000 	movt	r0, #14336	; 0x3800
10003b46:	6800      	ldr	r0, [r0, #0]
10003b48:	68c0      	ldr	r0, [r0, #12]
10003b4a:	9001      	str	r0, [sp, #4]
10003b4c:	2000      	movs	r0, #0
10003b4e:	9000      	str	r0, [sp, #0]
10003b50:	e7ff      	b.n	10003b52 <mtb_cleanMTB+0x16>
10003b52:	9800      	ldr	r0, [sp, #0]
10003b54:	f5b0 6f80 	cmp.w	r0, #1024	; 0x400
10003b58:	da0a      	bge.n	10003b70 <mtb_cleanMTB+0x34>
10003b5a:	e7ff      	b.n	10003b5c <mtb_cleanMTB+0x20>
10003b5c:	9901      	ldr	r1, [sp, #4]
10003b5e:	9a00      	ldr	r2, [sp, #0]
10003b60:	2000      	movs	r0, #0
10003b62:	f841 0022 	str.w	r0, [r1, r2, lsl #2]
10003b66:	e7ff      	b.n	10003b68 <mtb_cleanMTB+0x2c>
10003b68:	9800      	ldr	r0, [sp, #0]
10003b6a:	3001      	adds	r0, #1
10003b6c:	9000      	str	r0, [sp, #0]
10003b6e:	e7f0      	b.n	10003b52 <mtb_cleanMTB+0x16>
10003b70:	b002      	add	sp, #8
10003b72:	4770      	bx	lr

10003b74 <mtb_config_interrupthandlers>:
10003b74:	b580      	push	{r7, lr}
10003b76:	b082      	sub	sp, #8
10003b78:	f64e 5008 	movw	r0, #60680	; 0xed08
10003b7c:	f2ce 0000 	movt	r0, #57344	; 0xe000
10003b80:	6800      	ldr	r0, [r0, #0]
10003b82:	9001      	str	r0, [sp, #4]
10003b84:	9901      	ldr	r1, [sp, #4]
10003b86:	f643 30a1 	movw	r0, #15265	; 0x3ba1
10003b8a:	f2c1 0000 	movt	r0, #4096	; 0x1000
10003b8e:	6308      	str	r0, [r1, #48]	; 0x30
10003b90:	f06f 0003 	mvn.w	r0, #3
10003b94:	2107      	movs	r1, #7
10003b96:	f7ff fc4d 	bl	10003434 <__NVIC_SetPriority>
10003b9a:	b002      	add	sp, #8
10003b9c:	bd80      	pop	{r7, pc}
	...

10003ba0 <mtb_debugMonitorHandler>:
10003ba0:	b580      	push	{r7, lr}
10003ba2:	b082      	sub	sp, #8
10003ba4:	f246 008f 	movw	r0, #24719	; 0x608f
10003ba8:	f2c1 0000 	movt	r0, #4096	; 0x1000
10003bac:	f7fc fcf0 	bl	10000590 <printf>
10003bb0:	f240 0034 	movw	r0, #52	; 0x34
10003bb4:	f6c3 0000 	movt	r0, #14336	; 0x3800
10003bb8:	9001      	str	r0, [sp, #4]
10003bba:	6801      	ldr	r1, [r0, #0]
10003bbc:	6848      	ldr	r0, [r1, #4]
10003bbe:	f420 7000 	bic.w	r0, r0, #512	; 0x200
10003bc2:	6048      	str	r0, [r1, #4]
10003bc4:	f000 f9c2 	bl	10003f4c <vMTB_sendBuffer>
10003bc8:	9801      	ldr	r0, [sp, #4]
10003bca:	6801      	ldr	r1, [r0, #0]
10003bcc:	2000      	movs	r0, #0
10003bce:	6008      	str	r0, [r1, #0]
10003bd0:	b002      	add	sp, #8
10003bd2:	bd80      	pop	{r7, pc}

10003bd4 <mtb_debugMonitorHandlerEmpty>:
10003bd4:	e7ff      	b.n	10003bd6 <mtb_debugMonitorHandlerEmpty+0x2>
10003bd6:	e7fe      	b.n	10003bd6 <mtb_debugMonitorHandlerEmpty+0x2>

10003bd8 <mtb_exit>:
10003bd8:	b580      	push	{r7, lr}
10003bda:	b672      	cpsid	i
10003bdc:	f7ff ffae 	bl	10003b3c <mtb_cleanMTB>
10003be0:	f000 f84a 	bl	10003c78 <mtb_remove_debugMonitor>
10003be4:	f240 0034 	movw	r0, #52	; 0x34
10003be8:	f6c3 0000 	movt	r0, #14336	; 0x3800
10003bec:	6802      	ldr	r2, [r0, #0]
10003bee:	6851      	ldr	r1, [r2, #4]
10003bf0:	f021 0120 	bic.w	r1, r1, #32
10003bf4:	6051      	str	r1, [r2, #4]
10003bf6:	6802      	ldr	r2, [r0, #0]
10003bf8:	6851      	ldr	r1, [r2, #4]
10003bfa:	f421 7100 	bic.w	r1, r1, #512	; 0x200
10003bfe:	6051      	str	r1, [r2, #4]
10003c00:	6801      	ldr	r1, [r0, #0]
10003c02:	6848      	ldr	r0, [r1, #4]
10003c04:	f020 4000 	bic.w	r0, r0, #2147483648	; 0x80000000
10003c08:	6048      	str	r0, [r1, #4]
10003c0a:	f240 0110 	movw	r1, #16
10003c0e:	f6c3 0100 	movt	r1, #14336	; 0x3800
10003c12:	680a      	ldr	r2, [r1, #0]
10003c14:	2000      	movs	r0, #0
10003c16:	6210      	str	r0, [r2, #32]
10003c18:	680a      	ldr	r2, [r1, #0]
10003c1a:	6310      	str	r0, [r2, #48]	; 0x30
10003c1c:	680a      	ldr	r2, [r1, #0]
10003c1e:	6410      	str	r0, [r2, #64]	; 0x40
10003c20:	680a      	ldr	r2, [r1, #0]
10003c22:	6510      	str	r0, [r2, #80]	; 0x50
10003c24:	680a      	ldr	r2, [r1, #0]
10003c26:	6290      	str	r0, [r2, #40]	; 0x28
10003c28:	680a      	ldr	r2, [r1, #0]
10003c2a:	6390      	str	r0, [r2, #56]	; 0x38
10003c2c:	680a      	ldr	r2, [r1, #0]
10003c2e:	6490      	str	r0, [r2, #72]	; 0x48
10003c30:	6809      	ldr	r1, [r1, #0]
10003c32:	6588      	str	r0, [r1, #88]	; 0x58
10003c34:	b662      	cpsie	i
10003c36:	bd80      	pop	{r7, pc}

10003c38 <mtb_init>:
10003c38:	b580      	push	{r7, lr}
10003c3a:	f240 11c8 	movw	r1, #456	; 0x1c8
10003c3e:	f6c3 0100 	movt	r1, #14336	; 0x3800
10003c42:	2000      	movs	r0, #0
10003c44:	6008      	str	r0, [r1, #0]
10003c46:	f246 0047 	movw	r0, #24647	; 0x6047
10003c4a:	f2c1 0000 	movt	r0, #4096	; 0x1000
10003c4e:	f7fc fc9f 	bl	10000590 <printf>
10003c52:	f000 f821 	bl	10003c98 <mtb_setup_DWT>
10003c56:	f246 0031 	movw	r0, #24625	; 0x6031
10003c5a:	f2c1 0000 	movt	r0, #4096	; 0x1000
10003c5e:	f7fc fc97 	bl	10000590 <printf>
10003c62:	f000 f8bd 	bl	10003de0 <mtb_setup_MTB>
10003c66:	f246 00ac 	movw	r0, #24748	; 0x60ac
10003c6a:	f2c1 0000 	movt	r0, #4096	; 0x1000
10003c6e:	f7fc fc8f 	bl	10000590 <printf>
10003c72:	f7ff ff7f 	bl	10003b74 <mtb_config_interrupthandlers>
10003c76:	bd80      	pop	{r7, pc}

10003c78 <mtb_remove_debugMonitor>:
10003c78:	b081      	sub	sp, #4
10003c7a:	f240 0018 	movw	r0, #24
10003c7e:	f6c3 0000 	movt	r0, #14336	; 0x3800
10003c82:	6800      	ldr	r0, [r0, #0]
10003c84:	6880      	ldr	r0, [r0, #8]
10003c86:	9000      	str	r0, [sp, #0]
10003c88:	9900      	ldr	r1, [sp, #0]
10003c8a:	f643 30d5 	movw	r0, #15317	; 0x3bd5
10003c8e:	f2c1 0000 	movt	r0, #4096	; 0x1000
10003c92:	6308      	str	r0, [r1, #48]	; 0x30
10003c94:	b001      	add	sp, #4
10003c96:	4770      	bx	lr

10003c98 <mtb_setup_DWT>:
10003c98:	b580      	push	{r7, lr}
10003c9a:	b082      	sub	sp, #8
10003c9c:	f240 000c 	movw	r0, #12
10003ca0:	f6c3 0000 	movt	r0, #14336	; 0x3800
10003ca4:	9001      	str	r0, [sp, #4]
10003ca6:	6802      	ldr	r2, [r0, #0]
10003ca8:	68d1      	ldr	r1, [r2, #12]
10003caa:	2300      	movs	r3, #0
10003cac:	f2c0 1301 	movt	r3, #257	; 0x101
10003cb0:	4319      	orrs	r1, r3
10003cb2:	60d1      	str	r1, [r2, #12]
10003cb4:	f240 0114 	movw	r1, #20
10003cb8:	f6c3 0100 	movt	r1, #14336	; 0x3800
10003cbc:	680a      	ldr	r2, [r1, #0]
10003cbe:	f8d2 1e80 	ldr.w	r1, [r2, #3712]	; 0xe80
10003cc2:	f041 0109 	orr.w	r1, r1, #9
10003cc6:	f8c2 1e80 	str.w	r1, [r2, #3712]	; 0xe80
10003cca:	f240 0110 	movw	r1, #16
10003cce:	f6c3 0100 	movt	r1, #14336	; 0x3800
10003cd2:	680b      	ldr	r3, [r1, #0]
10003cd4:	f44f 1260 	mov.w	r2, #3670016	; 0x380000
10003cd8:	621a      	str	r2, [r3, #32]
10003cda:	f241 0320 	movw	r3, #4128	; 0x1020
10003cde:	f2ce 0300 	movt	r3, #57344	; 0xe000
10003ce2:	681a      	ldr	r2, [r3, #0]
10003ce4:	f022 0201 	bic.w	r2, r2, #1
10003ce8:	601a      	str	r2, [r3, #0]
10003cea:	680b      	ldr	r3, [r1, #0]
10003cec:	f44f 0280 	mov.w	r2, #4194304	; 0x400000
10003cf0:	631a      	str	r2, [r3, #48]	; 0x30
10003cf2:	f241 0330 	movw	r3, #4144	; 0x1030
10003cf6:	f2ce 0300 	movt	r3, #57344	; 0xe000
10003cfa:	681a      	ldr	r2, [r3, #0]
10003cfc:	f022 0201 	bic.w	r2, r2, #1
10003d00:	601a      	str	r2, [r3, #0]
10003d02:	680b      	ldr	r3, [r1, #0]
10003d04:	f44f 1240 	mov.w	r2, #3145728	; 0x300000
10003d08:	641a      	str	r2, [r3, #64]	; 0x40
10003d0a:	f241 0340 	movw	r3, #4160	; 0x1040
10003d0e:	f2ce 0300 	movt	r3, #57344	; 0xe000
10003d12:	681a      	ldr	r2, [r3, #0]
10003d14:	f022 0201 	bic.w	r2, r2, #1
10003d18:	601a      	str	r2, [r3, #0]
10003d1a:	680a      	ldr	r2, [r1, #0]
10003d1c:	f44f 1158 	mov.w	r1, #3538944	; 0x360000
10003d20:	6511      	str	r1, [r2, #80]	; 0x50
10003d22:	f241 0250 	movw	r2, #4176	; 0x1050
10003d26:	f2ce 0200 	movt	r2, #57344	; 0xe000
10003d2a:	6811      	ldr	r1, [r2, #0]
10003d2c:	f021 0101 	bic.w	r1, r1, #1
10003d30:	6011      	str	r1, [r2, #0]
10003d32:	f241 0228 	movw	r2, #4136	; 0x1028
10003d36:	f2ce 0200 	movt	r2, #57344	; 0xe000
10003d3a:	6811      	ldr	r1, [r2, #0]
10003d3c:	f421 6140 	bic.w	r1, r1, #3072	; 0xc00
10003d40:	6011      	str	r1, [r2, #0]
10003d42:	6811      	ldr	r1, [r2, #0]
10003d44:	f021 0130 	bic.w	r1, r1, #48	; 0x30
10003d48:	6011      	str	r1, [r2, #0]
10003d4a:	6811      	ldr	r1, [r2, #0]
10003d4c:	f04f 0c02 	mov.w	ip, #2
10003d50:	f36c 0103 	bfi	r1, ip, #0, #4
10003d54:	6011      	str	r1, [r2, #0]
10003d56:	f241 0238 	movw	r2, #4152	; 0x1038
10003d5a:	f2ce 0200 	movt	r2, #57344	; 0xe000
10003d5e:	6811      	ldr	r1, [r2, #0]
10003d60:	f421 6140 	bic.w	r1, r1, #3072	; 0xc00
10003d64:	6011      	str	r1, [r2, #0]
10003d66:	6811      	ldr	r1, [r2, #0]
10003d68:	f041 0130 	orr.w	r1, r1, #48	; 0x30
10003d6c:	6011      	str	r1, [r2, #0]
10003d6e:	6811      	ldr	r1, [r2, #0]
10003d70:	2303      	movs	r3, #3
10003d72:	f363 0103 	bfi	r1, r3, #0, #4
10003d76:	6011      	str	r1, [r2, #0]
10003d78:	f241 0248 	movw	r2, #4168	; 0x1048
10003d7c:	f2ce 0200 	movt	r2, #57344	; 0xe000
10003d80:	6811      	ldr	r1, [r2, #0]
10003d82:	f421 6140 	bic.w	r1, r1, #3072	; 0xc00
10003d86:	6011      	str	r1, [r2, #0]
10003d88:	6811      	ldr	r1, [r2, #0]
10003d8a:	f021 0130 	bic.w	r1, r1, #48	; 0x30
10003d8e:	6011      	str	r1, [r2, #0]
10003d90:	6811      	ldr	r1, [r2, #0]
10003d92:	f36c 0103 	bfi	r1, ip, #0, #4
10003d96:	6011      	str	r1, [r2, #0]
10003d98:	f241 0258 	movw	r2, #4184	; 0x1058
10003d9c:	f2ce 0200 	movt	r2, #57344	; 0xe000
10003da0:	6811      	ldr	r1, [r2, #0]
10003da2:	f421 6140 	bic.w	r1, r1, #3072	; 0xc00
10003da6:	6011      	str	r1, [r2, #0]
10003da8:	6811      	ldr	r1, [r2, #0]
10003daa:	f041 0130 	orr.w	r1, r1, #48	; 0x30
10003dae:	6011      	str	r1, [r2, #0]
10003db0:	6811      	ldr	r1, [r2, #0]
10003db2:	f363 0103 	bfi	r1, r3, #0, #4
10003db6:	6011      	str	r1, [r2, #0]
10003db8:	6800      	ldr	r0, [r0, #0]
10003dba:	6801      	ldr	r1, [r0, #0]
10003dbc:	f246 2081 	movw	r0, #25217	; 0x6281
10003dc0:	f2c1 0000 	movt	r0, #4096	; 0x1000
10003dc4:	f7fc fbe4 	bl	10000590 <printf>
10003dc8:	9801      	ldr	r0, [sp, #4]
10003dca:	6800      	ldr	r0, [r0, #0]
10003dcc:	68c1      	ldr	r1, [r0, #12]
10003dce:	f246 204c 	movw	r0, #25164	; 0x624c
10003dd2:	f2c1 0000 	movt	r0, #4096	; 0x1000
10003dd6:	f7fc fbdb 	bl	10000590 <printf>
10003dda:	b002      	add	sp, #8
10003ddc:	bd80      	pop	{r7, pc}
	...

10003de0 <mtb_setup_MTB>:
10003de0:	b580      	push	{r7, lr}
10003de2:	f246 0031 	movw	r0, #24625	; 0x6031
10003de6:	f2c1 0000 	movt	r0, #4096	; 0x1000
10003dea:	f7fc fbd1 	bl	10000590 <printf>
10003dee:	f7ff fea5 	bl	10003b3c <mtb_cleanMTB>
10003df2:	f240 0034 	movw	r0, #52	; 0x34
10003df6:	f6c3 0000 	movt	r0, #14336	; 0x3800
10003dfa:	6802      	ldr	r2, [r0, #0]
10003dfc:	6911      	ldr	r1, [r2, #16]
10003dfe:	f041 0102 	orr.w	r1, r1, #2
10003e02:	6111      	str	r1, [r2, #16]
10003e04:	6802      	ldr	r2, [r0, #0]
10003e06:	6951      	ldr	r1, [r2, #20]
10003e08:	f041 0108 	orr.w	r1, r1, #8
10003e0c:	6151      	str	r1, [r2, #20]
10003e0e:	6802      	ldr	r2, [r0, #0]
10003e10:	f640 71c3 	movw	r1, #4035	; 0xfc3
10003e14:	6091      	str	r1, [r2, #8]
10003e16:	6802      	ldr	r2, [r0, #0]
10003e18:	2100      	movs	r1, #0
10003e1a:	6011      	str	r1, [r2, #0]
10003e1c:	6802      	ldr	r2, [r0, #0]
10003e1e:	6851      	ldr	r1, [r2, #4]
10003e20:	f041 0120 	orr.w	r1, r1, #32
10003e24:	6051      	str	r1, [r2, #4]
10003e26:	6801      	ldr	r1, [r0, #0]
10003e28:	6848      	ldr	r0, [r1, #4]
10003e2a:	f040 000f 	orr.w	r0, r0, #15
10003e2e:	6048      	str	r0, [r1, #4]
10003e30:	bd80      	pop	{r7, pc}
	...

10003e34 <spi_tran>:
10003e34:	b081      	sub	sp, #4
10003e36:	f88d 0003 	strb.w	r0, [sp, #3]
10003e3a:	f89d 0003 	ldrb.w	r0, [sp, #3]
10003e3e:	f246 0108 	movw	r1, #24584	; 0x6008
10003e42:	f2c4 0120 	movt	r1, #16416	; 0x4020
10003e46:	6008      	str	r0, [r1, #0]
10003e48:	e7ff      	b.n	10003e4a <spi_tran+0x16>
10003e4a:	f246 000c 	movw	r0, #24588	; 0x600c
10003e4e:	f2c4 0020 	movt	r0, #16416	; 0x4020
10003e52:	6800      	ldr	r0, [r0, #0]
10003e54:	0740      	lsls	r0, r0, #29
10003e56:	2800      	cmp	r0, #0
10003e58:	d401      	bmi.n	10003e5e <spi_tran+0x2a>
10003e5a:	e7ff      	b.n	10003e5c <spi_tran+0x28>
10003e5c:	e7f5      	b.n	10003e4a <spi_tran+0x16>
10003e5e:	f246 0008 	movw	r0, #24584	; 0x6008
10003e62:	f2c4 0020 	movt	r0, #16416	; 0x4020
10003e66:	6800      	ldr	r0, [r0, #0]
10003e68:	b2c0      	uxtb	r0, r0
10003e6a:	b001      	add	sp, #4
10003e6c:	4770      	bx	lr
	...

10003e70 <stdout_init>:
10003e70:	b580      	push	{r7, lr}
10003e72:	b082      	sub	sp, #8
10003e74:	f644 2038 	movw	r0, #19000	; 0x4a38
10003e78:	f2c1 0000 	movt	r0, #4096	; 0x1000
10003e7c:	6881      	ldr	r1, [r0, #8]
10003e7e:	2000      	movs	r0, #0
10003e80:	4788      	blx	r1
10003e82:	9000      	str	r0, [sp, #0]
10003e84:	9800      	ldr	r0, [sp, #0]
10003e86:	b120      	cbz	r0, 10003e92 <stdout_init+0x22>
10003e88:	e7ff      	b.n	10003e8a <stdout_init+0x1a>
10003e8a:	f04f 30ff 	mov.w	r0, #4294967295	; 0xffffffff
10003e8e:	9001      	str	r0, [sp, #4]
10003e90:	e032      	b.n	10003ef8 <stdout_init+0x88>
10003e92:	f644 2038 	movw	r0, #19000	; 0x4a38
10003e96:	f2c1 0000 	movt	r0, #4096	; 0x1000
10003e9a:	6901      	ldr	r1, [r0, #16]
10003e9c:	2002      	movs	r0, #2
10003e9e:	4788      	blx	r1
10003ea0:	9000      	str	r0, [sp, #0]
10003ea2:	9800      	ldr	r0, [sp, #0]
10003ea4:	b120      	cbz	r0, 10003eb0 <stdout_init+0x40>
10003ea6:	e7ff      	b.n	10003ea8 <stdout_init+0x38>
10003ea8:	f04f 30ff 	mov.w	r0, #4294967295	; 0xffffffff
10003eac:	9001      	str	r0, [sp, #4]
10003eae:	e023      	b.n	10003ef8 <stdout_init+0x88>
10003eb0:	f644 2038 	movw	r0, #19000	; 0x4a38
10003eb4:	f2c1 0000 	movt	r0, #4096	; 0x1000
10003eb8:	6a82      	ldr	r2, [r0, #40]	; 0x28
10003eba:	2001      	movs	r0, #1
10003ebc:	f44f 31e1 	mov.w	r1, #115200	; 0x1c200
10003ec0:	4790      	blx	r2
10003ec2:	9000      	str	r0, [sp, #0]
10003ec4:	9800      	ldr	r0, [sp, #0]
10003ec6:	b120      	cbz	r0, 10003ed2 <stdout_init+0x62>
10003ec8:	e7ff      	b.n	10003eca <stdout_init+0x5a>
10003eca:	f04f 30ff 	mov.w	r0, #4294967295	; 0xffffffff
10003ece:	9001      	str	r0, [sp, #4]
10003ed0:	e012      	b.n	10003ef8 <stdout_init+0x88>
10003ed2:	f644 2038 	movw	r0, #19000	; 0x4a38
10003ed6:	f2c1 0000 	movt	r0, #4096	; 0x1000
10003eda:	6a82      	ldr	r2, [r0, #40]	; 0x28
10003edc:	2015      	movs	r0, #21
10003ede:	2101      	movs	r1, #1
10003ee0:	4790      	blx	r2
10003ee2:	9000      	str	r0, [sp, #0]
10003ee4:	9800      	ldr	r0, [sp, #0]
10003ee6:	b120      	cbz	r0, 10003ef2 <stdout_init+0x82>
10003ee8:	e7ff      	b.n	10003eea <stdout_init+0x7a>
10003eea:	f04f 30ff 	mov.w	r0, #4294967295	; 0xffffffff
10003eee:	9001      	str	r0, [sp, #4]
10003ef0:	e002      	b.n	10003ef8 <stdout_init+0x88>
10003ef2:	2000      	movs	r0, #0
10003ef4:	9001      	str	r0, [sp, #4]
10003ef6:	e7ff      	b.n	10003ef8 <stdout_init+0x88>
10003ef8:	9801      	ldr	r0, [sp, #4]
10003efa:	b002      	add	sp, #8
10003efc:	bd80      	pop	{r7, pc}
	...

10003f00 <stdout_putchar>:
10003f00:	b580      	push	{r7, lr}
10003f02:	b084      	sub	sp, #16
10003f04:	9002      	str	r0, [sp, #8]
10003f06:	9802      	ldr	r0, [sp, #8]
10003f08:	f88d 0007 	strb.w	r0, [sp, #7]
10003f0c:	f644 2038 	movw	r0, #19000	; 0x4a38
10003f10:	f2c1 0000 	movt	r0, #4096	; 0x1000
10003f14:	6942      	ldr	r2, [r0, #20]
10003f16:	f10d 0007 	add.w	r0, sp, #7
10003f1a:	2101      	movs	r1, #1
10003f1c:	4790      	blx	r2
10003f1e:	b120      	cbz	r0, 10003f2a <stdout_putchar+0x2a>
10003f20:	e7ff      	b.n	10003f22 <stdout_putchar+0x22>
10003f22:	f04f 30ff 	mov.w	r0, #4294967295	; 0xffffffff
10003f26:	9003      	str	r0, [sp, #12]
10003f28:	e00d      	b.n	10003f46 <stdout_putchar+0x46>
10003f2a:	e7ff      	b.n	10003f2c <stdout_putchar+0x2c>
10003f2c:	f644 2038 	movw	r0, #19000	; 0x4a38
10003f30:	f2c1 0000 	movt	r0, #4096	; 0x1000
10003f34:	6a00      	ldr	r0, [r0, #32]
10003f36:	4780      	blx	r0
10003f38:	2801      	cmp	r0, #1
10003f3a:	d001      	beq.n	10003f40 <stdout_putchar+0x40>
10003f3c:	e7ff      	b.n	10003f3e <stdout_putchar+0x3e>
10003f3e:	e7f5      	b.n	10003f2c <stdout_putchar+0x2c>
10003f40:	9802      	ldr	r0, [sp, #8]
10003f42:	9003      	str	r0, [sp, #12]
10003f44:	e7ff      	b.n	10003f46 <stdout_putchar+0x46>
10003f46:	9803      	ldr	r0, [sp, #12]
10003f48:	b004      	add	sp, #16
10003f4a:	bd80      	pop	{r7, pc}

10003f4c <vMTB_sendBuffer>:
10003f4c:	b580      	push	{r7, lr}
10003f4e:	b084      	sub	sp, #16
10003f50:	f246 0075 	movw	r0, #24693	; 0x6075
10003f54:	f2c1 0000 	movt	r0, #4096	; 0x1000
10003f58:	f7fc fb1a 	bl	10000590 <printf>
10003f5c:	f240 0034 	movw	r0, #52	; 0x34
10003f60:	f6c3 0000 	movt	r0, #14336	; 0x3800
10003f64:	9001      	str	r0, [sp, #4]
10003f66:	6800      	ldr	r0, [r0, #0]
10003f68:	6802      	ldr	r2, [r0, #0]
10003f6a:	f240 10c8 	movw	r0, #456	; 0x1c8
10003f6e:	f6c3 0000 	movt	r0, #14336	; 0x3800
10003f72:	6801      	ldr	r1, [r0, #0]
10003f74:	4411      	add	r1, r2
10003f76:	6001      	str	r1, [r0, #0]
10003f78:	6801      	ldr	r1, [r0, #0]
10003f7a:	f246 005d 	movw	r0, #24669	; 0x605d
10003f7e:	f2c1 0000 	movt	r0, #4096	; 0x1000
10003f82:	f7fc fb05 	bl	10000590 <printf>
10003f86:	9801      	ldr	r0, [sp, #4]
10003f88:	6800      	ldr	r0, [r0, #0]
10003f8a:	6801      	ldr	r1, [r0, #0]
10003f8c:	f246 0071 	movw	r0, #24689	; 0x6071
10003f90:	f2c1 0000 	movt	r0, #4096	; 0x1000
10003f94:	f7fc fafc 	bl	10000590 <printf>
10003f98:	9801      	ldr	r0, [sp, #4]
10003f9a:	6800      	ldr	r0, [r0, #0]
10003f9c:	68c0      	ldr	r0, [r0, #12]
10003f9e:	9003      	str	r0, [sp, #12]
10003fa0:	2000      	movs	r0, #0
10003fa2:	9002      	str	r0, [sp, #8]
10003fa4:	e7ff      	b.n	10003fa6 <vMTB_sendBuffer+0x5a>
10003fa6:	9802      	ldr	r0, [sp, #8]
10003fa8:	f240 0134 	movw	r1, #52	; 0x34
10003fac:	f6c3 0100 	movt	r1, #14336	; 0x3800
10003fb0:	6809      	ldr	r1, [r1, #0]
10003fb2:	6809      	ldr	r1, [r1, #0]
10003fb4:	ebb0 0f91 	cmp.w	r0, r1, lsr #2
10003fb8:	d20f      	bcs.n	10003fda <vMTB_sendBuffer+0x8e>
10003fba:	e7ff      	b.n	10003fbc <vMTB_sendBuffer+0x70>
10003fbc:	9803      	ldr	r0, [sp, #12]
10003fbe:	9902      	ldr	r1, [sp, #8]
10003fc0:	f850 1021 	ldr.w	r1, [r0, r1, lsl #2]
10003fc4:	f246 20cb 	movw	r0, #25291	; 0x62cb
10003fc8:	f2c1 0000 	movt	r0, #4096	; 0x1000
10003fcc:	f7fc fae0 	bl	10000590 <printf>
10003fd0:	e7ff      	b.n	10003fd2 <vMTB_sendBuffer+0x86>
10003fd2:	9802      	ldr	r0, [sp, #8]
10003fd4:	3001      	adds	r0, #1
10003fd6:	9002      	str	r0, [sp, #8]
10003fd8:	e7e5      	b.n	10003fa6 <vMTB_sendBuffer+0x5a>
10003fda:	f246 1019 	movw	r0, #24857	; 0x6119
10003fde:	f2c1 0000 	movt	r0, #4096	; 0x1000
10003fe2:	f7fc fad5 	bl	10000590 <printf>
10003fe6:	b004      	add	sp, #16
10003fe8:	bd80      	pop	{r7, pc}
	...

10003fec <wr_cmd>:
10003fec:	b580      	push	{r7, lr}
10003fee:	b082      	sub	sp, #8
10003ff0:	f88d 0007 	strb.w	r0, [sp, #7]
10003ff4:	f242 014c 	movw	r1, #8268	; 0x204c
10003ff8:	f2c4 0130 	movt	r1, #16432	; 0x4030
10003ffc:	9100      	str	r1, [sp, #0]
10003ffe:	6808      	ldr	r0, [r1, #0]
10004000:	f020 0001 	bic.w	r0, r0, #1
10004004:	6008      	str	r0, [r1, #0]
10004006:	2070      	movs	r0, #112	; 0x70
10004008:	f7ff ff14 	bl	10003e34 <spi_tran>
1000400c:	2000      	movs	r0, #0
1000400e:	f7ff ff11 	bl	10003e34 <spi_tran>
10004012:	f89d 0007 	ldrb.w	r0, [sp, #7]
10004016:	f7ff ff0d 	bl	10003e34 <spi_tran>
1000401a:	9900      	ldr	r1, [sp, #0]
1000401c:	6808      	ldr	r0, [r1, #0]
1000401e:	f040 0001 	orr.w	r0, r0, #1
10004022:	6008      	str	r0, [r1, #0]
10004024:	b002      	add	sp, #8
10004026:	bd80      	pop	{r7, pc}

10004028 <wr_dat>:
10004028:	b580      	push	{r7, lr}
1000402a:	b082      	sub	sp, #8
1000402c:	f8ad 0006 	strh.w	r0, [sp, #6]
10004030:	f242 014c 	movw	r1, #8268	; 0x204c
10004034:	f2c4 0130 	movt	r1, #16432	; 0x4030
10004038:	9100      	str	r1, [sp, #0]
1000403a:	6808      	ldr	r0, [r1, #0]
1000403c:	f020 0001 	bic.w	r0, r0, #1
10004040:	6008      	str	r0, [r1, #0]
10004042:	2072      	movs	r0, #114	; 0x72
10004044:	f7ff fef6 	bl	10003e34 <spi_tran>
10004048:	f89d 0007 	ldrb.w	r0, [sp, #7]
1000404c:	f7ff fef2 	bl	10003e34 <spi_tran>
10004050:	f89d 0006 	ldrb.w	r0, [sp, #6]
10004054:	f7ff feee 	bl	10003e34 <spi_tran>
10004058:	9900      	ldr	r1, [sp, #0]
1000405a:	6808      	ldr	r0, [r1, #0]
1000405c:	f040 0001 	orr.w	r0, r0, #1
10004060:	6008      	str	r0, [r1, #0]
10004062:	b002      	add	sp, #8
10004064:	bd80      	pop	{r7, pc}
	...

10004068 <wr_dat_only>:
10004068:	b580      	push	{r7, lr}
1000406a:	b082      	sub	sp, #8
1000406c:	f8ad 0006 	strh.w	r0, [sp, #6]
10004070:	f89d 0007 	ldrb.w	r0, [sp, #7]
10004074:	f7ff fede 	bl	10003e34 <spi_tran>
10004078:	f89d 0006 	ldrb.w	r0, [sp, #6]
1000407c:	f7ff feda 	bl	10003e34 <spi_tran>
10004080:	b002      	add	sp, #8
10004082:	bd80      	pop	{r7, pc}

10004084 <wr_dat_start>:
10004084:	b580      	push	{r7, lr}
10004086:	f242 014c 	movw	r1, #8268	; 0x204c
1000408a:	f2c4 0130 	movt	r1, #16432	; 0x4030
1000408e:	6808      	ldr	r0, [r1, #0]
10004090:	f020 0001 	bic.w	r0, r0, #1
10004094:	6008      	str	r0, [r1, #0]
10004096:	2072      	movs	r0, #114	; 0x72
10004098:	f7ff fecc 	bl	10003e34 <spi_tran>
1000409c:	bd80      	pop	{r7, pc}
	...

100040a0 <wr_dat_stop>:
100040a0:	f242 014c 	movw	r1, #8268	; 0x204c
100040a4:	f2c4 0130 	movt	r1, #16432	; 0x4030
100040a8:	6808      	ldr	r0, [r1, #0]
100040aa:	f040 0001 	orr.w	r0, r0, #1
100040ae:	6008      	str	r0, [r1, #0]
100040b0:	4770      	bx	lr
	...

100040b4 <wr_reg>:
100040b4:	b580      	push	{r7, lr}
100040b6:	b082      	sub	sp, #8
100040b8:	f88d 0007 	strb.w	r0, [sp, #7]
100040bc:	f8ad 1004 	strh.w	r1, [sp, #4]
100040c0:	f89d 0007 	ldrb.w	r0, [sp, #7]
100040c4:	f7ff ff92 	bl	10003fec <wr_cmd>
100040c8:	f8bd 0004 	ldrh.w	r0, [sp, #4]
100040cc:	f7ff ffac 	bl	10004028 <wr_dat>
100040d0:	b002      	add	sp, #8
100040d2:	bd80      	pop	{r7, pc}

100040d4 <_btod_d2e>:
100040d4:	ea5f 0c40 	movs.w	ip, r0, lsl #1
100040d8:	bf08      	it	eq
100040da:	f091 0f00 	teqeq	r1, #0
100040de:	ea4f 238c 	mov.w	r3, ip, lsl #10
100040e2:	ea4f 22c1 	mov.w	r2, r1, lsl #11
100040e6:	ea43 5151 	orr.w	r1, r3, r1, lsr #21
100040ea:	ea4f 501c 	mov.w	r0, ip, lsr #20
100040ee:	bf18      	it	ne
100040f0:	f500 40f0 	addne.w	r0, r0, #30720	; 0x7800
100040f4:	ea4f 0030 	mov.w	r0, r0, rrx
100040f8:	bf18      	it	ne
100040fa:	f041 4100 	orrne.w	r1, r1, #2147483648	; 0x80000000
100040fe:	ea5f 5c6c 	movs.w	ip, ip, asr #21
10004102:	f000 8029 	beq.w	10004158 <_d2e_norm_op1>
10004106:	f1bc 3fff 	cmp.w	ip, #4294967295	; 0xffffffff
1000410a:	bf08      	it	eq
1000410c:	f040 4080 	orreq.w	r0, r0, #1073741824	; 0x40000000
10004110:	4770      	bx	lr

10004112 <_d2e_denorm_low>:
10004112:	0c13      	lsrs	r3, r2, #16
10004114:	bf06      	itte	eq
10004116:	0412      	lsleq	r2, r2, #16
10004118:	f04f 0c10 	moveq.w	ip, #16
1000411c:	f04f 0c00 	movne.w	ip, #0
10004120:	0e13      	lsrs	r3, r2, #24
10004122:	bf04      	itt	eq
10004124:	0212      	lsleq	r2, r2, #8
10004126:	f10c 0c08 	addeq.w	ip, ip, #8
1000412a:	0f13      	lsrs	r3, r2, #28
1000412c:	bf04      	itt	eq
1000412e:	0112      	lsleq	r2, r2, #4
10004130:	f10c 0c04 	addeq.w	ip, ip, #4
10004134:	0f93      	lsrs	r3, r2, #30
10004136:	bf04      	itt	eq
10004138:	0092      	lsleq	r2, r2, #2
1000413a:	f10c 0c02 	addeq.w	ip, ip, #2
1000413e:	0fd3      	lsrs	r3, r2, #31
10004140:	bf04      	itt	eq
10004142:	0052      	lsleq	r2, r2, #1
10004144:	f10c 0c01 	addeq.w	ip, ip, #1
10004148:	4611      	mov	r1, r2
1000414a:	f04f 0200 	mov.w	r2, #0
1000414e:	f1a0 001f 	sub.w	r0, r0, #31
10004152:	eba0 000c 	sub.w	r0, r0, ip
10004156:	4770      	bx	lr

10004158 <_d2e_norm_op1>:
10004158:	f011 4f00 	tst.w	r1, #2147483648	; 0x80000000
1000415c:	bf08      	it	eq
1000415e:	4770      	bxeq	lr
10004160:	f031 4100 	bics.w	r1, r1, #2147483648	; 0x80000000
10004164:	f43f afd5 	beq.w	10004112 <_d2e_denorm_low>
10004168:	0c0b      	lsrs	r3, r1, #16
1000416a:	bf06      	itte	eq
1000416c:	0409      	lsleq	r1, r1, #16
1000416e:	f04f 0c10 	moveq.w	ip, #16
10004172:	f04f 0c00 	movne.w	ip, #0
10004176:	0e0b      	lsrs	r3, r1, #24
10004178:	bf04      	itt	eq
1000417a:	0209      	lsleq	r1, r1, #8
1000417c:	f10c 0c08 	addeq.w	ip, ip, #8
10004180:	0f0b      	lsrs	r3, r1, #28
10004182:	bf04      	itt	eq
10004184:	0109      	lsleq	r1, r1, #4
10004186:	f10c 0c04 	addeq.w	ip, ip, #4
1000418a:	0f8b      	lsrs	r3, r1, #30
1000418c:	bf04      	itt	eq
1000418e:	0089      	lsleq	r1, r1, #2
10004190:	f10c 0c02 	addeq.w	ip, ip, #2
10004194:	0fcb      	lsrs	r3, r1, #31
10004196:	bf04      	itt	eq
10004198:	0049      	lsleq	r1, r1, #1
1000419a:	f10c 0c01 	addeq.w	ip, ip, #1
1000419e:	f1cc 0320 	rsb	r3, ip, #32
100041a2:	fa22 f303 	lsr.w	r3, r2, r3
100041a6:	ea41 0103 	orr.w	r1, r1, r3
100041aa:	fa02 f20c 	lsl.w	r2, r2, ip
100041ae:	eba0 000c 	sub.w	r0, r0, ip
100041b2:	f100 0001 	add.w	r0, r0, #1
100041b6:	4770      	bx	lr

100041b8 <__btod_div_common>:
100041b8:	f023 477f 	bic.w	r7, r3, #4278190080	; 0xff000000
100041bc:	f020 4c7f 	bic.w	ip, r0, #4278190080	; 0xff000000
100041c0:	ea80 0003 	eor.w	r0, r0, r3
100041c4:	f000 4000 	and.w	r0, r0, #2147483648	; 0x80000000
100041c8:	ebac 0307 	sub.w	r3, ip, r7
100041cc:	f503 537c 	add.w	r3, r3, #16128	; 0x3f00
100041d0:	f103 03ff 	add.w	r3, r3, #255	; 0xff
100041d4:	e92d 4980 	stmdb	sp!, {r7, r8, fp, lr}
100041d8:	b409      	push	{r0, r3}
100041da:	ea4f 4314 	mov.w	r3, r4, lsr #16
100041de:	ea24 4803 	bic.w	r8, r4, r3, lsl #16
100041e2:	ea4f 4b15 	mov.w	fp, r5, lsr #16
100041e6:	ea25 4e0b 	bic.w	lr, r5, fp, lsl #16
100041ea:	f20f 2604 	addw	r6, pc, #516	; 0x204
100041ee:	eb06 2713 	add.w	r7, r6, r3, lsr #8
100041f2:	783e      	ldrb	r6, [r7, #0]
100041f4:	fb03 6706 	mla	r7, r3, r6, r6
100041f8:	f5c7 0700 	rsb	r7, r7, #8388608	; 0x800000
100041fc:	fb07 f606 	mul.w	r6, r7, r6
10004200:	ea4f 46d6 	mov.w	r6, r6, lsr #19
10004204:	f106 0602 	add.w	r6, r6, #2
10004208:	ea4f 3754 	mov.w	r7, r4, lsr #13
1000420c:	fb07 6c06 	mla	ip, r7, r6, r6
10004210:	f1cc 5c00 	rsb	ip, ip, #536870912	; 0x20000000
10004214:	ea4f 471c 	mov.w	r7, ip, lsr #16
10004218:	ea2c 4c07 	bic.w	ip, ip, r7, lsl #16
1000421c:	fb0c f506 	mul.w	r5, ip, r6
10004220:	fb07 f406 	mul.w	r4, r7, r6
10004224:	eb04 4615 	add.w	r6, r4, r5, lsr #16
10004228:	ea4f 1696 	mov.w	r6, r6, lsr #6
1000422c:	0849      	lsrs	r1, r1, #1
1000422e:	ea5f 0232 	movs.w	r2, r2, rrx
10004232:	bf34      	ite	cc
10004234:	2000      	movcc	r0, #0
10004236:	f04f 4000 	movcs.w	r0, #2147483648	; 0x80000000
1000423a:	ea4f 37d1 	mov.w	r7, r1, lsr #15
1000423e:	fb06 fc07 	mul.w	ip, r6, r7
10004242:	ea4f 4c1c 	mov.w	ip, ip, lsr #16
10004246:	fb0c f70b 	mul.w	r7, ip, fp
1000424a:	1bd2      	subs	r2, r2, r7
1000424c:	fb03 f70c 	mul.w	r7, r3, ip
10004250:	eb61 0107 	sbc.w	r1, r1, r7
10004254:	fb0c f70e 	mul.w	r7, ip, lr
10004258:	ebb0 4007 	subs.w	r0, r0, r7, lsl #16
1000425c:	eb72 4217 	sbcs.w	r2, r2, r7, lsr #16
10004260:	fb0c f708 	mul.w	r7, ip, r8
10004264:	bf34      	ite	cc
10004266:	eba2 4207 	subcc.w	r2, r2, r7, lsl #16
1000426a:	ebb2 4207 	subscs.w	r2, r2, r7, lsl #16
1000426e:	eb61 4117 	sbc.w	r1, r1, r7, lsr #16
10004272:	ea4f 440c 	mov.w	r4, ip, lsl #16
10004276:	ea4f 0791 	mov.w	r7, r1, lsr #2
1000427a:	fb06 fc07 	mul.w	ip, r6, r7
1000427e:	ea4f 4c1c 	mov.w	ip, ip, lsr #16
10004282:	fb0c f70b 	mul.w	r7, ip, fp
10004286:	ebb0 40c7 	subs.w	r0, r0, r7, lsl #19
1000428a:	eb72 3257 	sbcs.w	r2, r2, r7, lsr #13
1000428e:	fb03 f70c 	mul.w	r7, r3, ip
10004292:	bf34      	ite	cc
10004294:	eba2 42c7 	subcc.w	r2, r2, r7, lsl #19
10004298:	ebb2 42c7 	subscs.w	r2, r2, r7, lsl #19
1000429c:	eb61 3157 	sbc.w	r1, r1, r7, lsr #13
100042a0:	fb0c f70e 	mul.w	r7, ip, lr
100042a4:	ebb0 00c7 	subs.w	r0, r0, r7, lsl #3
100042a8:	eb72 7257 	sbcs.w	r2, r2, r7, lsr #29
100042ac:	fb0c f708 	mul.w	r7, ip, r8
100042b0:	bf34      	ite	cc
100042b2:	eba2 02c7 	subcc.w	r2, r2, r7, lsl #3
100042b6:	ebb2 02c7 	subscs.w	r2, r2, r7, lsl #3
100042ba:	eb61 7157 	sbc.w	r1, r1, r7, lsr #29
100042be:	ea4f 6181 	mov.w	r1, r1, lsl #26
100042c2:	ea41 1192 	orr.w	r1, r1, r2, lsr #6
100042c6:	ea4f 6282 	mov.w	r2, r2, lsl #26
100042ca:	ea42 1290 	orr.w	r2, r2, r0, lsr #6
100042ce:	ea4f 6080 	mov.w	r0, r0, lsl #26
100042d2:	eb04 04cc 	add.w	r4, r4, ip, lsl #3
100042d6:	9f03      	ldr	r7, [sp, #12]
100042d8:	ea4f 37d1 	mov.w	r7, r1, lsr #15
100042dc:	fb06 fc07 	mul.w	ip, r6, r7
100042e0:	ea4f 4c1c 	mov.w	ip, ip, lsr #16
100042e4:	fb0c f70b 	mul.w	r7, ip, fp
100042e8:	1bd2      	subs	r2, r2, r7
100042ea:	fb03 f70c 	mul.w	r7, r3, ip
100042ee:	eb61 0107 	sbc.w	r1, r1, r7
100042f2:	fb0c f70e 	mul.w	r7, ip, lr
100042f6:	ebb0 4007 	subs.w	r0, r0, r7, lsl #16
100042fa:	eb72 4217 	sbcs.w	r2, r2, r7, lsr #16
100042fe:	fb0c f708 	mul.w	r7, ip, r8
10004302:	bf34      	ite	cc
10004304:	eba2 4207 	subcc.w	r2, r2, r7, lsl #16
10004308:	ebb2 4207 	subscs.w	r2, r2, r7, lsl #16
1000430c:	eb61 4117 	sbc.w	r1, r1, r7, lsr #16
10004310:	ea4f 558c 	mov.w	r5, ip, lsl #22
10004314:	eb04 249c 	add.w	r4, r4, ip, lsr #10
10004318:	ea4f 0791 	mov.w	r7, r1, lsr #2
1000431c:	fb06 fc07 	mul.w	ip, r6, r7
10004320:	ea4f 4c1c 	mov.w	ip, ip, lsr #16
10004324:	fb0c f70b 	mul.w	r7, ip, fp
10004328:	ebb0 40c7 	subs.w	r0, r0, r7, lsl #19
1000432c:	eb72 3257 	sbcs.w	r2, r2, r7, lsr #13
10004330:	fb03 f70c 	mul.w	r7, r3, ip
10004334:	bf34      	ite	cc
10004336:	eba2 42c7 	subcc.w	r2, r2, r7, lsl #19
1000433a:	ebb2 42c7 	subscs.w	r2, r2, r7, lsl #19
1000433e:	eb61 3157 	sbc.w	r1, r1, r7, lsr #13
10004342:	fb0c f70e 	mul.w	r7, ip, lr
10004346:	ebb0 00c7 	subs.w	r0, r0, r7, lsl #3
1000434a:	eb72 7257 	sbcs.w	r2, r2, r7, lsr #29
1000434e:	fb0c f708 	mul.w	r7, ip, r8
10004352:	bf34      	ite	cc
10004354:	eba2 02c7 	subcc.w	r2, r2, r7, lsl #3
10004358:	ebb2 02c7 	subscs.w	r2, r2, r7, lsl #3
1000435c:	eb61 7157 	sbc.w	r1, r1, r7, lsr #29
10004360:	ea4f 6181 	mov.w	r1, r1, lsl #26
10004364:	ea41 1192 	orr.w	r1, r1, r2, lsr #6
10004368:	ea4f 6282 	mov.w	r2, r2, lsl #26
1000436c:	ea42 1290 	orr.w	r2, r2, r0, lsr #6
10004370:	ea4f 6080 	mov.w	r0, r0, lsl #26
10004374:	eb15 254c 	adds.w	r5, r5, ip, lsl #9
10004378:	f144 0400 	adc.w	r4, r4, #0
1000437c:	ea4f 37d1 	mov.w	r7, r1, lsr #15
10004380:	fb06 fc07 	mul.w	ip, r6, r7
10004384:	ea4f 4c1c 	mov.w	ip, ip, lsr #16
10004388:	fb0c f70b 	mul.w	r7, ip, fp
1000438c:	1bd2      	subs	r2, r2, r7
1000438e:	fb03 f70c 	mul.w	r7, r3, ip
10004392:	eb61 0107 	sbc.w	r1, r1, r7
10004396:	fb0c f70e 	mul.w	r7, ip, lr
1000439a:	ebb0 4007 	subs.w	r0, r0, r7, lsl #16
1000439e:	eb72 4217 	sbcs.w	r2, r2, r7, lsr #16
100043a2:	fb0c f708 	mul.w	r7, ip, r8
100043a6:	bf34      	ite	cc
100043a8:	eba2 4207 	subcc.w	r2, r2, r7, lsl #16
100043ac:	ebb2 4207 	subscs.w	r2, r2, r7, lsl #16
100043b0:	eb61 4117 	sbc.w	r1, r1, r7, lsr #16
100043b4:	ea4f 3181 	mov.w	r1, r1, lsl #14
100043b8:	ea41 4192 	orr.w	r1, r1, r2, lsr #18
100043bc:	ea4f 3282 	mov.w	r2, r2, lsl #14
100043c0:	ea42 4290 	orr.w	r2, r2, r0, lsr #18
100043c4:	ea4f 3080 	mov.w	r0, r0, lsl #14
100043c8:	ea4f 760c 	mov.w	r6, ip, lsl #28
100043cc:	eb15 151c 	adds.w	r5, r5, ip, lsr #4
100043d0:	f144 0400 	adc.w	r4, r4, #0
100043d4:	ea48 4303 	orr.w	r3, r8, r3, lsl #16
100043d8:	ea4e 480b 	orr.w	r8, lr, fp, lsl #16
100043dc:	f04f 0e00 	mov.w	lr, #0
100043e0:	ebb2 0c08 	subs.w	ip, r2, r8
100043e4:	eb71 0703 	sbcs.w	r7, r1, r3
100043e8:	bf24      	itt	cs
100043ea:	4662      	movcs	r2, ip
100043ec:	4639      	movcs	r1, r7
100043ee:	eb4e 0e0e 	adc.w	lr, lr, lr
100043f2:	f04f 0b00 	mov.w	fp, #0
100043f6:	1800      	adds	r0, r0, r0
100043f8:	4152      	adcs	r2, r2
100043fa:	4149      	adcs	r1, r1
100043fc:	eb4b 0b0b 	adc.w	fp, fp, fp
10004400:	ebb2 0c08 	subs.w	ip, r2, r8
10004404:	eb71 0703 	sbcs.w	r7, r1, r3
10004408:	f17b 0b00 	sbcs.w	fp, fp, #0
1000440c:	bf24      	itt	cs
1000440e:	4662      	movcs	r2, ip
10004410:	4639      	movcs	r1, r7
10004412:	eb4e 0e0e 	adc.w	lr, lr, lr
10004416:	f04f 0b00 	mov.w	fp, #0
1000441a:	1800      	adds	r0, r0, r0
1000441c:	4152      	adcs	r2, r2
1000441e:	4149      	adcs	r1, r1
10004420:	eb4b 0b0b 	adc.w	fp, fp, fp
10004424:	ebb2 0c08 	subs.w	ip, r2, r8
10004428:	eb71 0703 	sbcs.w	r7, r1, r3
1000442c:	f17b 0b00 	sbcs.w	fp, fp, #0
10004430:	bf24      	itt	cs
10004432:	4662      	movcs	r2, ip
10004434:	4639      	movcs	r1, r7
10004436:	eb4e 0e0e 	adc.w	lr, lr, lr
1000443a:	ea51 0702 	orrs.w	r7, r1, r2
1000443e:	bf18      	it	ne
10004440:	f046 0601 	orrne.w	r6, r6, #1
10004444:	eb16 760e 	adds.w	r6, r6, lr, lsl #28
10004448:	f155 0200 	adcs.w	r2, r5, #0
1000444c:	f154 0100 	adcs.w	r1, r4, #0
10004450:	d503      	bpl.n	1000445a <__btod_div_common+0x2a2>
10004452:	e8bd 0189 	ldmia.w	sp!, {r0, r3, r7, r8}
10004456:	e8bd 8800 	ldmia.w	sp!, {fp, pc}
1000445a:	e8bd 0189 	ldmia.w	sp!, {r0, r3, r7, r8}
1000445e:	e8bd 4800 	ldmia.w	sp!, {fp, lr}
10004462:	19b6      	adds	r6, r6, r6
10004464:	4152      	adcs	r2, r2
10004466:	eb41 0101 	adc.w	r1, r1, r1
1000446a:	f1a3 0301 	sub.w	r3, r3, #1
1000446e:	4770      	bx	lr
10004470:	7e7f8080 	.word	0x7e7f8080
10004474:	7a7b7c7d 	.word	0x7a7b7c7d
10004478:	76777879 	.word	0x76777879
1000447c:	73747576 	.word	0x73747576
10004480:	70717172 	.word	0x70717172
10004484:	6d6e6e6f 	.word	0x6d6e6e6f
10004488:	6a6b6c6c 	.word	0x6a6b6c6c
1000448c:	6868696a 	.word	0x6868696a
10004490:	65666667 	.word	0x65666667
10004494:	63636464 	.word	0x63636464
10004498:	60616162 	.word	0x60616162
1000449c:	5e5f5f60 	.word	0x5e5f5f60
100044a0:	5c5d5d5e 	.word	0x5c5d5d5e
100044a4:	5a5b5b5c 	.word	0x5a5b5b5c
100044a8:	5859595a 	.word	0x5859595a
100044ac:	56575758 	.word	0x56575758
100044b0:	55555556 	.word	0x55555556
100044b4:	53535454 	.word	0x53535454
100044b8:	51525252 	.word	0x51525252
100044bc:	50505051 	.word	0x50505051
100044c0:	4e4f4f4f 	.word	0x4e4f4f4f
100044c4:	4d4d4d4e 	.word	0x4d4d4d4e
100044c8:	4b4c4c4c 	.word	0x4b4c4c4c
100044cc:	4a4a4b4b 	.word	0x4a4a4b4b
100044d0:	4949494a 	.word	0x4949494a
100044d4:	47484848 	.word	0x47484848
100044d8:	46474747 	.word	0x46474747
100044dc:	45454646 	.word	0x45454646
100044e0:	44444445 	.word	0x44444445
100044e4:	43434344 	.word	0x43434344
100044e8:	42424243 	.word	0x42424243
100044ec:	41414142 	.word	0x41414142

100044f0 <_e2e>:
100044f0:	469c      	mov	ip, r3
100044f2:	2b00      	cmp	r3, #0
100044f4:	d430      	bmi.n	10004558 <_e2e+0x68>
100044f6:	0077      	lsls	r7, r6, #1
100044f8:	d02b      	beq.n	10004552 <_e2e+0x62>
100044fa:	ea4f 0737 	mov.w	r7, r7, rrx
100044fe:	b51c      	push	{r2, r3, r4, lr}
10004500:	b403      	push	{r0, r1}
10004502:	f04f 0010 	mov.w	r0, #16
10004506:	f04f 0110 	mov.w	r1, #16
1000450a:	f1ba 0f00 	cmp.w	sl, #0
1000450e:	d006      	beq.n	1000451e <_e2e+0x2e>
10004510:	f1bc 0f00 	cmp.w	ip, #0
10004514:	bfdc      	itt	le
10004516:	f040 0008 	orrle.w	r0, r0, #8
1000451a:	f040 0108 	orrle.w	r1, r0, #8
1000451e:	f04f 0000 	mov.w	r0, #0
10004522:	bc0f      	pop	{r0, r1, r2, r3}
10004524:	e8bd 4010 	ldmia.w	sp!, {r4, lr}
10004528:	f10b 0b01 	add.w	fp, fp, #1
1000452c:	f1bb 0f01 	cmp.w	fp, #1
10004530:	bf08      	it	eq
10004532:	ea5f 0717 	movseq.w	r7, r7, lsr #32
10004536:	bf22      	ittt	cs
10004538:	f112 0201 	addscs.w	r2, r2, #1
1000453c:	f111 0101 	addscs.w	r1, r1, #1
10004540:	f04f 4100 	movcs.w	r1, #2147483648	; 0x80000000
10004544:	f143 0300 	adc.w	r3, r3, #0
10004548:	f000 4000 	and.w	r0, r0, #2147483648	; 0x80000000
1000454c:	ea43 0000 	orr.w	r0, r3, r0
10004550:	4770      	bx	lr
10004552:	d3f9      	bcc.n	10004548 <_e2e+0x58>
10004554:	0857      	lsrs	r7, r2, #1
10004556:	e7d0      	b.n	100044fa <_e2e+0xa>
10004558:	ea46 4606 	orr.w	r6, r6, r6, lsl #16
1000455c:	ea4f 4616 	mov.w	r6, r6, lsr #16
10004560:	f113 0f40 	cmn.w	r3, #64	; 0x40
10004564:	dd1f      	ble.n	100045a6 <_e2e+0xb6>
10004566:	f113 0f20 	cmn.w	r3, #32
1000456a:	bfdf      	itttt	le
1000456c:	4316      	orrle	r6, r2
1000456e:	460a      	movle	r2, r1
10004570:	2100      	movle	r1, #0
10004572:	3320      	addle	r3, #32
10004574:	425b      	negs	r3, r3
10004576:	d0be      	beq.n	100044f6 <_e2e+0x6>
10004578:	f1c3 0720 	rsb	r7, r3, #32
1000457c:	ea46 4606 	orr.w	r6, r6, r6, lsl #16
10004580:	ea4f 4616 	mov.w	r6, r6, lsr #16
10004584:	fa02 f707 	lsl.w	r7, r2, r7
10004588:	ea46 0607 	orr.w	r6, r6, r7
1000458c:	fa22 f203 	lsr.w	r2, r2, r3
10004590:	f1c3 0720 	rsb	r7, r3, #32
10004594:	fa01 f707 	lsl.w	r7, r1, r7
10004598:	ea42 0207 	orr.w	r2, r2, r7
1000459c:	fa21 f103 	lsr.w	r1, r1, r3
100045a0:	f04f 0300 	mov.w	r3, #0
100045a4:	e7a7      	b.n	100044f6 <_e2e+0x6>
100045a6:	ea46 0602 	orr.w	r6, r6, r2
100045aa:	ea46 4606 	orr.w	r6, r6, r6, lsl #16
100045ae:	ea4f 4616 	mov.w	r6, r6, lsr #16
100045b2:	ea46 0601 	orr.w	r6, r6, r1
100045b6:	bfbc      	itt	lt
100045b8:	ea46 4606 	orrlt.w	r6, r6, r6, lsl #16
100045bc:	0c36      	lsrlt	r6, r6, #16
100045be:	f04f 0300 	mov.w	r3, #0
100045c2:	f04f 0200 	mov.w	r2, #0
100045c6:	f04f 0100 	mov.w	r1, #0
100045ca:	e794      	b.n	100044f6 <_e2e+0x6>

100045cc <_btod_ediv>:
100045cc:	e92d 4c80 	stmdb	sp!, {r7, sl, fp, lr}
100045d0:	b470      	push	{r4, r5, r6}
100045d2:	469a      	mov	sl, r3
100045d4:	4693      	mov	fp, r2
100045d6:	e891 0038 	ldmia.w	r1, {r3, r4, r5}
100045da:	c807      	ldmia	r0, {r0, r1, r2}
100045dc:	ea31 0c40 	bics.w	ip, r1, r0, lsl #1
100045e0:	bf48      	it	mi
100045e2:	ea34 0c43 	bicsmi.w	ip, r4, r3, lsl #1
100045e6:	d503      	bpl.n	100045f0 <_btod_ediv+0x24>
100045e8:	f7ff fde6 	bl	100041b8 <__btod_div_common>
100045ec:	f7ff ff80 	bl	100044f0 <_e2e>
100045f0:	bcf0      	pop	{r4, r5, r6, r7}
100045f2:	e8bd 8c00 	ldmia.w	sp!, {sl, fp, pc}

100045f6 <_btod_emul>:
100045f6:	e92d 4c80 	stmdb	sp!, {r7, sl, fp, lr}
100045fa:	b470      	push	{r4, r5, r6}
100045fc:	469a      	mov	sl, r3
100045fe:	4693      	mov	fp, r2
10004600:	e891 0038 	ldmia.w	r1, {r3, r4, r5}
10004604:	c807      	ldmia	r0, {r0, r1, r2}
10004606:	f010 4f80 	tst.w	r0, #1073741824	; 0x40000000
1000460a:	bf08      	it	eq
1000460c:	f013 4f80 	tsteq.w	r3, #1073741824	; 0x40000000
10004610:	d103      	bne.n	1000461a <_btod_emul+0x24>
10004612:	f000 f805 	bl	10004620 <__btod_mult_common>
10004616:	f7ff ff6b 	bl	100044f0 <_e2e>
1000461a:	bcf0      	pop	{r4, r5, r6, r7}
1000461c:	e8bd 8c00 	ldmia.w	sp!, {sl, fp, pc}

10004620 <__btod_mult_common>:
10004620:	f020 477f 	bic.w	r7, r0, #4278190080	; 0xff000000
10004624:	f023 4c7f 	bic.w	ip, r3, #4278190080	; 0xff000000
10004628:	ea80 0003 	eor.w	r0, r0, r3
1000462c:	f000 4000 	and.w	r0, r0, #2147483648	; 0x80000000
10004630:	eb07 030c 	add.w	r3, r7, ip
10004634:	f5a3 537c 	sub.w	r3, r3, #16128	; 0x3f00
10004638:	f1a3 03fe 	sub.w	r3, r3, #254	; 0xfe
1000463c:	f092 0f00 	teq	r2, #0
10004640:	f000 80b3 	beq.w	100047aa <__btod_mult_common+0x18a>
10004644:	f095 0f00 	teq	r5, #0
10004648:	f000 8077 	beq.w	1000473a <__btod_mult_common+0x11a>
1000464c:	e92d 4901 	stmdb	sp!, {r0, r8, fp, lr}
10004650:	ea4f 4011 	mov.w	r0, r1, lsr #16
10004654:	ea21 4800 	bic.w	r8, r1, r0, lsl #16
10004658:	ea4f 4614 	mov.w	r6, r4, lsr #16
1000465c:	ea24 4706 	bic.w	r7, r4, r6, lsl #16
10004660:	fb00 fc06 	mul.w	ip, r0, r6
10004664:	fb08 f606 	mul.w	r6, r8, r6
10004668:	fb07 f808 	mul.w	r8, r7, r8
1000466c:	eb18 4806 	adds.w	r8, r8, r6, lsl #16
10004670:	eb4c 4c16 	adc.w	ip, ip, r6, lsr #16
10004674:	fb00 f707 	mul.w	r7, r0, r7
10004678:	eb18 4807 	adds.w	r8, r8, r7, lsl #16
1000467c:	eb4c 4017 	adc.w	r0, ip, r7, lsr #16
10004680:	ea4f 4b12 	mov.w	fp, r2, lsr #16
10004684:	ea22 4e0b 	bic.w	lr, r2, fp, lsl #16
10004688:	ea4f 4615 	mov.w	r6, r5, lsr #16
1000468c:	ea25 4706 	bic.w	r7, r5, r6, lsl #16
10004690:	fb0b fc06 	mul.w	ip, fp, r6
10004694:	fb0e f606 	mul.w	r6, lr, r6
10004698:	fb07 fe0e 	mul.w	lr, r7, lr
1000469c:	eb1e 4e06 	adds.w	lr, lr, r6, lsl #16
100046a0:	eb4c 4c16 	adc.w	ip, ip, r6, lsr #16
100046a4:	fb0b f707 	mul.w	r7, fp, r7
100046a8:	eb1e 4e07 	adds.w	lr, lr, r7, lsl #16
100046ac:	eb4c 4b17 	adc.w	fp, ip, r7, lsr #16
100046b0:	eb18 080b 	adds.w	r8, r8, fp
100046b4:	f140 0000 	adc.w	r0, r0, #0
100046b8:	eb18 0b0e 	adds.w	fp, r8, lr
100046bc:	eb58 0800 	adcs.w	r8, r8, r0
100046c0:	f140 0000 	adc.w	r0, r0, #0
100046c4:	1a8f      	subs	r7, r1, r2
100046c6:	f04f 0100 	mov.w	r1, #0
100046ca:	f04f 0600 	mov.w	r6, #0
100046ce:	bf3c      	itt	cc
100046d0:	43c9      	mvncc	r1, r1
100046d2:	1b66      	subcc	r6, r4, r5
100046d4:	bf14      	ite	ne
100046d6:	ebb5 0c04 	subsne.w	ip, r5, r4
100046da:	2100      	moveq	r1, #0
100046dc:	bf3c      	itt	cc
100046de:	43c9      	mvncc	r1, r1
100046e0:	1bf6      	subcc	r6, r6, r7
100046e2:	ea4f 4417 	mov.w	r4, r7, lsr #16
100046e6:	ea27 4504 	bic.w	r5, r7, r4, lsl #16
100046ea:	ea4f 471c 	mov.w	r7, ip, lsr #16
100046ee:	ea2c 4c07 	bic.w	ip, ip, r7, lsl #16
100046f2:	fb04 6207 	mla	r2, r4, r7, r6
100046f6:	fb05 f707 	mul.w	r7, r5, r7
100046fa:	fb0c f605 	mul.w	r6, ip, r5
100046fe:	eb16 4607 	adds.w	r6, r6, r7, lsl #16
10004702:	eb42 4217 	adc.w	r2, r2, r7, lsr #16
10004706:	fb04 fc0c 	mul.w	ip, r4, ip
1000470a:	eb16 460c 	adds.w	r6, r6, ip, lsl #16
1000470e:	eb42 421c 	adc.w	r2, r2, ip, lsr #16
10004712:	eb1b 0606 	adds.w	r6, fp, r6
10004716:	eb58 0202 	adcs.w	r2, r8, r2
1000471a:	4141      	adcs	r1, r0
1000471c:	ea4e 0e8e 	orr.w	lr, lr, lr, lsl #2
10004720:	ea46 069e 	orr.w	r6, r6, lr, lsr #2
10004724:	d501      	bpl.n	1000472a <__btod_mult_common+0x10a>
10004726:	e8bd 8901 	ldmia.w	sp!, {r0, r8, fp, pc}
1000472a:	19b6      	adds	r6, r6, r6
1000472c:	4152      	adcs	r2, r2
1000472e:	eb41 0101 	adc.w	r1, r1, r1
10004732:	f1a3 0301 	sub.w	r3, r3, #1
10004736:	e8bd 8901 	ldmia.w	sp!, {r0, r8, fp, pc}
1000473a:	ea4f 4514 	mov.w	r5, r4, lsr #16
1000473e:	ea24 4605 	bic.w	r6, r4, r5, lsl #16
10004742:	ea4f 4711 	mov.w	r7, r1, lsr #16
10004746:	ea21 4c07 	bic.w	ip, r1, r7, lsl #16
1000474a:	fb05 f407 	mul.w	r4, r5, r7
1000474e:	fb06 f707 	mul.w	r7, r6, r7
10004752:	fb0c f106 	mul.w	r1, ip, r6
10004756:	eb11 4107 	adds.w	r1, r1, r7, lsl #16
1000475a:	eb44 4417 	adc.w	r4, r4, r7, lsr #16
1000475e:	fb05 fc0c 	mul.w	ip, r5, ip
10004762:	eb11 410c 	adds.w	r1, r1, ip, lsl #16
10004766:	eb44 441c 	adc.w	r4, r4, ip, lsr #16
1000476a:	ea4f 4712 	mov.w	r7, r2, lsr #16
1000476e:	ea22 4c07 	bic.w	ip, r2, r7, lsl #16
10004772:	fb05 f207 	mul.w	r2, r5, r7
10004776:	fb06 f707 	mul.w	r7, r6, r7
1000477a:	fb0c f606 	mul.w	r6, ip, r6
1000477e:	eb16 4607 	adds.w	r6, r6, r7, lsl #16
10004782:	eb42 4217 	adc.w	r2, r2, r7, lsr #16
10004786:	fb05 fc0c 	mul.w	ip, r5, ip
1000478a:	eb16 460c 	adds.w	r6, r6, ip, lsl #16
1000478e:	eb42 451c 	adc.w	r5, r2, ip, lsr #16
10004792:	186a      	adds	r2, r5, r1
10004794:	f154 0100 	adcs.w	r1, r4, #0
10004798:	bf48      	it	mi
1000479a:	4770      	bxmi	lr
1000479c:	19b6      	adds	r6, r6, r6
1000479e:	4152      	adcs	r2, r2
100047a0:	eb41 0101 	adc.w	r1, r1, r1
100047a4:	f1a3 0301 	sub.w	r3, r3, #1
100047a8:	4770      	bx	lr
100047aa:	f095 0f00 	teq	r5, #0
100047ae:	d037      	beq.n	10004820 <__btod_mult_common+0x200>
100047b0:	ea4f 4211 	mov.w	r2, r1, lsr #16
100047b4:	ea21 4602 	bic.w	r6, r1, r2, lsl #16
100047b8:	ea4f 4714 	mov.w	r7, r4, lsr #16
100047bc:	ea24 4c07 	bic.w	ip, r4, r7, lsl #16
100047c0:	fb02 f107 	mul.w	r1, r2, r7
100047c4:	fb06 f707 	mul.w	r7, r6, r7
100047c8:	fb0c f406 	mul.w	r4, ip, r6
100047cc:	eb14 4407 	adds.w	r4, r4, r7, lsl #16
100047d0:	eb41 4117 	adc.w	r1, r1, r7, lsr #16
100047d4:	fb02 fc0c 	mul.w	ip, r2, ip
100047d8:	eb14 440c 	adds.w	r4, r4, ip, lsl #16
100047dc:	eb41 411c 	adc.w	r1, r1, ip, lsr #16
100047e0:	ea4f 4715 	mov.w	r7, r5, lsr #16
100047e4:	ea25 4c07 	bic.w	ip, r5, r7, lsl #16
100047e8:	fb02 f507 	mul.w	r5, r2, r7
100047ec:	fb06 f707 	mul.w	r7, r6, r7
100047f0:	fb0c f606 	mul.w	r6, ip, r6
100047f4:	eb16 4607 	adds.w	r6, r6, r7, lsl #16
100047f8:	eb45 4517 	adc.w	r5, r5, r7, lsr #16
100047fc:	fb02 fc0c 	mul.w	ip, r2, ip
10004800:	eb16 460c 	adds.w	r6, r6, ip, lsl #16
10004804:	eb45 421c 	adc.w	r2, r5, ip, lsr #16
10004808:	1912      	adds	r2, r2, r4
1000480a:	f151 0100 	adcs.w	r1, r1, #0
1000480e:	bf48      	it	mi
10004810:	4770      	bxmi	lr
10004812:	19b6      	adds	r6, r6, r6
10004814:	4152      	adcs	r2, r2
10004816:	eb41 0101 	adc.w	r1, r1, r1
1000481a:	f1a3 0301 	sub.w	r3, r3, #1
1000481e:	4770      	bx	lr
10004820:	ea4f 4514 	mov.w	r5, r4, lsr #16
10004824:	ea24 4605 	bic.w	r6, r4, r5, lsl #16
10004828:	ea4f 4711 	mov.w	r7, r1, lsr #16
1000482c:	ea21 4c07 	bic.w	ip, r1, r7, lsl #16
10004830:	fb05 f107 	mul.w	r1, r5, r7
10004834:	fb06 f707 	mul.w	r7, r6, r7
10004838:	fb0c f206 	mul.w	r2, ip, r6
1000483c:	eb12 4207 	adds.w	r2, r2, r7, lsl #16
10004840:	eb41 4117 	adc.w	r1, r1, r7, lsr #16
10004844:	fb05 fc0c 	mul.w	ip, r5, ip
10004848:	eb12 420c 	adds.w	r2, r2, ip, lsl #16
1000484c:	eb51 411c 	adcs.w	r1, r1, ip, lsr #16
10004850:	f04f 0600 	mov.w	r6, #0
10004854:	bf48      	it	mi
10004856:	4770      	bxmi	lr
10004858:	1892      	adds	r2, r2, r2
1000485a:	eb41 0101 	adc.w	r1, r1, r1
1000485e:	f1a3 0301 	sub.w	r3, r3, #1
10004862:	4770      	bx	lr

10004864 <__ARM_fpclassify>:
10004864:	b403      	push	{r0, r1}
10004866:	9801      	ldr	r0, [sp, #4]
10004868:	0041      	lsls	r1, r0, #1
1000486a:	9800      	ldr	r0, [sp, #0]
1000486c:	ea50 20c1 	orrs.w	r0, r0, r1, lsl #11
10004870:	bf18      	it	ne
10004872:	2004      	movne	r0, #4
10004874:	0d4a      	lsrs	r2, r1, #21
10004876:	bf18      	it	ne
10004878:	f040 0001 	orrne.w	r0, r0, #1
1000487c:	f240 72ff 	movw	r2, #2047	; 0x7ff
10004880:	ebb2 5f51 	cmp.w	r2, r1, lsr #21
10004884:	bf08      	it	eq
10004886:	f040 0002 	orreq.w	r0, r0, #2
1000488a:	2801      	cmp	r0, #1
1000488c:	bf08      	it	eq
1000488e:	2005      	moveq	r0, #5
10004890:	b002      	add	sp, #8
10004892:	4770      	bx	lr

10004894 <_is_digit>:
10004894:	3830      	subs	r0, #48	; 0x30
10004896:	280a      	cmp	r0, #10
10004898:	d201      	bcs.n	1000489e <_is_digit+0xa>
1000489a:	2001      	movs	r0, #1
1000489c:	4770      	bx	lr
1000489e:	2000      	movs	r0, #0
100048a0:	4770      	bx	lr

100048a2 <fputc>:
100048a2:	688a      	ldr	r2, [r1, #8]
100048a4:	2a00      	cmp	r2, #0
100048a6:	dc02      	bgt.n	100048ae <fputc+0xc>
100048a8:	2200      	movs	r2, #0
100048aa:	f7fc bfcd 	b.w	10001848 <__flsbuf>
100048ae:	1e52      	subs	r2, r2, #1
100048b0:	608a      	str	r2, [r1, #8]
100048b2:	684a      	ldr	r2, [r1, #4]
100048b4:	b2c0      	uxtb	r0, r0
100048b6:	1c53      	adds	r3, r2, #1
100048b8:	604b      	str	r3, [r1, #4]
100048ba:	7010      	strb	r0, [r2, #0]
100048bc:	4770      	bx	lr
	...

100048c0 <_get_lc_numeric>:
100048c0:	b510      	push	{r4, lr}
100048c2:	2900      	cmp	r1, #0
100048c4:	d00a      	beq.n	100048dc <_get_lc_numeric+0x1c>
100048c6:	7808      	ldrb	r0, [r1, #0]
100048c8:	2800      	cmp	r0, #0
100048ca:	d007      	beq.n	100048dc <_get_lc_numeric+0x1c>
100048cc:	4805      	ldr	r0, [pc, #20]	; (100048e4 <_get_lc_numeric+0x24>)
100048ce:	4478      	add	r0, pc
100048d0:	f7fb febe 	bl	10000650 <strcmp>
100048d4:	2800      	cmp	r0, #0
100048d6:	d001      	beq.n	100048dc <_get_lc_numeric+0x1c>
100048d8:	2000      	movs	r0, #0
100048da:	bd10      	pop	{r4, pc}
100048dc:	4802      	ldr	r0, [pc, #8]	; (100048e8 <_get_lc_numeric+0x28>)
100048de:	4478      	add	r0, pc
100048e0:	bd10      	pop	{r4, pc}
100048e2:	0000      	.short	0x0000
100048e4:	00001ba2 	.word	0x00001ba2
100048e8:	00001b9a 	.word	0x00001b9a

100048ec <_get_lc_ctype>:
100048ec:	b510      	push	{r4, lr}
100048ee:	2900      	cmp	r1, #0
100048f0:	d00a      	beq.n	10004908 <_get_lc_ctype+0x1c>
100048f2:	7808      	ldrb	r0, [r1, #0]
100048f4:	2800      	cmp	r0, #0
100048f6:	d007      	beq.n	10004908 <_get_lc_ctype+0x1c>
100048f8:	4805      	ldr	r0, [pc, #20]	; (10004910 <_get_lc_ctype+0x24>)
100048fa:	4478      	add	r0, pc
100048fc:	f7fb fea8 	bl	10000650 <strcmp>
10004900:	2800      	cmp	r0, #0
10004902:	d001      	beq.n	10004908 <_get_lc_ctype+0x1c>
10004904:	2000      	movs	r0, #0
10004906:	bd10      	pop	{r4, pc}
10004908:	4802      	ldr	r0, [pc, #8]	; (10004914 <_get_lc_ctype+0x28>)
1000490a:	4478      	add	r0, pc
1000490c:	bd10      	pop	{r4, pc}
1000490e:	0000      	.short	0x0000
10004910:	00001b92 	.word	0x00001b92
10004914:	00001b8a 	.word	0x00001b8a

10004918 <_fp_init>:
10004918:	eef1 0a10 	vmrs	r0, fpscr
1000491c:	f64f 71ff 	movw	r1, #65535	; 0xffff
10004920:	f2c0 31c0 	movt	r1, #960	; 0x3c0
10004924:	ea20 0001 	bic.w	r0, r0, r1
10004928:	f040 7040 	orr.w	r0, r0, #50331648	; 0x3000000
1000492c:	eee1 0a10 	vmsr	fpscr, r0

10004930 <__fplib_config_fpu_vfp>:
10004930:	4770      	bx	lr

10004932 <_printf_fp_dec>:
10004932:	f7fc bae7 	b.w	10000f04 <_printf_fp_dec_real>

10004936 <_printf_fp_hex>:
10004936:	f7fc bc1b 	b.w	10001170 <_printf_fp_hex_real>

1000493a <__I$use$fp>:
	...

1000493c <initial_mbstate>:
	...

10004944 <uc_hextab>:
10004944:	3130 3332 3534 3736 3938 4241 4443 4645     0123456789ABCDEF
10004954:	3040 0058                                   @0X.

10004958 <lc_hextab>:
10004958:	3130 3332 3534 3736 3938 6261 6463 6665     0123456789abcdef
10004968:	3040 0078                                   @0x.

1000496c <maptable>:
1000496c:	0004 0800 0000 0000 0000 0200 0100 0000     ................
1000497c:	3010                                             .

1000497d <lc_hextab>:
1000497d:	3130 3332 3534 3736 3938 6261 6463 6665     0123456789abcdef
1000498d:	7078 3000                                        xp.

10004990 <uc_hextab>:
10004990:	3130 3332 3534 3736 3938 4241 4443 4645     0123456789ABCDEF
100049a0:	5058 0000                                   XP..

100049a4 <tenpwrs_x>:
100049a4:	4002 0000 0000 a000 0000 0000 4005 0000     .@...........@..
100049b4:	0000 c800 0000 0000 400c 0000 0000 9c40     .........@....@.
100049c4:	0000 0000 4019 0000 2000 bebc 0000 0000     .....@... ......
100049d4:	4034 0000 c9bf 8e1b 0000 0400               4@..........

100049e0 <tenpwrs_i>:
100049e0:	40b5 0000 4b50 d0cf 0766 cfe2 0001 0000     .@..PK..f.......
100049f0:	416c 0000 823e aa51 eedf 34a7 0001 0000     lA..>.Q....4....
10004a00:	42d9 0000 b5dc e2a0 303a 971f ffff ffff     .B......:0......
10004a10:	45b4 0000 25fd c8a0 a3e9 4fc1 ffff ffff     .E...%.....O....
10004a20:	3fff 0000 0000 8000 0000 0000 3fff 0000     .?...........?..
10004a30:	0000 8000 0000 0000                         ........

10004a38 <Driver_USART0>:
10004a38:	3345 1000 2c31 1000 2c99 1000 2d41 1000     E3..1,...,..A-..
10004a48:	2cb1 1000 2ce9 1000 2ccd 1000 2d21 1000     .,...,...,..!-..
10004a58:	2c89 1000 2c61 1000 2c15 1000 2c71 1000     .,..a,...,..q,..
10004a68:	2d05 1000 2c49 1000                         .-..I,..

10004a70 <Font_16x24_h>:
	...
10004aa0:	0000 0180 0180 0180 0180 0180 0180 0180     ................
10004ab0:	0180 0180 0180 0180 0180 0180 0000 0000     ................
10004ac0:	0180 0180 0000 0000 0000 0000 0000 0000     ................
10004ad0:	0000 0000 00cc 00cc 00cc 00cc 00cc 00cc     ................
	...
10004b0c:	0c60 0c60 0c60 0630 0630 1ffe 1ffe 0630     `.`.`.0.0.....0.
10004b1c:	0738 0318 1ffe 1ffe 0318 0318 018c 018c     8...............
10004b2c:	018c 0000 0000 0080 03e0 0ff8 0e9c 1c8c     ................
10004b3c:	188c 008c 0098 01f8 07e0 0e80 1c80 188c     ................
10004b4c:	188c 189c 0cb8 0ff0 03e0 0080 0080 0000     ................
	...
10004b64:	0000 180e 0c1b 0c11 0611 0611 0311 0311     ................
10004b74:	019b 018e 38c0 6cc0 4460 4460 4430 4430     .....8.l`D`D0D0D
10004b84:	4418 6c18 380c 0000 0000 0000 0000 01e0     .D.l.8..........
10004b94:	03f0 0738 0618 0618 0330 01f0 00f0 00f8     ..8.....0.......
10004ba4:	319c 330e 1e06 1c06 1c06 3f06 73fc 21f0     .1.3.......?.s.!
	...
10004bc4:	000c 000c 000c 000c 000c 000c 0000 0000     ................
	...
10004bf0:	0000 0200 0300 0180 00c0 00c0 0060 0060     ............`.`.
10004c00:	0030 0030 0030 0030 0030 0030 0030 0030     0.0.0.0.0.0.0.0.
10004c10:	0060 0060 00c0 00c0 0180 0300 0200 0000     `.`.............
10004c20:	0000 0020 0060 00c0 0180 0180 0300 0300     .. .`...........
10004c30:	0600 0600 0600 0600 0600 0600 0600 0600     ................
10004c40:	0300 0300 0180 0180 00c0 0060 0020 0000     ..........`. ...
	...
10004c5c:	00c0 00c0 06d8 07f8 01e0 0330 0738 0000     ..........0.8...
	...
10004c8c:	0180 0180 0180 0180 0180 3ffc 3ffc 0180     ...........?.?..
10004c9c:	0180 0180 0180 0180 0000 0000 0000 0000     ................
	...
10004cd0:	0000 0180 0180 0100 0100 0080 0000 0000     ................
	...
10004cf8:	07e0 07e0 0000 0000 0000 0000 0000 0000     ................
	...
10004d30:	0000 00c0 00c0 0000 0000 0000 0000 0000     ................
10004d40:	0000 0c00 0c00 0600 0600 0600 0300 0300     ................
10004d50:	0300 0380 0180 0180 0180 00c0 00c0 00c0     ................
10004d60:	0060 0060 0000 0000 0000 0000 0000 0000     `.`.............
10004d70:	0000 03e0 07f0 0e38 0c18 180c 180c 180c     ......8.........
10004d80:	180c 180c 180c 180c 180c 180c 0c18 0e38     ..............8.
10004d90:	07f0 03e0 0000 0000 0000 0000 0000 0000     ................
10004da0:	0000 0100 0180 01c0 01f0 0198 0188 0180     ................
10004db0:	0180 0180 0180 0180 0180 0180 0180 0180     ................
10004dc0:	0180 0180 0000 0000 0000 0000 0000 0000     ................
10004dd0:	0000 03e0 0ff8 0c18 180c 180c 1800 1800     ................
10004de0:	0c00 0600 0300 0180 00c0 0060 0030 0018     ..........`.0...
10004df0:	1ffc 1ffc 0000 0000 0000 0000 0000 0000     ................
10004e00:	0000 01e0 07f8 0e18 0c0c 0c0c 0c00 0600     ................
10004e10:	03c0 07c0 0c00 1800 1800 180c 180c 0c18     ................
10004e20:	07f8 03e0 0000 0000 0000 0000 0000 0000     ................
10004e30:	0000 0c00 0e00 0f00 0f00 0d80 0cc0 0c60     ..............`.
10004e40:	0c60 0c30 0c18 0c0c 3ffc 3ffc 0c00 0c00     `.0......?.?....
10004e50:	0c00 0c00 0000 0000 0000 0000 0000 0000     ................
10004e60:	0000 0ff8 0ff8 0018 0018 000c 03ec 07fc     ................
10004e70:	0e1c 1c00 1800 1800 1800 180c 0c1c 0e18     ................
10004e80:	07f8 03e0 0000 0000 0000 0000 0000 0000     ................
10004e90:	0000 07c0 0ff0 1c38 1818 0018 000c 03cc     ......8.........
10004ea0:	0fec 0e3c 1c1c 180c 180c 180c 1c18 0e38     ..<...........8.
10004eb0:	07f0 03e0 0000 0000 0000 0000 0000 0000     ................
10004ec0:	0000 1ffc 1ffc 0c00 0600 0600 0300 0380     ................
10004ed0:	0180 01c0 00c0 00e0 0060 0060 0070 0030     ........`.`.p.0.
10004ee0:	0030 0030 0000 0000 0000 0000 0000 0000     0.0.............
10004ef0:	0000 03e0 07f0 0e38 0c18 0c18 0c18 0638     ......8.......8.
10004f00:	07f0 07f0 0c18 180c 180c 180c 180c 0c38     ..............8.
10004f10:	0ff8 03e0 0000 0000 0000 0000 0000 0000     ................
10004f20:	0000 03e0 07f0 0e38 0c1c 180c 180c 180c     ......8.........
10004f30:	1c1c 1e38 1bf8 19e0 1800 0c00 0c00 0e1c     ..8.............
10004f40:	07f8 01f0 0000 0000 0000 0000 0000 0000     ................
	...
10004f5c:	0180 0180 0000 0000 0000 0000 0000 0000     ................
10004f6c:	0000 0000 0180 0180 0000 0000 0000 0000     ................
	...
10004f8c:	0180 0180 0000 0000 0000 0000 0000 0000     ................
10004f9c:	0000 0000 0180 0180 0100 0100 0080 0000     ................
	...
10004fc0:	1000 1c00 0f80 03e0 00f8 0018 00f8 03e0     ................
10004fd0:	0f80 1c00 1000 0000 0000 0000 0000 0000     ................
	...
10004ff0:	1ff8 0000 0000 0000 1ff8 0000 0000 0000     ................
	...
10005020:	0008 0038 01f0 07c0 1f00 1800 1f00 07c0     ..8.............
10005030:	01f0 0038 0008 0000 0000 0000 0000 0000     ..8.............
10005040:	0000 03e0 0ff8 0c18 180c 180c 1800 0c00     ................
10005050:	0600 0300 0180 00c0 00c0 00c0 0000 0000     ................
10005060:	00c0 00c0 0000 0000 0000 0000 0000 0000     ................
10005070:	0000 0000 07e0 1818 2004 29c2 4a22 4411     ......... .)"J.D
10005080:	4409 4409 4409 2209 1311 0ce2 4002 2004     .D.D.D.".....@. 
10005090:	1818 07e0 0000 0000 0000 0000 0000 0000     ................
100050a0:	0000 0380 0380 06c0 06c0 06c0 0c60 0c60     ............`.`.
100050b0:	1830 1830 1830 3ff8 3ff8 701c 600c 600c     0.0.0..?.?.p.`.`
100050c0:	c006 c006 0000 0000 0000 0000 0000 0000     ................
100050d0:	0000 03fc 0ffc 0c0c 180c 180c 180c 0c0c     ................
100050e0:	07fc 0ffc 180c 300c 300c 300c 300c 180c     .......0.0.0.0..
100050f0:	1ffc 07fc 0000 0000 0000 0000 0000 0000     ................
10005100:	0000 07c0 1ff0 3838 301c 700c 6006 0006     ......88.0.p.`..
10005110:	0006 0006 0006 0006 0006 6006 700c 301c     ...........`.p.0
10005120:	1ff0 07e0 0000 0000 0000 0000 0000 0000     ................
10005130:	0000 03fe 0ffe 0e06 1806 1806 3006 3006     .............0.0
10005140:	3006 3006 3006 3006 3006 1806 1806 0e06     .0.0.0.0.0......
10005150:	0ffe 03fe 0000 0000 0000 0000 0000 0000     ................
10005160:	0000 3ffc 3ffc 000c 000c 000c 000c 000c     ...?.?..........
10005170:	1ffc 1ffc 000c 000c 000c 000c 000c 000c     ................
10005180:	3ffc 3ffc 0000 0000 0000 0000 0000 0000     .?.?............
10005190:	0000 3ff8 3ff8 0018 0018 0018 0018 0018     ...?.?..........
100051a0:	1ff8 1ff8 0018 0018 0018 0018 0018 0018     ................
100051b0:	0018 0018 0000 0000 0000 0000 0000 0000     ................
100051c0:	0000 0fe0 3ff8 783c 600e e006 c007 0003     .....?<x.`......
100051d0:	0003 fe03 fe03 c003 c007 c006 c00e f03c     ..............<.
100051e0:	3ff8 0fe0 0000 0000 0000 0000 0000 0000     .?..............
100051f0:	0000 300c 300c 300c 300c 300c 300c 300c     ...0.0.0.0.0.0.0
10005200:	3ffc 3ffc 300c 300c 300c 300c 300c 300c     .?.?.0.0.0.0.0.0
10005210:	300c 300c 0000 0000 0000 0000 0000 0000     .0.0............
10005220:	0000 0180 0180 0180 0180 0180 0180 0180     ................
10005230:	0180 0180 0180 0180 0180 0180 0180 0180     ................
10005240:	0180 0180 0000 0000 0000 0000 0000 0000     ................
10005250:	0000 0600 0600 0600 0600 0600 0600 0600     ................
10005260:	0600 0600 0600 0600 0600 0618 0618 0738     ..............8.
10005270:	03f0 01e0 0000 0000 0000 0000 0000 0000     ................
10005280:	0000 3006 1806 0c06 0606 0306 0186 00c6     ...0............
10005290:	0066 0076 00de 018e 0306 0606 0c06 1806     f.v.............
100052a0:	3006 6006 0000 0000 0000 0000 0000 0000     .0.`............
100052b0:	0000 0018 0018 0018 0018 0018 0018 0018     ................
100052c0:	0018 0018 0018 0018 0018 0018 0018 0018     ................
100052d0:	1ff8 1ff8 0000 0000 0000 0000 0000 0000     ................
100052e0:	0000 e00e f01e f01e f01e d836 d836 d836     ..........6.6.6.
100052f0:	d836 cc66 cc66 cc66 c6c6 c6c6 c6c6 c6c6     6.f.f.f.........
10005300:	c386 c386 0000 0000 0000 0000 0000 0000     ................
10005310:	0000 300c 301c 303c 303c 306c 306c 30cc     ...0.0<0<0l0l0.0
10005320:	30cc 318c 330c 330c 360c 360c 3c0c 3c0c     .0.1.3.3.6.6.<.<
10005330:	380c 300c 0000 0000 0000 0000 0000 0000     .8.0............
10005340:	0000 07e0 1ff8 381c 700e 6006 c003 c003     .......8.p.`....
10005350:	c003 c003 c003 c003 c003 6006 700e 381c     ...........`.p.8
10005360:	1ff8 07e0 0000 0000 0000 0000 0000 0000     ................
10005370:	0000 0ffc 1ffc 380c 300c 300c 300c 300c     .......8.0.0.0.0
10005380:	180c 1ffc 07fc 000c 000c 000c 000c 000c     ................
10005390:	000c 000c 0000 0000 0000 0000 0000 0000     ................
100053a0:	0000 07e0 1ff8 381c 700e 6006 e003 c003     .......8.p.`....
100053b0:	c003 c003 c003 c003 e007 6306 3f0e 3c1c     ...........c.?.<
100053c0:	3ff8 f7e0 c000 0000 0000 0000 0000 0000     .?..............
100053d0:	0000 0ffe 1ffe 3806 3006 3006 3006 3806     .......8.0.0.0.8
100053e0:	1ffe 07fe 0306 0606 0c06 1806 1806 3006     ...............0
100053f0:	3006 6006 0000 0000 0000 0000 0000 0000     .0.`............
10005400:	0000 03e0 0ff8 0c1c 180c 180c 000c 001c     ................
10005410:	03f8 0fe0 1e00 3800 3006 3006 300e 1c1c     .......8.0.0.0..
10005420:	0ff8 07e0 0000 0000 0000 0000 0000 0000     ................
10005430:	0000 7ffe 7ffe 0180 0180 0180 0180 0180     ................
10005440:	0180 0180 0180 0180 0180 0180 0180 0180     ................
10005450:	0180 0180 0000 0000 0000 0000 0000 0000     ................
10005460:	0000 300c 300c 300c 300c 300c 300c 300c     ...0.0.0.0.0.0.0
10005470:	300c 300c 300c 300c 300c 300c 300c 1818     .0.0.0.0.0.0.0..
10005480:	1ff8 07e0 0000 0000 0000 0000 0000 0000     ................
10005490:	0000 6003 3006 3006 3006 180c 180c 180c     ...`.0.0.0......
100054a0:	0c18 0c18 0e38 0630 0630 0770 0360 0360     ....8.0.0.p.`.`.
100054b0:	01c0 01c0 0000 0000 0000 0000 0000 0000     ................
100054c0:	0000 6003 61c3 61c3 61c3 3366 3366 3366     ...`.a.a.af3f3f3
100054d0:	3366 3366 3366 1b6c 1b6c 1b6c 1a2c 1e3c     f3f3f3l.l.l.,.<.
100054e0:	0e38 0e38 0000 0000 0000 0000 0000 0000     8.8.............
100054f0:	0000 e00f 700c 3018 1830 0c70 0e60 07c0     .....p.00.p.`...
10005500:	0380 0380 03c0 06e0 0c70 1c30 1818 300c     ........p.0....0
10005510:	600e e007 0000 0000 0000 0000 0000 0000     .`..............
10005520:	0000 c003 6006 300c 381c 1838 0c30 0660     .....`.0.88.0.`.
10005530:	07e0 03c0 0180 0180 0180 0180 0180 0180     ................
10005540:	0180 0180 0000 0000 0000 0000 0000 0000     ................
10005550:	0000 7ffc 7ffc 6000 3000 1800 0c00 0600     .......`.0......
10005560:	0300 0180 00c0 0060 0030 0018 000c 0006     ......`.0.......
10005570:	7ffe 7ffe 0000 0000 0000 0000 0000 0000     ................
10005580:	0000 03e0 03e0 0060 0060 0060 0060 0060     ......`.`.`.`.`.
10005590:	0060 0060 0060 0060 0060 0060 0060 0060     `.`.`.`.`.`.`.`.
100055a0:	0060 0060 0060 0060 0060 03e0 03e0 0000     `.`.`.`.`.......
100055b0:	0000 0030 0030 0060 0060 0060 00c0 00c0     ..0.0.`.`.`.....
100055c0:	00c0 01c0 0180 0180 0180 0300 0300 0300     ................
100055d0:	0600 0600 0000 0000 0000 0000 0000 0000     ................
100055e0:	0000 03e0 03e0 0300 0300 0300 0300 0300     ................
100055f0:	0300 0300 0300 0300 0300 0300 0300 0300     ................
10005600:	0300 0300 0300 0300 0300 03e0 03e0 0000     ................
10005610:	0000 0000 01c0 01c0 0360 0360 0360 0630     ........`.`.`.0.
10005620:	0630 0c18 0c18 0000 0000 0000 0000 0000     0...............
	...
10005660:	0000 ffff ffff 0000 0000 0000 0000 0000     ................
10005670:	0000 000c 000c 000c 000c 000c 000c 0000     ................
	...
100056ac:	03f0 07f8 0c1c 0c0c 0f00 0ff0 0cf8 0c0c     ................
100056bc:	0c0c 0f1c 0ff8 18f0 0000 0000 0000 0000     ................
100056cc:	0000 0000 0000 0018 0018 0018 0018 0018     ................
100056dc:	03d8 0ff8 0c38 1818 1818 1818 1818 1818     ....8...........
100056ec:	1818 0c38 0ff8 03d8 0000 0000 0000 0000     ..8.............
	...
1000570c:	03c0 07f0 0e30 0c18 0018 0018 0018 0018     ....0...........
1000571c:	0c18 0e30 07f0 03c0 0000 0000 0000 0000     ..0.............
1000572c:	0000 0000 0000 1800 1800 1800 1800 1800     ................
1000573c:	1bc0 1ff0 1c30 1818 1818 1818 1818 1818     ....0...........
1000574c:	1818 1c30 1ff0 1bc0 0000 0000 0000 0000     ..0.............
	...
1000576c:	03c0 0ff0 0c30 1818 1ff8 1ff8 0018 0018     ....0...........
1000577c:	1838 1c30 0ff0 07c0 0000 0000 0000 0000     8.0.............
1000578c:	0000 0000 0000 0f80 0fc0 00c0 00c0 00c0     ................
1000579c:	07f0 07f0 00c0 00c0 00c0 00c0 00c0 00c0     ................
100057ac:	00c0 00c0 00c0 00c0 0000 0000 0000 0000     ................
	...
100057cc:	0de0 0ff8 0e18 0c0c 0c0c 0c0c 0c0c 0c0c     ................
100057dc:	0c0c 0e18 0ff8 0de0 0c00 0c0c 061c 07f8     ................
100057ec:	01f0 0000 0000 0018 0018 0018 0018 0018     ................
100057fc:	07d8 0ff8 1c38 1818 1818 1818 1818 1818     ....8...........
1000580c:	1818 1818 1818 1818 0000 0000 0000 0000     ................
1000581c:	0000 0000 0000 00c0 00c0 0000 0000 0000     ................
1000582c:	00c0 00c0 00c0 00c0 00c0 00c0 00c0 00c0     ................
1000583c:	00c0 00c0 00c0 00c0 0000 0000 0000 0000     ................
1000584c:	0000 0000 0000 00c0 00c0 0000 0000 0000     ................
1000585c:	00c0 00c0 00c0 00c0 00c0 00c0 00c0 00c0     ................
1000586c:	00c0 00c0 00c0 00c0 00c0 00c0 00c0 00f8     ................
1000587c:	0078 0000 0000 000c 000c 000c 000c 000c     x...............
1000588c:	0c0c 060c 030c 018c 00cc 006c 00fc 019c     ..........l.....
1000589c:	038c 030c 060c 0c0c 0000 0000 0000 0000     ................
100058ac:	0000 0000 0000 00c0 00c0 00c0 00c0 00c0     ................
100058bc:	00c0 00c0 00c0 00c0 00c0 00c0 00c0 00c0     ................
100058cc:	00c0 00c0 00c0 00c0 0000 0000 0000 0000     ................
	...
100058ec:	3c7c 7eff e3c7 c183 c183 c183 c183 c183     |<.~............
100058fc:	c183 c183 c183 c183 0000 0000 0000 0000     ................
	...
1000591c:	0798 0ff8 1c38 1818 1818 1818 1818 1818     ....8...........
1000592c:	1818 1818 1818 1818 0000 0000 0000 0000     ................
	...
1000594c:	03c0 0ff0 0c30 1818 1818 1818 1818 1818     ....0...........
1000595c:	1818 0c30 0ff0 03c0 0000 0000 0000 0000     ..0.............
	...
1000597c:	03d8 0ff8 0c38 1818 1818 1818 1818 1818     ....8...........
1000598c:	1818 0c38 0ff8 03d8 0018 0018 0018 0018     ..8.............
1000599c:	0018 0000 0000 0000 0000 0000 0000 0000     ................
100059ac:	1bc0 1ff0 1c30 1818 1818 1818 1818 1818     ....0...........
100059bc:	1818 1c30 1ff0 1bc0 1800 1800 1800 1800     ..0.............
100059cc:	1800 0000 0000 0000 0000 0000 0000 0000     ................
100059dc:	07b0 03f0 0070 0030 0030 0030 0030 0030     ....p.0.0.0.0.0.
100059ec:	0030 0030 0030 0030 0000 0000 0000 0000     0.0.0.0.........
	...
10005a0c:	03e0 03f0 0e38 0c18 0038 03f0 07c0 0c00     ....8...8.......
10005a1c:	0c18 0e38 07f0 03e0 0000 0000 0000 0000     ..8.............
	...
10005a34:	0080 00c0 00c0 00c0 07f0 07f0 00c0 00c0     ................
10005a44:	00c0 00c0 00c0 00c0 00c0 00c0 07c0 0780     ................
	...
10005a6c:	1818 1818 1818 1818 1818 1818 1818 1818     ................
10005a7c:	1818 1c38 1ff0 19e0 0000 0000 0000 0000     ..8.............
	...
10005a9c:	180c 0c18 0c18 0c18 0630 0630 0630 0360     ........0.0.0.`.
10005aac:	0360 0360 01c0 01c0 0000 0000 0000 0000     `.`.............
	...
10005acc:	41c1 41c1 61c3 6363 6363 6363 3636 3636     .A.A.acccccc6666
10005adc:	3636 1c1c 1c1c 1c1c 0000 0000 0000 0000     66..............
	...
10005afc:	381c 1c38 0c30 0660 03c0 03c0 03c0 03c0     .88.0.`.........
10005b0c:	0660 0c30 1c38 381c 0000 0000 0000 0000     `.0.8..8........
	...
10005b2c:	3018 1830 1830 1870 0c60 0c60 0ce0 06c0     .00.0.p.`.`.....
10005b3c:	06c0 0380 0380 0380 0180 0180 01c0 00f0     ................
10005b4c:	0070 0000 0000 0000 0000 0000 0000 0000     p...............
10005b5c:	1ffc 1ffc 0c00 0600 0300 0180 00c0 0060     ..............`.
10005b6c:	0030 0018 1ffc 1ffc 0000 0000 0000 0000     0...............
10005b7c:	0000 0000 0000 0300 0180 00c0 00c0 00c0     ................
10005b8c:	00c0 00c0 00c0 0060 0060 0030 0060 0040     ......`.`.0.`.@.
10005b9c:	00c0 00c0 00c0 00c0 00c0 00c0 0180 0300     ................
10005bac:	0000 0000 0000 0180 0180 0180 0180 0180     ................
10005bbc:	0180 0180 0180 0180 0180 0180 0180 0180     ................
10005bcc:	0180 0180 0180 0180 0180 0180 0180 0180     ................
10005bdc:	0180 0000 0000 0060 00c0 01c0 0180 0180     ......`.........
10005bec:	0180 0180 0180 0300 0300 0600 0300 0100     ................
10005bfc:	0180 0180 0180 0180 0180 0180 00c0 0060     ..............`.
	...
10005c20:	10f0 1ff8 0f08 0000 0000 0000 0000 0000     ................
	...
10005c78:	0000 03c0 0c30 1008 2004 2004 4002 4002     ....0.... . .@.@
10005c88:	4002 4002 4002 2004 2004 1008 0c30 03c0     .@.@.@. . ..0...
	...
10005ca8:	0000 03c0 0ff0 1ff8 3ffc 3ffc 7ffe 7ffe     .........?.?....
10005cb8:	7ffe 7ffe 7ffe 3ffc 3ffc 1ff8 0ff0 03c0     .......?.?......
	...
10005cdc:	0000 07e0 0ff0 1818 1818 1818 1818 1818     ................
10005cec:	1818 0ff0 07e0 0000 0000 0000 0000 0000     ................
	...
10005d0c:	0000 07e0 0ff0 1ff8 1ff8 1ff8 1ff8 1ff8     ................
10005d1c:	1ff8 0ff0 07e0 0000 0000 0000 0000 0000     ................
	...
10005d48:	0180 03c0 0660 0c30 1818 1818 1ff8 1ff8     ....`.0.........
	...
10005d78:	0180 03c0 07e0 0ff0 1ff8 1ff8 1ff8 1ff8     ................
	...
10005d98:	1ff8 1ff8 1818 1818 0c30 0660 03c0 0180     ........0.`.....
	...
10005dc8:	1ff8 1ff8 1ff8 1ff8 0ff0 07e0 03c0 0180     ................
	...
10005dfc:	0000 01e0 01f0 0198 018c 0186 0186 018c     ................
10005e0c:	0198 01f0 01e0 0000 0000 0000 0000 0000     ................
	...
10005e2c:	0000 01e0 01f0 01f8 01fc 01fe 01fe 01fc     ................
10005e3c:	01f8 01f0 01e0 0000 0000 0000 0000 0000     ................
	...
10005e5c:	0000 0780 0f80 1980 3180 6180 6180 3180     .........1.a.a.1
10005e6c:	1980 0f80 0780 0000 0000 0000 0000 0000     ................
	...
10005e8c:	0000 0780 0f80 1f80 3f80 7f80 7f80 3f80     .........?.....?
10005e9c:	1f80 0f80 0780 0000 0000 0000 0000 0000     ................
10005eac:	0000 0000 0000 01c0 0220 0220 0140 0630     ........ . .@.0.
10005ebc:	0808 0808 0808 0808 0808 0808 0808 0220     .............. .
10005ecc:	0220 0220 0220 0220 0220 0220 0220 0220      . . . . . . . .
10005edc:	0220 0000 0000 01c0 03e0 03e0 01c0 07f0      ...............
10005eec:	0dd8 0dd8 0dd8 0dd8 0dd8 0dd8 0dd8 0360     ..............`.
10005efc:	0360 0360 0360 0360 0360 0360 0360 0360     `.`.`.`.`.`.`.`.
10005f0c:	0360 0000 0000 01c0 0220 0220 0140 0630     `....... . .@.0.
10005f1c:	0808 0808 0808 1004 2002 2002 0140 0220     ......... . @. .
10005f2c:	0220 0410 0808 0808 1004 1004 2004 4004      ............ .@
10005f3c:	0000 0000 0000 01c0 03e0 03e0 01c0 07f0     ................
10005f4c:	0dd8 0dd8 0dd8 19cc 31c6 61c2 01c0 0360     .........1.a..`.
10005f5c:	0360 0670 0c38 0c18 180c 180c 300c 600c     `.p.8........0.`
10005f6c:	0000 0000                                   ....

10005f70 <GLCD_Font_16x24>:
10005f70:	0010 0018 0020 0000 0070 0000 4a70 1000     .... ...p...pJ..

10005f80 <USART0_Resources>:
10005f80:	0601 0000 0020 3800 0028 3800 0000 4020     .... ..8(..8.. @
10005f90:	2120 0000 019c 3800 01a4 3800                !.....8...8

10005f9c <__stderr_name>:
10005f9c:	533a 4454 5245 0052                         :STDERR.

10005fa4 <__stdin_name>:
10005fa4:	533a 4454 4e49 3a00                              :STDIN.

10005fab <__stdout_name>:
10005fab:	533a 4454 554f 0054                         :STDOUT.

10005fb3 <.L.str.3>:
10005fb3:	2020 6f43 7472 7865 4d2d 3332 2020 2020       Cortex-M23    
10005fc3:	2020 2020 2000                                       .

10005fc8 <.L.str.4>:
10005fc8:	2020 6f43 7472 7865 4d2d 3333 2020 2020       Cortex-M33    
10005fd8:	2020 2020 2000                                       .

10005fdd <.L.str.2>:
10005fdd:	2020 7720 7777 6b2e 6965 2e6c 6f63 206d        www.keil.com 
10005fed:	2020 2020 2000                                       .

10005ff2 <.L.str>:
10005ff2:	2020 5620 4d32 4d2d 5350 2b32 4420 6d65        V2M-MPS2+ Dem
10006002:	206f 2020 2000                                   o   .

10006007 <.L.str.5>:
10006007:	2020 6e75 6e6b 776f 206e 6f43 7472 7865       unknown Cortex
10006017:	4d2d 2020 2000                                   -M  .

1000601c <.L.str.1>:
1000601c:	5320 6365 7275 2f65 6f4e 2d6e 6553 7563      Secure/Non-Secu
1000602c:	6572 2020 5b00                                   re  .

10006031 <.L.str.8>:
10006031:	4c5b 474f 205d 6553 7474 6e69 2067 7075     [LOG] Setting up
10006041:	4d20 4254 000a                               MTB..

10006047 <.L.str.9>:
10006047:	4c5b 474f 205d 6553 7474 6e69 2067 7075     [LOG] Setting up
10006057:	4420 5457 000a                               DWT..

1000605d <.L.str.3>:
1000605d:	4c5b 474f 205d 6f4c 2067 6f43 6e75 6574     [LOG] Log Counte
1000606d:	2072 203a                                   r : 

10006071 <.L.str.4>:
10006071:	6425 000a                                   %d..

10006075 <.L.str.2>:
10006075:	4c5b 474f 205d 6553 646e 6e69 2067 544d     [LOG] Sending MT
10006085:	2042 7542 6666 7265 000a                    B Buffer..

1000608f <.L.str.7>:
1000608f:	4c5b 474f 205d 6544 7562 2067 6f4d 696e     [LOG] Debug Moni
1000609f:	6f74 2072 6148 646e 656c 0a72 5b00               tor Handler..

100060ac <.L.str.10>:
100060ac:	4c5b 474f 205d 6553 7474 6e69 2067 7075     [LOG] Setting up
100060bc:	4920 746e 7265 7572 7470 4820 6e61 6c64      Interrupt Handl
100060cc:	7265 0a73 5b00                                   ers..

100060d1 <.L.str.11>:
100060d1:	4c5b 474f 205d 6e45 6574 6972 676e 4420     [LOG] Entering D
100060e1:	6265 6775 4d20 4254 5220 6765 7369 6574     ebug MTB Registe
100060f1:	7372 000a                                   rs..

100060f5 <.L.str.19>:
100060f5:	4c5b 474f 205d 6e45 6574 6972 676e 4420     [LOG] Entering D
10006105:	6265 6775 4420 5457 5220 6765 7369 6574     ebug DWT Registe
10006115:	7372 000a                                   rs..

10006119 <.L.str.6>:
10006119:	5b0a 4f4c 5d47 4d20 4254 4220 6675 6566     .[LOG] MTB Buffe
10006129:	2072 6553 746e 000a                         r Sent..

10006131 <.L.str.24>:
10006131:	4c5b 474f 205d 5744 5f54 5546 434e 4954     [LOG] DWT_FUNCTI
10006141:	4e4f 2030 203a 7825 000a                    ON0 : %x..

1000614b <.L.str.20>:
1000614b:	4c5b 474f 205d 5744 5f54 4f43 504d 2030     [LOG] DWT_COMP0 
1000615b:	203a 7825 000a                              : %x..

10006161 <.L.str.25>:
10006161:	4c5b 474f 205d 5744 5f54 5546 434e 4954     [LOG] DWT_FUNCTI
10006171:	4e4f 2031 203a 7825 000a                    ON1 : %x..

1000617b <.L.str.21>:
1000617b:	4c5b 474f 205d 5744 5f54 4f43 504d 2031     [LOG] DWT_COMP1 
1000618b:	203a 7825 000a                              : %x..

10006191 <.L.str.26>:
10006191:	4c5b 474f 205d 5744 5f54 5546 434e 4954     [LOG] DWT_FUNCTI
100061a1:	4e4f 2032 203a 7825 000a                    ON2 : %x..

100061ab <.L.str.22>:
100061ab:	4c5b 474f 205d 5744 5f54 4f43 504d 2032     [LOG] DWT_COMP2 
100061bb:	203a 7825 000a                              : %x..

100061c1 <.L.str.27>:
100061c1:	4c5b 474f 205d 5744 5f54 5546 434e 4954     [LOG] DWT_FUNCTI
100061d1:	4e4f 2033 203a 7825 000a                    ON3 : %x..

100061db <.L.str.23>:
100061db:	4c5b 474f 205d 5744 5f54 4f43 504d 2033     [LOG] DWT_COMP3 
100061eb:	203a 7825 000a                              : %x..

100061f1 <.L.str.18>:
100061f1:	4c5b 474f 205d 544d 5f42 4553 5543 4552     [LOG] MTB_SECURE
10006201:	3a20 2520 0a78 5b00                               : %x..

10006208 <.L.str.12>:
10006208:	4c5b 474f 205d 544d 5f42 4142 4553 3a20     [LOG] MTB_BASE :
10006218:	2520 0a78 5b00                                    %x..

1000621d <.L.str.13>:
1000621d:	4c5b 474f 205d 544d 5f42 4f50 4953 4954     [LOG] MTB_POSITI
1000622d:	4e4f 3a20 2520 0a78 5b00                         ON : %x..

10006236 <.L.str.17>:
10006236:	4c5b 474f 205d 544d 5f42 5354 4f54 2050     [LOG] MTB_TSTOP 
10006246:	203a 7825 000a                              : %x..

1000624c <.L.str.1>:
1000624c:	4c5b 474f 205d 6f43 6572 6544 7562 5f67     [LOG] CoreDebug_
1000625c:	3e2d 4544 434d 2052 203a 7825 000a          ->DEMCR : %x..

1000626a <.L.str.14>:
1000626a:	4c5b 474f 205d 544d 5f42 414d 5453 5245     [LOG] MTB_MASTER
1000627a:	3a20 2520 0a78 5b00                               : %x..

10006281 <.L.str>:
10006281:	4c5b 474f 205d 6f43 6572 6544 7562 5f67     [LOG] CoreDebug_
10006291:	3e2d 4844 5343 2052 203a 7825 000a          ->DHCSR : %x..

1000629f <.L.str.16>:
1000629f:	4c5b 474f 205d 544d 5f42 5354 4154 5452     [LOG] MTB_TSTART
100062af:	3a20 2520 0a78 5b00                               : %x..

100062b6 <.L.str.15>:
100062b6:	4c5b 474f 205d 544d 5f42 4c46 574f 3a20     [LOG] MTB_FLOW :
100062c6:	2520 0a78 2500                                    %x..

100062cb <.L.str.5>:
100062cb:	7825 003b                                   %x;.

100062cf <.L.str.2>:
100062cf:	4c5b 474f 205d 6e45 6574 6572 2064 6553     [LOG] Entered Se
100062df:	7563 6572 7320 6174 7472 635f 6166 000a     cure start_cfa..

100062ef <.L.str.3>:
100062ef:	455b 5252 524f 205d 6143 6c6c 6162 6b63     [ERROR] Callback
100062ff:	6620 6e75 7463 6f69 206e 6f6e 2074 6564      function not de
1000630f:	6966 656e 0a64 5b00                              fined..

10006316 <.L.str.1>:
10006316:	4c5b 474f 205d 6143 6c6c 6162 6b63 6620     [LOG] Callback f
10006326:	6e75 7463 6f69 206e 6572 6967 7473 7265     unction register
10006336:	6465 000a                                   ed..

1000633a <.L.str>:
1000633a:	4c5b 474f 205d 6e45 6574 6572 2064 6553     [LOG] Entered Se
1000634a:	7563 6572 7220 6765 7369 6574 5f72 6163     cure register_ca
1000635a:	6c6c 6162 6b63 000a                         llback..

10006362 <.L.str.4>:
10006362:	4c5b 474f 205d 4643 2041 6e69 7469 6169     [LOG] CFA initia
10006372:	696c 617a 6974 6e6f 000a                    lization..

1000637c <.L.str.5>:
1000637c:	7325 5b00                                        %s.

1000637f <.L.str>:
1000637f:	4c5b 474f 205d 4643 2041 7566 746e 6f69     [LOG] CFA funtio
1000638f:	206e 6e65 7274 2e79 000a                    n entry...

10006399 <.L.str.2>:
10006399:	4c5b 474f 205d 4643 2041 6552 7574 6e72     [LOG] CFA Return
100063a9:	6465 6620 6f72 206d 6f4e 206e 6553 7563     ed from Non Secu
100063b9:	6572 4620 6e75 7463 6f69 0a6e 5b00               re Function..

100063c6 <.L.str.3>:
100063c6:	4c5b 474f 205d 4643 2041 7566 746e 6f69     [LOG] CFA funtio
100063d6:	206e 7865 7469 000a                         n exit..

100063de <.L.str.1>:
100063de:	4c5b 474f 205d 4643 2041 6143 6c6c 6e69     [LOG] CFA Callin
100063ee:	2067 6f4e 206e 6553 7563 6572 4620 6e75     g Non Secure Fun
100063fe:	7463 6f69 206e 203a 7825 000a               ction : %x..

1000640a <.L.str>:
1000640a:	533a 4454 4e49 3a00                              :STDIN.

10006411 <.L.str.2>:
10006411:	533a 4454 5245 0052                         :STDERR.

10006419 <.L.str.1>:
10006419:	533a 4454 554f 0054                         :STDOUT.

10006421 <.L.str>:
10006421:	4c5b 474f 205d 6148 6472 4620 7561 746c     [LOG] Hard Fault
10006431:	000a                                        ..

10006433 <.L.str.1>:
10006433:	4c5b 474f 205d 6544 6166 6c75 2074 6148     [LOG] Default Ha
10006443:	646e 656c 2072 6146 6c75 0a74 9c00               ndler Fault..

10006450 <Region$$Table$$Base>:
10006450:	1000659c 	.word	0x1000659c
10006454:	38000000 	.word	0x38000000
10006458:	00000038 	.word	0x00000038
1000645c:	10000464 	.word	0x10000464
10006460:	100065d4 	.word	0x100065d4
10006464:	38000038 	.word	0x38000038
10006468:	00000a04 	.word	0x00000a04
1000646c:	10000484 	.word	0x10000484

10006470 <Region$$Table$$Limit>:
10006470:	0000001c 	.word	0x0000001c

10006474 <__lcnum_c_name>:
10006474:	00000043 fffffff8                       C.......

1000647c <__lcnum_c_start>:
1000647c:	0000000c 0000000e 0000000f              ............

10006488 <__lcnum_c_point>:
10006488:	0000002e                                         ..

1000648a <__lcnum_c_thousands>:
	...

1000648b <__lcnum_c_grouping>:
	...

1000648c <__lcnum_c_end>:
1000648c:	00000110                                ....

10006490 <__lcctype_c_name>:
10006490:	00000043 fffffff8                       C.......

10006498 <__lcctype_c_start>:
	...

10006499 <__ctype>:
10006499:	40404040 40404040 41414140 40404141     @@@@@@@@@AAAAA@@
100064a9:	40404040 40404040 40404040 40404040     @@@@@@@@@@@@@@@@
100064b9:	02020205 02020202 02020202 02020202     ................
100064c9:	20202020 20202020 02022020 02020202               ......
100064d9:	90909002 10909090 10101010 10101010     ................
100064e9:	10101010 10101010 02101010 02020202     ................
100064f9:	88888802 08888888 08080808 08080808     ................
10006509:	08080808 08080808 02080808 40020202     ...............@
	...

Disassembly of section ER_CMSE_VENEER:

101ffe00 <SECURE_NOPE>:
101ffe00:	e97f e97f 	sg
101ffe04:	f602 bc42 	b.w	1000268c <__acle_se_SECURE_NOPE>

101ffe08 <SECURE_register_callback>:
101ffe08:	e97f e97f 	sg
101ffe0c:	f602 bc64 	b.w	100026d8 <__acle_se_SECURE_register_callback>

101ffe10 <SECURE_start_cfa>:
101ffe10:	e97f e97f 	sg
101ffe14:	f602 bc9e 	b.w	10002754 <__acle_se_SECURE_start_cfa>

101ffe18 <Secure_LED_On>:
101ffe18:	e97f e97f 	sg
101ffe1c:	f602 bd4c 	b.w	100028b8 <__acle_se_Secure_LED_On>

101ffe20 <Secure_LED_Off>:
101ffe20:	e97f e97f 	sg
101ffe24:	f602 bcec 	b.w	10002800 <__acle_se_Secure_LED_Off>

101ffe28 <Secure_printf>:
101ffe28:	e97f e97f 	sg
101ffe2c:	f602 bda0 	b.w	10002970 <__acle_se_Secure_printf>

101ffe30 <Secure_LED_On_callback>:
101ffe30:	e97f e97f 	sg
101ffe34:	f602 bd6e 	b.w	10002914 <__acle_se_Secure_LED_On_callback>

101ffe38 <Secure_LED_Off_callback>:
101ffe38:	e97f e97f 	sg
101ffe3c:	f602 bd0e 	b.w	1000285c <__acle_se_Secure_LED_Off_callback>
