	.text
	.syntax unified
	.eabi_attribute	67, "2.09"	@ Tag_conformance
	.cpu	cortex-m33
	.eabi_attribute	6, 17	@ Tag_CPU_arch
	.eabi_attribute	7, 77	@ Tag_CPU_arch_profile
	.eabi_attribute	8, 0	@ Tag_ARM_ISA_use
	.eabi_attribute	9, 3	@ Tag_THUMB_ISA_use
	.fpu	fpv5-sp-d16
	.eabi_attribute	27, 1	@ Tag_ABI_HardFP_use
	.eabi_attribute	36, 1	@ Tag_FP_HP_extension
	.eabi_attribute	46, 1	@ Tag_DSP_extension
	.eabi_attribute	34, 1	@ Tag_CPU_unaligned_access
	.eabi_attribute	17, 1	@ Tag_ABI_PCS_GOT_use
	.eabi_attribute	20, 2	@ Tag_ABI_FP_denormal
	.eabi_attribute	21, 0	@ Tag_ABI_FP_exceptions
	.eabi_attribute	23, 1	@ Tag_ABI_FP_number_model
	.eabi_attribute	24, 1	@ Tag_ABI_align_needed
	.eabi_attribute	25, 1	@ Tag_ABI_align_preserved
	.eabi_attribute	28, 1	@ Tag_ABI_VFP_args
	.eabi_attribute	38, 1	@ Tag_ABI_FP_16bit_format
	.eabi_attribute	18, 2	@ Tag_ABI_PCS_wchar_t
	.eabi_attribute	26, 1	@ Tag_ABI_enum_size
	.eabi_attribute	14, 0	@ Tag_ABI_PCS_R9_use
	.file	"main_s.c"
	.file	1 "C:\\Users\\aj4775\\AppData\\Local\\Keil_v5\\ARM\\ARMCLANG\\bin\\..\\include" "stdint.h"
	.file	2 "P:\\Workspace\\Git\\MTB_CFA\\IOTKit_CM33_S_NS\\IOTKit_CM33_s" "main_s.c"
	.file	3 "C:/Users/aj4775/AppData/Local/arm/packs/Keil/V2M-MPS2_IOTKit_BSP/1.5.2/Device/IOTKit_CM33/Include" "IOTKit_CM33_FP.h"
	.file	4 "C:/Users/aj4775/AppData/Local/arm/packs/ARM/CMSIS/6.1.0/CMSIS/Core/Include" "core_cm33.h"
	.section	.text.SysTick_Handler,"ax",%progbits
	.hidden	SysTick_Handler                 @ -- Begin function SysTick_Handler
	.globl	SysTick_Handler
	.p2align	2
	.type	SysTick_Handler,%function
	.code	16                              @ @SysTick_Handler
	.thumb_func
SysTick_Handler:
.Lfunc_begin0:
	.loc	2 35 0                          @ main_s.c:35:0
	.fnstart
	.cfi_sections .debug_frame
	.cfi_startproc
@ %bb.0:
	.save	{r7, lr}
	push	{r7, lr}
	.cfi_def_cfa_offset 8
	.cfi_offset lr, -4
	.cfi_offset r7, -8
.Ltmp0:
	.loc	2 39 10 prologue_end            @ main_s.c:39:10
	movw	r1, :lower16:SysTick_Handler.ticks
	movt	r1, :upper16:SysTick_Handler.ticks
	ldr	r0, [r1]
	adds	r0, #1
	str	r0, [r1]
	.loc	2 40 5                          @ main_s.c:40:5
	movw	r0, :lower16:.L.str
	movt	r0, :upper16:.L.str
	bl	printf
	.loc	2 41 1 epilogue_begin           @ main_s.c:41:1
	pop	{r7, pc}
.Ltmp1:
.Lfunc_end0:
	.size	SysTick_Handler, .Lfunc_end0-SysTick_Handler
	.cfi_endproc
	.cantunwind
	.fnend
                                        @ -- End function
	.section	.text.main,"ax",%progbits
	.hidden	main                            @ -- Begin function main
	.globl	main
	.p2align	2
	.type	main,%function
	.code	16                              @ @main
	.thumb_func
main:
.Lfunc_begin1:
	.loc	2 80 0                          @ main_s.c:80:0
	.fnstart
	.cfi_startproc
@ %bb.0:
	.save	{r7, lr}
	push	{r7, lr}
	.cfi_def_cfa_offset 8
	.cfi_offset lr, -4
	.cfi_offset r7, -8
	.pad	#48
	sub	sp, #48
	.cfi_def_cfa_offset 56
	mov.w	r0, #2097152
.Ltmp2:
	.loc	2 81 40 prologue_end            @ main_s.c:81:40
	ldr	r0, [r0]
	.loc	2 81 14 is_stmt 0               @ main_s.c:81:14
	str	r0, [sp, #20]
	movs	r0, #4
	movt	r0, #32
	.loc	2 83 28 is_stmt 1               @ main_s.c:83:28
	ldr	r0, [r0]
	.loc	2 82 22                         @ main_s.c:82:22
	str	r0, [sp, #16]
	.loc	2 86 33                         @ main_s.c:86:33
	bl	SCB_GetFPUType
	.loc	2 86 23 is_stmt 0               @ main_s.c:86:23
	str	r0, [sp, #12]
	movw	r0, #20133
	movt	r0, #16711
	.loc	2 87 20 is_stmt 1               @ main_s.c:87:20
	str	r0, [sp, #8]
	movw	r0, #61077
	movt	r0, #16169
	.loc	2 88 20                         @ main_s.c:88:20
	str	r0, [sp, #4]
	movw	r0, #58255
	movt	r0, #16832
	.loc	2 89 20                         @ main_s.c:89:20
	str	r0, [sp]
	.loc	2 91 10                         @ main_s.c:91:10
	vldr	s0, [sp]
	.loc	2 91 16 is_stmt 0               @ main_s.c:91:16
	vldr	s2, [sp, #8]
	.loc	2 91 21                         @ main_s.c:91:21
	vldr	s4, [sp, #4]
	.loc	2 91 19                         @ main_s.c:91:19
	vdiv.f32	s2, s2, s4
	.loc	2 91 13                         @ main_s.c:91:13
	vmul.f32	s0, s0, s2
	.loc	2 91 8                          @ main_s.c:91:8
	vstr	s0, [sp]
.Ltmp3:
	.file	5 "C:/Users/aj4775/AppData/Local/arm/packs/ARM/CMSIS/6.1.0/CMSIS/Core/Include\\./m-profile" "cmsis_armclang_m.h"
	.loc	5 284 3 is_stmt 1               @ C:/Users/aj4775/AppData/Local/arm/packs/ARM/CMSIS/6.1.0/CMSIS/Core/Include\./m-profile/cmsis_armclang_m.h:284:3
	@APP
	mrs	r0, msp
	@NO_APP
	str	r0, [sp, #24]
	.loc	5 285 11                        @ C:/Users/aj4775/AppData/Local/arm/packs/ARM/CMSIS/6.1.0/CMSIS/Core/Include\./m-profile/cmsis_armclang_m.h:285:11
	ldr	r0, [sp, #24]
.Ltmp4:
	.loc	2 94 7                          @ main_s.c:94:7
	movw	r1, :lower16:x
	movt	r1, :upper16:x
	str	r0, [r1]
.Ltmp5:
	.loc	5 230 3                         @ C:/Users/aj4775/AppData/Local/arm/packs/ARM/CMSIS/6.1.0/CMSIS/Core/Include\./m-profile/cmsis_armclang_m.h:230:3
	@APP
	mrs	r0, psp
	@NO_APP
	str	r0, [sp, #28]
	.loc	5 231 11                        @ C:/Users/aj4775/AppData/Local/arm/packs/ARM/CMSIS/6.1.0/CMSIS/Core/Include\./m-profile/cmsis_armclang_m.h:231:11
	ldr	r0, [sp, #28]
.Ltmp6:
	.loc	2 95 7                          @ main_s.c:95:7
	str	r0, [r1]
	.loc	2 96 21                         @ main_s.c:96:21
	ldr	r0, [sp, #20]
	str	r0, [sp, #32]
.Ltmp7:
	.loc	5 324 45                        @ C:/Users/aj4775/AppData/Local/arm/packs/ARM/CMSIS/6.1.0/CMSIS/Core/Include\./m-profile/cmsis_armclang_m.h:324:45
	ldr	r0, [sp, #32]
	.loc	5 324 3 is_stmt 0               @ C:/Users/aj4775/AppData/Local/arm/packs/ARM/CMSIS/6.1.0/CMSIS/Core/Include\./m-profile/cmsis_armclang_m.h:324:3
	@APP
	msr	msp_ns, r0
	@NO_APP
.Ltmp8:
	.loc	5 299 3 is_stmt 1               @ C:/Users/aj4775/AppData/Local/arm/packs/ARM/CMSIS/6.1.0/CMSIS/Core/Include\./m-profile/cmsis_armclang_m.h:299:3
	@APP
	mrs	r0, msp_ns
	@NO_APP
	str	r0, [sp, #36]
	.loc	5 300 11                        @ C:/Users/aj4775/AppData/Local/arm/packs/ARM/CMSIS/6.1.0/CMSIS/Core/Include\./m-profile/cmsis_armclang_m.h:300:11
	ldr	r0, [sp, #36]
.Ltmp9:
	.loc	2 97 7                          @ main_s.c:97:7
	str	r0, [r1]
	mov.w	r0, #570425344
	str	r0, [sp, #40]
.Ltmp10:
	.loc	5 270 45                        @ C:/Users/aj4775/AppData/Local/arm/packs/ARM/CMSIS/6.1.0/CMSIS/Core/Include\./m-profile/cmsis_armclang_m.h:270:45
	ldr	r0, [sp, #40]
	.loc	5 270 3 is_stmt 0               @ C:/Users/aj4775/AppData/Local/arm/packs/ARM/CMSIS/6.1.0/CMSIS/Core/Include\./m-profile/cmsis_armclang_m.h:270:3
	@APP
	msr	psp_ns, r0
	@NO_APP
.Ltmp11:
	.loc	5 245 3 is_stmt 1               @ C:/Users/aj4775/AppData/Local/arm/packs/ARM/CMSIS/6.1.0/CMSIS/Core/Include\./m-profile/cmsis_armclang_m.h:245:3
	@APP
	mrs	r0, psp_ns
	@NO_APP
	str	r0, [sp, #44]
	.loc	5 246 11                        @ C:/Users/aj4775/AppData/Local/arm/packs/ARM/CMSIS/6.1.0/CMSIS/Core/Include\./m-profile/cmsis_armclang_m.h:246:11
	ldr	r0, [sp, #44]
.Ltmp12:
	.loc	2 99 7                          @ main_s.c:99:7
	str	r0, [r1]
	.loc	2 101 5                         @ main_s.c:101:5
	bl	SystemCoreClockUpdate
	.loc	2 103 5                         @ main_s.c:103:5
	bl	stdout_init
	.loc	2 134 5                         @ main_s.c:134:5
	bl	stdout_init
	.loc	2 136 20                        @ main_s.c:136:20
	movw	r0, :lower16:SystemCoreClock
	movt	r0, :upper16:SystemCoreClock
	ldr	r0, [r0]
	movw	r1, #34079
	movt	r1, #20971
	.loc	2 136 36 is_stmt 0              @ main_s.c:136:36
	umull	r1, r0, r0, r1
	lsrs	r0, r0, #5
	.loc	2 136 5                         @ main_s.c:136:5
	bl	SysTick_Config
	.loc	2 142 5 is_stmt 1               @ main_s.c:142:5
	ldr	r0, [sp, #16]
	push.w	{r4, r5, r6, r7, r8, r9, r10, r11}
	bic	r0, r0, #1
	sub	sp, #136
	vlstm	sp, {d0 - d15}
	mov	r1, r0
	mov	r2, r0
	mov	r3, r0
	mov	r4, r0
	mov	r5, r0
	mov	r6, r0
	mov	r7, r0
	mov	r8, r0
	mov	r9, r0
	mov	r10, r0
	mov	r11, r0
	mov	r12, r0
	msr	apsr_nzcvqg, r0
	blxns	r0
	mrs	r12, control
	tst.w	r12, #8
	it	ne
	vmovne.f32	s0, s0
	vlldm	sp, {d0 - d15}
	add	sp, #136
	pop.w	{r4, r5, r6, r7, r8, r9, r10, r11}
	mov.w	r0, #0
	.loc	2 143 1 epilogue_begin          @ main_s.c:143:1
	add	sp, #48
	pop	{r7, pc}
.Ltmp13:
.Lfunc_end1:
	.size	main, .Lfunc_end1-main
	.cfi_endproc
	.cantunwind
	.fnend
                                        @ -- End function
	.section	.text.SCB_GetFPUType,"ax",%progbits
	.p2align	2                               @ -- Begin function SCB_GetFPUType
	.type	SCB_GetFPUType,%function
	.code	16                              @ @SCB_GetFPUType
	.thumb_func
SCB_GetFPUType:
.Lfunc_begin2:
	.loc	4 2924 0                        @ C:/Users/aj4775/AppData/Local/arm/packs/ARM/CMSIS/6.1.0/CMSIS/Core/Include\core_cm33.h:2924:0
	.fnstart
	.cfi_startproc
@ %bb.0:
	.pad	#8
	sub	sp, #8
	.cfi_def_cfa_offset 8
	movw	r0, #61248
	movt	r0, #57344
.Ltmp14:
	.loc	4 2927 16 prologue_end          @ C:/Users/aj4775/AppData/Local/arm/packs/ARM/CMSIS/6.1.0/CMSIS/Core/Include\core_cm33.h:2927:16
	ldr	r0, [r0]
	.loc	4 2927 9 is_stmt 0              @ C:/Users/aj4775/AppData/Local/arm/packs/ARM/CMSIS/6.1.0/CMSIS/Core/Include\core_cm33.h:2927:9
	str	r0, [sp]
.Ltmp15:
	.loc	4 2928 13 is_stmt 1             @ C:/Users/aj4775/AppData/Local/arm/packs/ARM/CMSIS/6.1.0/CMSIS/Core/Include\core_cm33.h:2928:13
	ldr	r0, [sp]
	.loc	4 2928 19 is_stmt 0             @ C:/Users/aj4775/AppData/Local/arm/packs/ARM/CMSIS/6.1.0/CMSIS/Core/Include\core_cm33.h:2928:19
	and	r0, r0, #4080
.Ltmp16:
	.loc	4 2928 12                       @ C:/Users/aj4775/AppData/Local/arm/packs/ARM/CMSIS/6.1.0/CMSIS/Core/Include\core_cm33.h:2928:12
	cmp.w	r0, #544
	bne	.LBB2_2
	b	.LBB2_1
.LBB2_1:
	.loc	4 0 12                          @ C:/Users/aj4775/AppData/Local/arm/packs/ARM/CMSIS/6.1.0/CMSIS/Core/Include\core_cm33.h:0:12
	movs	r0, #2
.Ltmp17:
	.loc	4 2930 5 is_stmt 1              @ C:/Users/aj4775/AppData/Local/arm/packs/ARM/CMSIS/6.1.0/CMSIS/Core/Include\core_cm33.h:2930:5
	str	r0, [sp, #4]
	b	.LBB2_5
.Ltmp18:
.LBB2_2:
	.loc	4 2932 13                       @ C:/Users/aj4775/AppData/Local/arm/packs/ARM/CMSIS/6.1.0/CMSIS/Core/Include\core_cm33.h:2932:13
	ldr	r0, [sp]
	.loc	4 2932 19 is_stmt 0             @ C:/Users/aj4775/AppData/Local/arm/packs/ARM/CMSIS/6.1.0/CMSIS/Core/Include\core_cm33.h:2932:19
	and	r0, r0, #4080
.Ltmp19:
	.loc	4 2932 12                       @ C:/Users/aj4775/AppData/Local/arm/packs/ARM/CMSIS/6.1.0/CMSIS/Core/Include\core_cm33.h:2932:12
	cmp	r0, #32
	bne	.LBB2_4
	b	.LBB2_3
.LBB2_3:
	.loc	4 0 12                          @ C:/Users/aj4775/AppData/Local/arm/packs/ARM/CMSIS/6.1.0/CMSIS/Core/Include\core_cm33.h:0:12
	movs	r0, #1
.Ltmp20:
	.loc	4 2934 5 is_stmt 1              @ C:/Users/aj4775/AppData/Local/arm/packs/ARM/CMSIS/6.1.0/CMSIS/Core/Include\core_cm33.h:2934:5
	str	r0, [sp, #4]
	b	.LBB2_5
.Ltmp21:
.LBB2_4:
	.loc	4 0 5 is_stmt 0                 @ C:/Users/aj4775/AppData/Local/arm/packs/ARM/CMSIS/6.1.0/CMSIS/Core/Include\core_cm33.h:0:5
	movs	r0, #0
.Ltmp22:
	.loc	4 2938 5 is_stmt 1              @ C:/Users/aj4775/AppData/Local/arm/packs/ARM/CMSIS/6.1.0/CMSIS/Core/Include\core_cm33.h:2938:5
	str	r0, [sp, #4]
	b	.LBB2_5
.Ltmp23:
.LBB2_5:
	.loc	4 2940 1                        @ C:/Users/aj4775/AppData/Local/arm/packs/ARM/CMSIS/6.1.0/CMSIS/Core/Include\core_cm33.h:2940:1
	ldr	r0, [sp, #4]
	.loc	4 2940 1 epilogue_begin is_stmt 0 @ C:/Users/aj4775/AppData/Local/arm/packs/ARM/CMSIS/6.1.0/CMSIS/Core/Include\core_cm33.h:2940:1
	add	sp, #8
	bx	lr
.Ltmp24:
.Lfunc_end2:
	.size	SCB_GetFPUType, .Lfunc_end2-SCB_GetFPUType
	.cfi_endproc
	.cantunwind
	.fnend
                                        @ -- End function
	.section	.text.SysTick_Config,"ax",%progbits
	.p2align	2                               @ -- Begin function SysTick_Config
	.type	SysTick_Config,%function
	.code	16                              @ @SysTick_Config
	.thumb_func
SysTick_Config:
.Lfunc_begin3:
	.loc	4 3109 0 is_stmt 1              @ C:/Users/aj4775/AppData/Local/arm/packs/ARM/CMSIS/6.1.0/CMSIS/Core/Include\core_cm33.h:3109:0
	.fnstart
	.cfi_startproc
@ %bb.0:
	.save	{r7, lr}
	push	{r7, lr}
	.cfi_def_cfa_offset 8
	.cfi_offset lr, -4
	.cfi_offset r7, -8
	.pad	#16
	sub	sp, #16
	.cfi_def_cfa_offset 24
	str	r0, [sp, #8]
.Ltmp25:
	.loc	4 3110 8 prologue_end           @ C:/Users/aj4775/AppData/Local/arm/packs/ARM/CMSIS/6.1.0/CMSIS/Core/Include\core_cm33.h:3110:8
	ldr	r0, [sp, #8]
	.loc	4 3110 14 is_stmt 0             @ C:/Users/aj4775/AppData/Local/arm/packs/ARM/CMSIS/6.1.0/CMSIS/Core/Include\core_cm33.h:3110:14
	subs	r0, #1
.Ltmp26:
	.loc	4 3110 7                        @ C:/Users/aj4775/AppData/Local/arm/packs/ARM/CMSIS/6.1.0/CMSIS/Core/Include\core_cm33.h:3110:7
	cmp.w	r0, #16777216
	blo	.LBB3_2
	b	.LBB3_1
.LBB3_1:
	.loc	4 0 7                           @ C:/Users/aj4775/AppData/Local/arm/packs/ARM/CMSIS/6.1.0/CMSIS/Core/Include\core_cm33.h:0:7
	movs	r0, #1
.Ltmp27:
	.loc	4 3112 5 is_stmt 1              @ C:/Users/aj4775/AppData/Local/arm/packs/ARM/CMSIS/6.1.0/CMSIS/Core/Include\core_cm33.h:3112:5
	str	r0, [sp, #12]
	b	.LBB3_3
.Ltmp28:
.LBB3_2:
	.loc	4 3115 31                       @ C:/Users/aj4775/AppData/Local/arm/packs/ARM/CMSIS/6.1.0/CMSIS/Core/Include\core_cm33.h:3115:31
	ldr	r0, [sp, #8]
	.loc	4 3115 37 is_stmt 0             @ C:/Users/aj4775/AppData/Local/arm/packs/ARM/CMSIS/6.1.0/CMSIS/Core/Include\core_cm33.h:3115:37
	subs	r0, #1
	movw	r1, #57364
	movt	r1, #57344
	.loc	4 3115 18                       @ C:/Users/aj4775/AppData/Local/arm/packs/ARM/CMSIS/6.1.0/CMSIS/Core/Include\core_cm33.h:3115:18
	str	r0, [r1]
	mov.w	r0, #-1
	movs	r1, #7
	.loc	4 3116 3 is_stmt 1              @ C:/Users/aj4775/AppData/Local/arm/packs/ARM/CMSIS/6.1.0/CMSIS/Core/Include\core_cm33.h:3116:3
	str	r1, [sp, #4]                    @ 4-byte Spill
	bl	__NVIC_SetPriority
	ldr	r1, [sp, #4]                    @ 4-byte Reload
	movw	r2, #57368
	movt	r2, #57344
	movs	r0, #0
	.loc	4 3117 18                       @ C:/Users/aj4775/AppData/Local/arm/packs/ARM/CMSIS/6.1.0/CMSIS/Core/Include\core_cm33.h:3117:18
	str	r0, [r2]
	movw	r2, #57360
	movt	r2, #57344
	.loc	4 3118 18                       @ C:/Users/aj4775/AppData/Local/arm/packs/ARM/CMSIS/6.1.0/CMSIS/Core/Include\core_cm33.h:3118:18
	str	r1, [r2]
	.loc	4 3121 3                        @ C:/Users/aj4775/AppData/Local/arm/packs/ARM/CMSIS/6.1.0/CMSIS/Core/Include\core_cm33.h:3121:3
	str	r0, [sp, #12]
	b	.LBB3_3
.LBB3_3:
	.loc	4 3122 1                        @ C:/Users/aj4775/AppData/Local/arm/packs/ARM/CMSIS/6.1.0/CMSIS/Core/Include\core_cm33.h:3122:1
	ldr	r0, [sp, #12]
	.loc	4 3122 1 epilogue_begin is_stmt 0 @ C:/Users/aj4775/AppData/Local/arm/packs/ARM/CMSIS/6.1.0/CMSIS/Core/Include\core_cm33.h:3122:1
	add	sp, #16
	pop	{r7, pc}
.Ltmp29:
.Lfunc_end3:
	.size	SysTick_Config, .Lfunc_end3-SysTick_Config
	.cfi_endproc
	.cantunwind
	.fnend
                                        @ -- End function
	.section	.text.__NVIC_SetPriority,"ax",%progbits
	.p2align	2                               @ -- Begin function __NVIC_SetPriority
	.type	__NVIC_SetPriority,%function
	.code	16                              @ @__NVIC_SetPriority
	.thumb_func
__NVIC_SetPriority:
.Lfunc_begin4:
	.loc	4 2556 0 is_stmt 1              @ C:/Users/aj4775/AppData/Local/arm/packs/ARM/CMSIS/6.1.0/CMSIS/Core/Include\core_cm33.h:2556:0
	.fnstart
	.cfi_startproc
@ %bb.0:
	.pad	#8
	sub	sp, #8
	.cfi_def_cfa_offset 8
                                        @ kill: def $r2 killed $r0
	strb.w	r0, [sp, #7]
	str	r1, [sp]
.Ltmp30:
	.loc	4 2557 17 prologue_end          @ C:/Users/aj4775/AppData/Local/arm/packs/ARM/CMSIS/6.1.0/CMSIS/Core/Include\core_cm33.h:2557:17
	ldrsb.w	r0, [sp, #7]
.Ltmp31:
	.loc	4 2557 7 is_stmt 0              @ C:/Users/aj4775/AppData/Local/arm/packs/ARM/CMSIS/6.1.0/CMSIS/Core/Include\core_cm33.h:2557:7
	cmp	r0, #0
	bmi	.LBB4_2
	b	.LBB4_1
.LBB4_1:
.Ltmp32:
	.loc	4 2559 60 is_stmt 1             @ C:/Users/aj4775/AppData/Local/arm/packs/ARM/CMSIS/6.1.0/CMSIS/Core/Include\core_cm33.h:2559:60
	ldr	r0, [sp]
	.loc	4 2559 69 is_stmt 0             @ C:/Users/aj4775/AppData/Local/arm/packs/ARM/CMSIS/6.1.0/CMSIS/Core/Include\core_cm33.h:2559:69
	lsls	r0, r0, #5
	.loc	4 2559 26                       @ C:/Users/aj4775/AppData/Local/arm/packs/ARM/CMSIS/6.1.0/CMSIS/Core/Include\core_cm33.h:2559:26
	ldrsb.w	r1, [sp, #7]
	movw	r2, #58368
	movt	r2, #57344
	.loc	4 2559 47                       @ C:/Users/aj4775/AppData/Local/arm/packs/ARM/CMSIS/6.1.0/CMSIS/Core/Include\core_cm33.h:2559:47
	strb	r0, [r1, r2]
	.loc	4 2560 3 is_stmt 1              @ C:/Users/aj4775/AppData/Local/arm/packs/ARM/CMSIS/6.1.0/CMSIS/Core/Include\core_cm33.h:2560:3
	b	.LBB4_3
.Ltmp33:
.LBB4_2:
	.loc	4 2563 60                       @ C:/Users/aj4775/AppData/Local/arm/packs/ARM/CMSIS/6.1.0/CMSIS/Core/Include\core_cm33.h:2563:60
	ldr	r0, [sp]
	.loc	4 2563 69 is_stmt 0             @ C:/Users/aj4775/AppData/Local/arm/packs/ARM/CMSIS/6.1.0/CMSIS/Core/Include\core_cm33.h:2563:69
	lsls	r0, r0, #5
	.loc	4 2563 17                       @ C:/Users/aj4775/AppData/Local/arm/packs/ARM/CMSIS/6.1.0/CMSIS/Core/Include\core_cm33.h:2563:17
	ldrb.w	r1, [sp, #7]
	.loc	4 2563 33                       @ C:/Users/aj4775/AppData/Local/arm/packs/ARM/CMSIS/6.1.0/CMSIS/Core/Include\core_cm33.h:2563:33
	and	r1, r1, #15
	movw	r2, #60692
	movt	r2, #57344
	.loc	4 2563 47                       @ C:/Users/aj4775/AppData/Local/arm/packs/ARM/CMSIS/6.1.0/CMSIS/Core/Include\core_cm33.h:2563:47
	strb	r0, [r1, r2]
	b	.LBB4_3
.Ltmp34:
.LBB4_3:
	.loc	4 2565 1 epilogue_begin is_stmt 1 @ C:/Users/aj4775/AppData/Local/arm/packs/ARM/CMSIS/6.1.0/CMSIS/Core/Include\core_cm33.h:2565:1
	add	sp, #8
	bx	lr
.Ltmp35:
.Lfunc_end4:
	.size	__NVIC_SetPriority, .Lfunc_end4-__NVIC_SetPriority
	.cfi_endproc
	.cantunwind
	.fnend
                                        @ -- End function
	.type	SysTick_Handler.ticks,%object   @ @SysTick_Handler.ticks
	.section	.bss.SysTick_Handler.ticks,"aw",%nobits
	.p2align	2, 0x0
SysTick_Handler.ticks:
	.long	0                               @ 0x0
	.size	SysTick_Handler.ticks, 4

	.type	SysTick_Handler.ticks_printf,%object @ @SysTick_Handler.ticks_printf
	.section	.bss.SysTick_Handler.ticks_printf,"aw",%nobits
	.p2align	2, 0x0
SysTick_Handler.ticks_printf:
	.long	0                               @ 0x0
	.size	SysTick_Handler.ticks_printf, 4

	.type	.L.str,%object                  @ @.str
	.section	.rodata.str1.1,"aMS",%progbits,1
.L.str:
	.asciz	"Hello Secure\n"
	.size	.L.str, 14

	.type	x,%object                       @ @x
	.section	.bss.x,"aw",%nobits
	.p2align	2, 0x0
x:
	.long	0                               @ 0x0
	.size	x, 4

	.type	__ARM_use_no_argv,%object       @ @__ARM_use_no_argv
	.section	.ARM.use_no_argv,"awR",%progbits,unique,1
	.globl	__ARM_use_no_argv
	.p2align	2, 0x0
__ARM_use_no_argv:
	.long	1                               @ 0x1
	.size	__ARM_use_no_argv, 4

	.section	".note.GNU-stack","",%progbits
	.eabi_attribute	30, 6	@ Tag_ABI_optimization_goals
	.ARM_attribute	16, 1	@ Tag_AV_eba