	.text
	.syntax unified
	.eabi_attribute	67, "2.09"	@ Tag_conformance
	.cpu	cortex-m33
	.eabi_attribute	6, 17	@ Tag_CPU_arch
	.eabi_attribute	7, 77	@ Tag_CPU_arch_profile
	.eabi_attribute	8, 0	@ Tag_ARM_ISA_use
	.eabi_attribute	9, 3	@ Tag_THUMB_ISA_use
	.fpu	fpv5-sp-d16
	.eabi_attribute	27, 1	@ Tag_ABI_HardFP_use
	.eabi_attribute	36, 1	@ Tag_FP_HP_extension
	.eabi_attribute	46, 1	@ Tag_DSP_extension
	.eabi_attribute	34, 1	@ Tag_CPU_unaligned_access
	.eabi_attribute	17, 1	@ Tag_ABI_PCS_GOT_use
	.eabi_attribute	20, 2	@ Tag_ABI_FP_denormal
	.eabi_attribute	21, 0	@ Tag_ABI_FP_exceptions
	.eabi_attribute	23, 1	@ Tag_ABI_FP_number_model
	.eabi_attribute	24, 1	@ Tag_ABI_align_needed
	.eabi_attribute	25, 1	@ Tag_ABI_align_preserved
	.eabi_attribute	28, 1	@ Tag_ABI_VFP_args
	.eabi_attribute	38, 1	@ Tag_ABI_FP_16bit_format
	.eabi_attribute	18, 2	@ Tag_ABI_PCS_wchar_t
	.eabi_attribute	26, 1	@ Tag_ABI_enum_size
	.eabi_attribute	14, 0	@ Tag_ABI_PCS_R9_use
	.file	"mtb.c"
	.file	1 "C:\\Users\\aj4775\\AppData\\Local\\Keil_v5\\ARM\\ARMCLANG\\bin\\..\\include" "stdint.h"
	.file	2 "C:/Users/aj4775/AppData/Local/arm/packs/ARM/CMSIS/6.1.0/CMSIS/Core/Include" "core_cm33.h"
	.file	3 "P:\\Workspace\\Git\\MTB_CFA\\IOTKit_CM33_S_NS\\IOTKit_CM33_s" "mtb.c"
	.file	4 "P:\\Workspace\\Git\\MTB_CFA\\IOTKit_CM33_S_NS\\IOTKit_CM33_s" ".\\mtb.h"
	.file	5 "C:/Users/aj4775/AppData/Local/arm/packs/Keil/V2M-MPS2_IOTKit_BSP/1.5.2/Device/IOTKit_CM33/Include" "IOTKit_CM33_FP.h"
	.section	.text.mtb_setup_DWT,"ax",%progbits
	.hidden	mtb_setup_DWT                   @ -- Begin function mtb_setup_DWT
	.globl	mtb_setup_DWT
	.p2align	2
	.type	mtb_setup_DWT,%function
	.code	16                              @ @mtb_setup_DWT
	.thumb_func
mtb_setup_DWT:
.Lfunc_begin0:
	.loc	3 43 0                          @ mtb.c:43:0
	.fnstart
	.cfi_sections .debug_frame
	.cfi_startproc
@ %bb.0:
	.save	{r7, lr}
	push	{r7, lr}
	.cfi_def_cfa_offset 8
	.cfi_offset lr, -4
	.cfi_offset r7, -8
	.pad	#8
	sub	sp, #8
	.cfi_def_cfa_offset 16
.Ltmp0:
	.loc	3 50 5 prologue_end             @ mtb.c:50:5
	movw	r0, :lower16:CoreDebug_
	movt	r0, :upper16:CoreDebug_
	str	r0, [sp, #4]                    @ 4-byte Spill
	ldr	r2, [r0]
	.loc	3 50 23 is_stmt 0               @ mtb.c:50:23
	ldr	r1, [r2, #12]
	movs	r3, #0
	movt	r3, #257
	orrs	r1, r3
	str	r1, [r2, #12]
	.loc	3 53 5 is_stmt 1                @ mtb.c:53:5
	movw	r1, :lower16:ITM_
	movt	r1, :upper16:ITM_
	ldr	r2, [r1]
	.loc	3 53 15 is_stmt 0               @ mtb.c:53:15
	ldr.w	r1, [r2, #3712]
	orr	r1, r1, #9
	str.w	r1, [r2, #3712]
	.loc	3 56 5 is_stmt 1                @ mtb.c:56:5
	movw	r1, :lower16:DWT_
	movt	r1, :upper16:DWT_
	ldr	r3, [r1]
	mov.w	r2, #3670016
	.loc	3 56 17 is_stmt 0               @ mtb.c:56:17
	str	r2, [r3, #32]
	movw	r3, #4128
	movt	r3, #57344
	.loc	3 57 5 is_stmt 1                @ mtb.c:57:5
	ldr	r2, [r3]
	bic	r2, r2, #1
	str	r2, [r3]
	.loc	3 60 5                          @ mtb.c:60:5
	ldr	r3, [r1]
	mov.w	r2, #4194304
	.loc	3 60 17 is_stmt 0               @ mtb.c:60:17
	str	r2, [r3, #48]
	movw	r3, #4144
	movt	r3, #57344
	.loc	3 61 5 is_stmt 1                @ mtb.c:61:5
	ldr	r2, [r3]
	bic	r2, r2, #1
	str	r2, [r3]
	.loc	3 64 5                          @ mtb.c:64:5
	ldr	r3, [r1]
	mov.w	r2, #3145728
	.loc	3 64 17 is_stmt 0               @ mtb.c:64:17
	str	r2, [r3, #64]
	movw	r3, #4160
	movt	r3, #57344
	.loc	3 65 5 is_stmt 1                @ mtb.c:65:5
	ldr	r2, [r3]
	bic	r2, r2, #1
	str	r2, [r3]
	.loc	3 68 5                          @ mtb.c:68:5
	ldr	r2, [r1]
	mov.w	r1, #3538944
	.loc	3 68 17 is_stmt 0               @ mtb.c:68:17
	str	r1, [r2, #80]
	movw	r2, #4176
	movt	r2, #57344
	.loc	3 69 5 is_stmt 1                @ mtb.c:69:5
	ldr	r1, [r2]
	bic	r1, r1, #1
	str	r1, [r2]
	movw	r2, #4136
	movt	r2, #57344
	.loc	3 73 5                          @ mtb.c:73:5
	ldr	r1, [r2]
	bic	r1, r1, #3072
	str	r1, [r2]
	.loc	3 74 5                          @ mtb.c:74:5
	ldr	r1, [r2]
	bic	r1, r1, #48
	str	r1, [r2]
	.loc	3 75 5                          @ mtb.c:75:5
	ldr	r1, [r2]
	mov.w	r12, #2
	bfi	r1, r12, #0, #4
	str	r1, [r2]
	movw	r2, #4152
	movt	r2, #57344
	.loc	3 78 5                          @ mtb.c:78:5
	ldr	r1, [r2]
	bic	r1, r1, #3072
	str	r1, [r2]
	.loc	3 79 5                          @ mtb.c:79:5
	ldr	r1, [r2]
	orr	r1, r1, #48
	str	r1, [r2]
	.loc	3 80 5                          @ mtb.c:80:5
	ldr	r1, [r2]
	movs	r3, #3
	bfi	r1, r3, #0, #4
	str	r1, [r2]
	movw	r2, #4168
	movt	r2, #57344
	.loc	3 84 5                          @ mtb.c:84:5
	ldr	r1, [r2]
	bic	r1, r1, #3072
	str	r1, [r2]
	.loc	3 85 5                          @ mtb.c:85:5
	ldr	r1, [r2]
	bic	r1, r1, #48
	str	r1, [r2]
	.loc	3 86 5                          @ mtb.c:86:5
	ldr	r1, [r2]
	bfi	r1, r12, #0, #4
	str	r1, [r2]
	movw	r2, #4184
	movt	r2, #57344
	.loc	3 89 5                          @ mtb.c:89:5
	ldr	r1, [r2]
	bic	r1, r1, #3072
	str	r1, [r2]
	.loc	3 90 5                          @ mtb.c:90:5
	ldr	r1, [r2]
	orr	r1, r1, #48
	str	r1, [r2]
	.loc	3 91 5                          @ mtb.c:91:5
	ldr	r1, [r2]
	bfi	r1, r3, #0, #4
	str	r1, [r2]
	.loc	3 93 57                         @ mtb.c:93:57
	ldr	r0, [r0]
	.loc	3 93 69 is_stmt 0               @ mtb.c:93:69
	ldr	r1, [r0]
	.loc	3 93 5                          @ mtb.c:93:5
	movw	r0, :lower16:.L.str
	movt	r0, :upper16:.L.str
	bl	printf
                                        @ kill: def $r1 killed $r0
	.loc	3 94 57 is_stmt 1               @ mtb.c:94:57
	ldr	r0, [sp, #4]                    @ 4-byte Reload
	ldr	r0, [r0]
	.loc	3 94 69 is_stmt 0               @ mtb.c:94:69
	ldr	r1, [r0, #12]
	.loc	3 94 5                          @ mtb.c:94:5
	movw	r0, :lower16:.L.str.1
	movt	r0, :upper16:.L.str.1
	bl	printf
	.loc	3 97 5 epilogue_begin is_stmt 1 @ mtb.c:97:5
	add	sp, #8
	pop	{r7, pc}
.Ltmp1:
.Lfunc_end0:
	.size	mtb_setup_DWT, .Lfunc_end0-mtb_setup_DWT
	.cfi_endproc
	.cantunwind
	.fnend
                                        @ -- End function
	.section	.text.mtb_cleanMTB,"ax",%progbits
	.hidden	mtb_cleanMTB                    @ -- Begin function mtb_cleanMTB
	.globl	mtb_cleanMTB
	.p2align	2
	.type	mtb_cleanMTB,%function
	.code	16                              @ @mtb_cleanMTB
	.thumb_func
mtb_cleanMTB:
.Lfunc_begin1:
	.loc	3 100 0                         @ mtb.c:100:0
	.fnstart
	.cfi_startproc
@ %bb.0:
	.pad	#8
	sub	sp, #8
	.cfi_def_cfa_offset 8
.Ltmp2:
	.loc	3 101 35 prologue_end           @ mtb.c:101:35
	movw	r0, :lower16:mtb
	movt	r0, :upper16:mtb
	ldr	r0, [r0]
	.loc	3 101 40 is_stmt 0              @ mtb.c:101:40
	ldr	r0, [r0, #12]
	.loc	3 101 16                        @ mtb.c:101:16
	str	r0, [sp, #4]
	movs	r0, #0
.Ltmp3:
	.loc	3 102 14 is_stmt 1              @ mtb.c:102:14
	str	r0, [sp]
	.loc	3 102 10 is_stmt 0              @ mtb.c:102:10
	b	.LBB1_1
.LBB1_1:                                @ =>This Inner Loop Header: Depth=1
.Ltmp4:
	.loc	3 102 21                        @ mtb.c:102:21
	ldr	r0, [sp]
.Ltmp5:
	.loc	3 102 5                         @ mtb.c:102:5
	cmp.w	r0, #1024
	bge	.LBB1_4
	b	.LBB1_2
.LBB1_2:                                @   in Loop: Header=BB1_1 Depth=1
.Ltmp6:
	.loc	3 103 9 is_stmt 1               @ mtb.c:103:9
	ldr	r1, [sp, #4]
	.loc	3 103 13 is_stmt 0              @ mtb.c:103:13
	ldr	r2, [sp]
	movs	r0, #0
	.loc	3 103 16                        @ mtb.c:103:16
	str.w	r0, [r1, r2, lsl #2]
	.loc	3 104 5 is_stmt 1               @ mtb.c:104:5
	b	.LBB1_3
.Ltmp7:
.LBB1_3:                                @   in Loop: Header=BB1_1 Depth=1
	.loc	3 102 43                        @ mtb.c:102:43
	ldr	r0, [sp]
	adds	r0, #1
	str	r0, [sp]
	.loc	3 102 5 is_stmt 0               @ mtb.c:102:5
	b	.LBB1_1
.Ltmp8:
.LBB1_4:
	.loc	3 105 1 epilogue_begin is_stmt 1 @ mtb.c:105:1
	add	sp, #8
	bx	lr
.Ltmp9:
.Lfunc_end1:
	.size	mtb_cleanMTB, .Lfunc_end1-mtb_cleanMTB
	.cfi_endproc
	.cantunwind
	.fnend
                                        @ -- End function
	.section	.text.vMTB_sendBuffer,"ax",%progbits
	.hidden	vMTB_sendBuffer                 @ -- Begin function vMTB_sendBuffer
	.globl	vMTB_sendBuffer
	.p2align	2
	.type	vMTB_sendBuffer,%function
	.code	16                              @ @vMTB_sendBuffer
	.thumb_func
vMTB_sendBuffer:
.Lfunc_begin2:
	.loc	3 111 0                         @ mtb.c:111:0
	.fnstart
	.cfi_startproc
@ %bb.0:
	.save	{r7, lr}
	push	{r7, lr}
	.cfi_def_cfa_offset 8
	.cfi_offset lr, -4
	.cfi_offset r7, -8
	.pad	#16
	sub	sp, #16
	.cfi_def_cfa_offset 24
.Ltmp10:
	.loc	3 113 9 prologue_end            @ mtb.c:113:9
	movw	r0, :lower16:.L.str.2
	movt	r0, :upper16:.L.str.2
	bl	printf
	.loc	3 117 18                        @ mtb.c:117:18
	movw	r0, :lower16:mtb
	movt	r0, :upper16:mtb
	str	r0, [sp, #4]                    @ 4-byte Spill
	ldr	r0, [r0]
	.loc	3 117 23 is_stmt 0              @ mtb.c:117:23
	ldr	r2, [r0]
	.loc	3 117 16                        @ mtb.c:117:16
	movw	r0, :lower16:log_counter
	movt	r0, :upper16:log_counter
	ldr	r1, [r0]
	add	r1, r2
	str	r1, [r0]
	.loc	3 118 40 is_stmt 1              @ mtb.c:118:40
	ldr	r1, [r0]
	.loc	3 118 5 is_stmt 0               @ mtb.c:118:5
	movw	r0, :lower16:.L.str.3
	movt	r0, :upper16:.L.str.3
	bl	printf
                                        @ kill: def $r1 killed $r0
	.loc	3 119 20 is_stmt 1              @ mtb.c:119:20
	ldr	r0, [sp, #4]                    @ 4-byte Reload
	ldr	r0, [r0]
	.loc	3 119 25 is_stmt 0              @ mtb.c:119:25
	ldr	r1, [r0]
	.loc	3 119 5                         @ mtb.c:119:5
	movw	r0, :lower16:.L.str.4
	movt	r0, :upper16:.L.str.4
	bl	printf
                                        @ kill: def $r1 killed $r0
	.loc	3 121 35 is_stmt 1              @ mtb.c:121:35
	ldr	r0, [sp, #4]                    @ 4-byte Reload
	ldr	r0, [r0]
	.loc	3 121 40 is_stmt 0              @ mtb.c:121:40
	ldr	r0, [r0, #12]
	.loc	3 121 16                        @ mtb.c:121:16
	str	r0, [sp, #12]
	movs	r0, #0
.Ltmp11:
	.loc	3 123 14 is_stmt 1              @ mtb.c:123:14
	str	r0, [sp, #8]
	.loc	3 123 10 is_stmt 0              @ mtb.c:123:10
	b	.LBB2_1
.LBB2_1:                                @ =>This Inner Loop Header: Depth=1
.Ltmp12:
	.loc	3 123 21                        @ mtb.c:123:21
	ldr	r0, [sp, #8]
	.loc	3 123 25                        @ mtb.c:123:25
	movw	r1, :lower16:mtb
	movt	r1, :upper16:mtb
	ldr	r1, [r1]
	.loc	3 123 30                        @ mtb.c:123:30
	ldr	r1, [r1]
.Ltmp13:
	.loc	3 123 5                         @ mtb.c:123:5
	cmp.w	r0, r1, lsr #2
	bhs	.LBB2_4
	b	.LBB2_2
.LBB2_2:                                @   in Loop: Header=BB2_1 Depth=1
.Ltmp14:
	.loc	3 124 23 is_stmt 1              @ mtb.c:124:23
	ldr	r0, [sp, #12]
	.loc	3 124 27 is_stmt 0              @ mtb.c:124:27
	ldr	r1, [sp, #8]
	.loc	3 124 23                        @ mtb.c:124:23
	ldr.w	r1, [r0, r1, lsl #2]
	.loc	3 124 9                         @ mtb.c:124:9
	movw	r0, :lower16:.L.str.5
	movt	r0, :upper16:.L.str.5
	bl	printf
	.loc	3 126 5 is_stmt 1               @ mtb.c:126:5
	b	.LBB2_3
.Ltmp15:
.LBB2_3:                                @   in Loop: Header=BB2_1 Depth=1
	.loc	3 123 47                        @ mtb.c:123:47
	ldr	r0, [sp, #8]
	adds	r0, #1
	str	r0, [sp, #8]
	.loc	3 123 5 is_stmt 0               @ mtb.c:123:5
	b	.LBB2_1
.Ltmp16:
.LBB2_4:
	.loc	3 133 1 is_stmt 1               @ mtb.c:133:1
	movw	r0, :lower16:.L.str.6
	movt	r0, :upper16:.L.str.6
	bl	printf
	.loc	3 135 5 epilogue_begin          @ mtb.c:135:5
	add	sp, #16
	pop	{r7, pc}
.Ltmp17:
.Lfunc_end2:
	.size	vMTB_sendBuffer, .Lfunc_end2-vMTB_sendBuffer
	.cfi_endproc
	.cantunwind
	.fnend
                                        @ -- End function
	.section	.text.mtb_debugMonitorHandler,"ax",%progbits
	.hidden	mtb_debugMonitorHandler         @ -- Begin function mtb_debugMonitorHandler
	.globl	mtb_debugMonitorHandler
	.p2align	2
	.type	mtb_debugMonitorHandler,%function
	.code	16                              @ @mtb_debugMonitorHandler
	.thumb_func
mtb_debugMonitorHandler:
.Lfunc_begin3:
	.loc	3 138 0                         @ mtb.c:138:0
	.fnstart
	.cfi_startproc
@ %bb.0:
	.save	{r7, lr}
	push	{r7, lr}
	.cfi_def_cfa_offset 8
	.cfi_offset lr, -4
	.cfi_offset r7, -8
	.pad	#8
	sub	sp, #8
	.cfi_def_cfa_offset 16
.Ltmp18:
	.loc	3 140 5 prologue_end            @ mtb.c:140:5
	movw	r0, :lower16:.L.str.7
	movt	r0, :upper16:.L.str.7
	bl	printf
	.loc	3 143 5                         @ mtb.c:143:5
	movw	r0, :lower16:mtb
	movt	r0, :upper16:mtb
	str	r0, [sp, #4]                    @ 4-byte Spill
	ldr	r1, [r0]
	.loc	3 143 21 is_stmt 0              @ mtb.c:143:21
	ldr	r0, [r1, #4]
	bic	r0, r0, #512
	str	r0, [r1, #4]
	.loc	3 149 5 is_stmt 1               @ mtb.c:149:5
	bl	vMTB_sendBuffer
	ldr	r0, [sp, #4]                    @ 4-byte Reload
	.loc	3 150 5                         @ mtb.c:150:5
	ldr	r1, [r0]
	movs	r0, #0
	.loc	3 150 23 is_stmt 0              @ mtb.c:150:23
	str	r0, [r1]
	.loc	3 154 5 epilogue_begin is_stmt 1 @ mtb.c:154:5
	add	sp, #8
	pop	{r7, pc}
.Ltmp19:
.Lfunc_end3:
	.size	mtb_debugMonitorHandler, .Lfunc_end3-mtb_debugMonitorHandler
	.cfi_endproc
	.cantunwind
	.fnend
                                        @ -- End function
	.section	.text.mtb_debugMonitorHandlerEmpty,"ax",%progbits
	.hidden	mtb_debugMonitorHandlerEmpty    @ -- Begin function mtb_debugMonitorHandlerEmpty
	.globl	mtb_debugMonitorHandlerEmpty
	.p2align	2
	.type	mtb_debugMonitorHandlerEmpty,%function
	.code	16                              @ @mtb_debugMonitorHandlerEmpty
	.thumb_func
mtb_debugMonitorHandlerEmpty:
.Lfunc_begin4:
	.fnstart
	.cfi_startproc
@ %bb.0:
	.loc	3 158 5 prologue_end            @ mtb.c:158:5
	b	.LBB4_1
.LBB4_1:                                @ =>This Inner Loop Header: Depth=1
	b	.LBB4_1
.Ltmp20:
.Lfunc_end4:
	.size	mtb_debugMonitorHandlerEmpty, .Lfunc_end4-mtb_debugMonitorHandlerEmpty
	.cfi_endproc
	.cantunwind
	.fnend
                                        @ -- End function
	.section	.text.mtb_remove_debugMonitor,"ax",%progbits
	.hidden	mtb_remove_debugMonitor         @ -- Begin function mtb_remove_debugMonitor
	.globl	mtb_remove_debugMonitor
	.p2align	2
	.type	mtb_remove_debugMonitor,%function
	.code	16                              @ @mtb_remove_debugMonitor
	.thumb_func
mtb_remove_debugMonitor:
.Lfunc_begin5:
	.loc	3 161 0                         @ mtb.c:161:0
	.fnstart
	.cfi_startproc
@ %bb.0:
	.pad	#4
	sub	sp, #4
	.cfi_def_cfa_offset 4
.Ltmp21:
	.loc	3 163 36 prologue_end           @ mtb.c:163:36
	movw	r0, :lower16:SCB_
	movt	r0, :upper16:SCB_
	ldr	r0, [r0]
	.loc	3 163 42 is_stmt 0              @ mtb.c:163:42
	ldr	r0, [r0, #8]
	.loc	3 163 16                        @ mtb.c:163:16
	str	r0, [sp]
	.loc	3 164 5 is_stmt 1               @ mtb.c:164:5
	ldr	r1, [sp]
	.loc	3 164 14 is_stmt 0              @ mtb.c:164:14
	movw	r0, :lower16:mtb_debugMonitorHandlerEmpty
	movt	r0, :upper16:mtb_debugMonitorHandlerEmpty
	str	r0, [r1, #48]
	.loc	3 165 5 epilogue_begin is_stmt 1 @ mtb.c:165:5
	add	sp, #4
	bx	lr
.Ltmp22:
.Lfunc_end5:
	.size	mtb_remove_debugMonitor, .Lfunc_end5-mtb_remove_debugMonitor
	.cfi_endproc
	.cantunwind
	.fnend
                                        @ -- End function
	.section	.text.pendsv_handler,"ax",%progbits
	.hidden	pendsv_handler                  @ -- Begin function pendsv_handler
	.globl	pendsv_handler
	.p2align	2
	.type	pendsv_handler,%function
	.code	16                              @ @pendsv_handler
	.thumb_func
pendsv_handler:
.Lfunc_begin6:
	.loc	3 169 0                         @ mtb.c:169:0
	.fnstart
	.cfi_startproc
@ %bb.0:
	.save	{r7, lr}
	push	{r7, lr}
	.cfi_def_cfa_offset 8
	.cfi_offset lr, -4
	.cfi_offset r7, -8
.Ltmp23:
	.loc	3 170 5 prologue_end            @ mtb.c:170:5
	movw	r0, :lower16:.L.str.8
	movt	r0, :upper16:.L.str.8
	bl	printf
	.loc	3 171 5                         @ mtb.c:171:5
	bl	vMTB_sendBuffer
	.loc	3 172 5                         @ mtb.c:172:5
	b	.LBB6_1
.LBB6_1:                                @ =>This Inner Loop Header: Depth=1
	b	.LBB6_1
.Ltmp24:
.Lfunc_end6:
	.size	pendsv_handler, .Lfunc_end6-pendsv_handler
	.cfi_endproc
	.cantunwind
	.fnend
                                        @ -- End function
	.section	.text.hardfault_handler,"ax",%progbits
	.hidden	hardfault_handler               @ -- Begin function hardfault_handler
	.globl	hardfault_handler
	.p2align	2
	.type	hardfault_handler,%function
	.code	16                              @ @hardfault_handler
	.thumb_func
hardfault_handler:
.Lfunc_begin7:
	.loc	3 176 0                         @ mtb.c:176:0
	.fnstart
	.cfi_startproc
@ %bb.0:
	.save	{r7, lr}
	push	{r7, lr}
	.cfi_def_cfa_offset 8
	.cfi_offset lr, -4
	.cfi_offset r7, -8
.Ltmp25:
	.loc	3 177 5 prologue_end            @ mtb.c:177:5
	movw	r0, :lower16:.L.str.9
	movt	r0, :upper16:.L.str.9
	bl	printf
	.loc	3 178 5                         @ mtb.c:178:5
	bl	vMTB_sendBuffer
	movw	r1, #60676
	movt	r1, #57344
	.loc	3 181 15                        @ mtb.c:181:15
	ldr	r0, [r1]
	orr	r0, r0, #268435456
	str	r0, [r1]
	.loc	3 183 5 epilogue_begin          @ mtb.c:183:5
	pop	{r7, pc}
.Ltmp26:
.Lfunc_end7:
	.size	hardfault_handler, .Lfunc_end7-hardfault_handler
	.cfi_endproc
	.cantunwind
	.fnend
                                        @ -- End function
	.section	.text.config_hardfault_handler,"ax",%progbits
	.hidden	config_hardfault_handler        @ -- Begin function config_hardfault_handler
	.globl	config_hardfault_handler
	.p2align	2
	.type	config_hardfault_handler,%function
	.code	16                              @ @config_hardfault_handler
	.thumb_func
config_hardfault_handler:
.Lfunc_begin8:
	.loc	3 187 0                         @ mtb.c:187:0
	.fnstart
	.cfi_startproc
@ %bb.0:
	.save	{r7, lr}
	push	{r7, lr}
	.cfi_def_cfa_offset 8
	.cfi_offset lr, -4
	.cfi_offset r7, -8
	.pad	#8
	sub	sp, #8
	.cfi_def_cfa_offset 16
	movw	r0, #60680
	movt	r0, #57344
.Ltmp27:
	.loc	3 188 41 prologue_end           @ mtb.c:188:41
	ldr	r0, [r0]
	.loc	3 188 16 is_stmt 0              @ mtb.c:188:16
	str	r0, [sp, #4]
	mvn	r0, #1
	movs	r1, #7
	.loc	3 190 5 is_stmt 1               @ mtb.c:190:5
	bl	__NVIC_SetPriority
	movs	r0, #0
.Ltmp28:
	.loc	3 192 14                        @ mtb.c:192:14
	str	r0, [sp]
	.loc	3 192 10 is_stmt 0              @ mtb.c:192:10
	b	.LBB8_1
.LBB8_1:                                @ =>This Inner Loop Header: Depth=1
.Ltmp29:
	.loc	3 192 21                        @ mtb.c:192:21
	ldr	r0, [sp]
.Ltmp30:
	.loc	3 192 5                         @ mtb.c:192:5
	cmp	r0, #15
	bgt	.LBB8_4
	b	.LBB8_2
.LBB8_2:                                @   in Loop: Header=BB8_1 Depth=1
.Ltmp31:
	.loc	3 193 9 is_stmt 1               @ mtb.c:193:9
	ldr	r1, [sp, #4]
	.loc	3 193 14 is_stmt 0              @ mtb.c:193:14
	ldr	r2, [sp]
	.loc	3 193 17                        @ mtb.c:193:17
	movw	r0, :lower16:hardfault_handler
	movt	r0, :upper16:hardfault_handler
	str.w	r0, [r1, r2, lsl #2]
	.loc	3 193 9                         @ mtb.c:193:9
	b	.LBB8_3
.LBB8_3:                                @   in Loop: Header=BB8_1 Depth=1
	.loc	3 192 31 is_stmt 1              @ mtb.c:192:31
	ldr	r0, [sp]
	adds	r0, #1
	str	r0, [sp]
	.loc	3 192 5 is_stmt 0               @ mtb.c:192:5
	b	.LBB8_1
.Ltmp32:
.LBB8_4:
	.loc	3 196 5 is_stmt 1               @ mtb.c:196:5
	ldr	r1, [sp, #4]
	.loc	3 196 14 is_stmt 0              @ mtb.c:196:14
	movw	r0, :lower16:pendsv_handler
	movt	r0, :upper16:pendsv_handler
	str	r0, [r1, #56]
	.loc	3 200 5 epilogue_begin is_stmt 1 @ mtb.c:200:5
	add	sp, #8
	pop	{r7, pc}
.Ltmp33:
.Lfunc_end8:
	.size	config_hardfault_handler, .Lfunc_end8-config_hardfault_handler
	.cfi_endproc
	.cantunwind
	.fnend
                                        @ -- End function
	.section	.text.__NVIC_SetPriority,"ax",%progbits
	.p2align	2                               @ -- Begin function __NVIC_SetPriority
	.type	__NVIC_SetPriority,%function
	.code	16                              @ @__NVIC_SetPriority
	.thumb_func
__NVIC_SetPriority:
.Lfunc_begin9:
	.loc	2 2556 0                        @ C:/Users/aj4775/AppData/Local/arm/packs/ARM/CMSIS/6.1.0/CMSIS/Core/Include\core_cm33.h:2556:0
	.fnstart
	.cfi_startproc
@ %bb.0:
	.pad	#8
	sub	sp, #8
	.cfi_def_cfa_offset 8
                                        @ kill: def $r2 killed $r0
	strb.w	r0, [sp, #7]
	str	r1, [sp]
.Ltmp34:
	.loc	2 2557 17 prologue_end          @ C:/Users/aj4775/AppData/Local/arm/packs/ARM/CMSIS/6.1.0/CMSIS/Core/Include\core_cm33.h:2557:17
	ldrsb.w	r0, [sp, #7]
.Ltmp35:
	.loc	2 2557 7 is_stmt 0              @ C:/Users/aj4775/AppData/Local/arm/packs/ARM/CMSIS/6.1.0/CMSIS/Core/Include\core_cm33.h:2557:7
	cmp	r0, #0
	bmi	.LBB9_2
	b	.LBB9_1
.LBB9_1:
.Ltmp36:
	.loc	2 2559 60 is_stmt 1             @ C:/Users/aj4775/AppData/Local/arm/packs/ARM/CMSIS/6.1.0/CMSIS/Core/Include\core_cm33.h:2559:60
	ldr	r0, [sp]
	.loc	2 2559 69 is_stmt 0             @ C:/Users/aj4775/AppData/Local/arm/packs/ARM/CMSIS/6.1.0/CMSIS/Core/Include\core_cm33.h:2559:69
	lsls	r0, r0, #5
	.loc	2 2559 26                       @ C:/Users/aj4775/AppData/Local/arm/packs/ARM/CMSIS/6.1.0/CMSIS/Core/Include\core_cm33.h:2559:26
	ldrsb.w	r1, [sp, #7]
	movw	r2, #58368
	movt	r2, #57344
	.loc	2 2559 47                       @ C:/Users/aj4775/AppData/Local/arm/packs/ARM/CMSIS/6.1.0/CMSIS/Core/Include\core_cm33.h:2559:47
	strb	r0, [r1, r2]
	.loc	2 2560 3 is_stmt 1              @ C:/Users/aj4775/AppData/Local/arm/packs/ARM/CMSIS/6.1.0/CMSIS/Core/Include\core_cm33.h:2560:3
	b	.LBB9_3
.Ltmp37:
.LBB9_2:
	.loc	2 2563 60                       @ C:/Users/aj4775/AppData/Local/arm/packs/ARM/CMSIS/6.1.0/CMSIS/Core/Include\core_cm33.h:2563:60
	ldr	r0, [sp]
	.loc	2 2563 69 is_stmt 0             @ C:/Users/aj4775/AppData/Local/arm/packs/ARM/CMSIS/6.1.0/CMSIS/Core/Include\core_cm33.h:2563:69
	lsls	r0, r0, #5
	.loc	2 2563 17                       @ C:/Users/aj4775/AppData/Local/arm/packs/ARM/CMSIS/6.1.0/CMSIS/Core/Include\core_cm33.h:2563:17
	ldrb.w	r1, [sp, #7]
	.loc	2 2563 33                       @ C:/Users/aj4775/AppData/Local/arm/packs/ARM/CMSIS/6.1.0/CMSIS/Core/Include\core_cm33.h:2563:33
	and	r1, r1, #15
	movw	r2, #60692
	movt	r2, #57344
	.loc	2 2563 47                       @ C:/Users/aj4775/AppData/Local/arm/packs/ARM/CMSIS/6.1.0/CMSIS/Core/Include\core_cm33.h:2563:47
	strb	r0, [r1, r2]
	b	.LBB9_3
.Ltmp38:
.LBB9_3:
	.loc	2 2565 1 epilogue_begin is_stmt 1 @ C:/Users/aj4775/AppData/Local/arm/packs/ARM/CMSIS/6.1.0/CMSIS/Core/Include\core_cm33.h:2565:1
	add	sp, #8
	bx	lr
.Ltmp39:
.Lfunc_end9:
	.size	__NVIC_SetPriority, .Lfunc_end9-__NVIC_SetPriority
	.cfi_endproc
	.cantunwind
	.fnend
                                        @ -- End function
	.section	.text.mtb_config_interrupthandlers,"ax",%progbits
	.hidden	mtb_config_interrupthandlers    @ -- Begin function mtb_config_interrupthandlers
	.globl	mtb_config_interrupthandlers
	.p2align	2
	.type	mtb_config_interrupthandlers,%function
	.code	16                              @ @mtb_config_interrupthandlers
	.thumb_func
mtb_config_interrupthandlers:
.Lfunc_begin10:
	.loc	3 203 0                         @ mtb.c:203:0
	.fnstart
	.cfi_startproc
@ %bb.0:
	.save	{r7, lr}
	push	{r7, lr}
	.cfi_def_cfa_offset 8
	.cfi_offset lr, -4
	.cfi_offset r7, -8
	.pad	#8
	sub	sp, #8
	.cfi_def_cfa_offset 16
	movw	r0, #60680
	movt	r0, #57344
.Ltmp40:
	.loc	3 205 41 prologue_end           @ mtb.c:205:41
	ldr	r0, [r0]
	.loc	3 205 16 is_stmt 0              @ mtb.c:205:16
	str	r0, [sp, #4]
	.loc	3 208 5 is_stmt 1               @ mtb.c:208:5
	ldr	r1, [sp, #4]
	.loc	3 208 14 is_stmt 0              @ mtb.c:208:14
	movw	r0, :lower16:mtb_debugMonitorHandler
	movt	r0, :upper16:mtb_debugMonitorHandler
	str	r0, [r1, #48]
	mvn	r0, #3
	movs	r1, #7
	.loc	3 211 5 is_stmt 1               @ mtb.c:211:5
	bl	__NVIC_SetPriority
	.loc	3 212 5 epilogue_begin          @ mtb.c:212:5
	add	sp, #8
	pop	{r7, pc}
.Ltmp41:
.Lfunc_end10:
	.size	mtb_config_interrupthandlers, .Lfunc_end10-mtb_config_interrupthandlers
	.cfi_endproc
	.cantunwind
	.fnend
                                        @ -- End function
	.section	.text.mtb_setup_MTB,"ax",%progbits
	.hidden	mtb_setup_MTB                   @ -- Begin function mtb_setup_MTB
	.globl	mtb_setup_MTB
	.p2align	2
	.type	mtb_setup_MTB,%function
	.code	16                              @ @mtb_setup_MTB
	.thumb_func
mtb_setup_MTB:
.Lfunc_begin11:
	.loc	3 216 0                         @ mtb.c:216:0
	.fnstart
	.cfi_startproc
@ %bb.0:
	.save	{r7, lr}
	push	{r7, lr}
	.cfi_def_cfa_offset 8
	.cfi_offset lr, -4
	.cfi_offset r7, -8
.Ltmp42:
	.loc	3 218 5 prologue_end            @ mtb.c:218:5
	movw	r0, :lower16:.L.str.10
	movt	r0, :upper16:.L.str.10
	bl	printf
	.loc	3 219 5                         @ mtb.c:219:5
	bl	mtb_cleanMTB
	.loc	3 220 5                         @ mtb.c:220:5
	movw	r0, :lower16:mtb
	movt	r0, :upper16:mtb
	ldr	r2, [r0]
	.loc	3 220 21 is_stmt 0              @ mtb.c:220:21
	ldr	r1, [r2, #16]
	orr	r1, r1, #2
	str	r1, [r2, #16]
	.loc	3 221 5 is_stmt 1               @ mtb.c:221:5
	ldr	r2, [r0]
	.loc	3 221 21 is_stmt 0              @ mtb.c:221:21
	ldr	r1, [r2, #20]
	orr	r1, r1, #8
	str	r1, [r2, #20]
	.loc	3 223 5 is_stmt 1               @ mtb.c:223:5
	ldr	r2, [r0]
	movs	r1, #0
	.loc	3 223 23 is_stmt 0              @ mtb.c:223:23
	str	r1, [r2]
	.loc	3 224 5 is_stmt 1               @ mtb.c:224:5
	ldr	r2, [r0]
	.loc	3 224 21 is_stmt 0              @ mtb.c:224:21
	ldr	r1, [r2, #4]
	orr	r1, r1, #32
	str	r1, [r2, #4]
	.loc	3 225 5 is_stmt 1               @ mtb.c:225:5
	ldr	r1, [r0]
	.loc	3 225 21 is_stmt 0              @ mtb.c:225:21
	ldr	r0, [r1, #4]
	orr	r0, r0, #15
	str	r0, [r1, #4]
	.loc	3 226 5 epilogue_begin is_stmt 1 @ mtb.c:226:5
	pop	{r7, pc}
.Ltmp43:
.Lfunc_end11:
	.size	mtb_setup_MTB, .Lfunc_end11-mtb_setup_MTB
	.cfi_endproc
	.cantunwind
	.fnend
                                        @ -- End function
	.section	.text.mtb_init,"ax",%progbits
	.hidden	mtb_init                        @ -- Begin function mtb_init
	.globl	mtb_init
	.p2align	2
	.type	mtb_init,%function
	.code	16                              @ @mtb_init
	.thumb_func
mtb_init:
.Lfunc_begin12:
	.loc	3 231 0                         @ mtb.c:231:0
	.fnstart
	.cfi_startproc
@ %bb.0:
	.save	{r7, lr}
	push	{r7, lr}
	.cfi_def_cfa_offset 8
	.cfi_offset lr, -4
	.cfi_offset r7, -8
.Ltmp44:
	.loc	3 232 5 prologue_end            @ mtb.c:232:5
	movw	r0, :lower16:.L.str.11
	movt	r0, :upper16:.L.str.11
	bl	printf
	.loc	3 233 5                         @ mtb.c:233:5
	bl	config_hardfault_handler
	.loc	3 234 17                        @ mtb.c:234:17
	movw	r1, :lower16:log_counter
	movt	r1, :upper16:log_counter
	movs	r0, #0
	str	r0, [r1]
	.loc	3 235 5                         @ mtb.c:235:5
	movw	r0, :lower16:.L.str.12
	movt	r0, :upper16:.L.str.12
	bl	printf
	.loc	3 236 2                         @ mtb.c:236:2
	bl	mtb_setup_DWT
	.loc	3 237 5                         @ mtb.c:237:5
	movw	r0, :lower16:.L.str.10
	movt	r0, :upper16:.L.str.10
	bl	printf
	.loc	3 238 2                         @ mtb.c:238:2
	bl	mtb_setup_MTB
	.loc	3 239 5                         @ mtb.c:239:5
	movw	r0, :lower16:.L.str.13
	movt	r0, :upper16:.L.str.13
	bl	printf
	.loc	3 240 5                         @ mtb.c:240:5
	bl	mtb_config_interrupthandlers
	.loc	3 241 2 epilogue_begin          @ mtb.c:241:2
	pop	{r7, pc}
.Ltmp45:
.Lfunc_end12:
	.size	mtb_init, .Lfunc_end12-mtb_init
	.cfi_endproc
	.cantunwind
	.fnend
                                        @ -- End function
	.section	.text.mtb_exit,"ax",%progbits
	.hidden	mtb_exit                        @ -- Begin function mtb_exit
	.globl	mtb_exit
	.p2align	2
	.type	mtb_exit,%function
	.code	16                              @ @mtb_exit
	.thumb_func
mtb_exit:
.Lfunc_begin13:
	.loc	3 244 0                         @ mtb.c:244:0
	.fnstart
	.cfi_startproc
@ %bb.0:
	.save	{r7, lr}
	push	{r7, lr}
	.cfi_def_cfa_offset 8
	.cfi_offset lr, -4
	.cfi_offset r7, -8
.Ltmp46:
	.file	6 "C:/Users/aj4775/AppData/Local/arm/packs/ARM/CMSIS/6.1.0/CMSIS/Core/Include" "cmsis_armclang.h"
	.loc	6 636 3 prologue_end            @ C:/Users/aj4775/AppData/Local/arm/packs/ARM/CMSIS/6.1.0/CMSIS/Core/Include\cmsis_armclang.h:636:3
	@APP
	cpsid i
	@NO_APP
.Ltmp47:
	.loc	3 249 5                         @ mtb.c:249:5
	bl	mtb_cleanMTB
	.loc	3 252 5                         @ mtb.c:252:5
	bl	mtb_remove_debugMonitor
	.loc	3 255 5                         @ mtb.c:255:5
	movw	r0, :lower16:mtb
	movt	r0, :upper16:mtb
	ldr	r2, [r0]
	.loc	3 255 21 is_stmt 0              @ mtb.c:255:21
	ldr	r1, [r2, #4]
	bic	r1, r1, #32
	str	r1, [r2, #4]
	.loc	3 256 5 is_stmt 1               @ mtb.c:256:5
	ldr	r2, [r0]
	.loc	3 256 21 is_stmt 0              @ mtb.c:256:21
	ldr	r1, [r2, #4]
	bic	r1, r1, #512
	str	r1, [r2, #4]
	.loc	3 257 5 is_stmt 1               @ mtb.c:257:5
	ldr	r1, [r0]
	.loc	3 257 21 is_stmt 0              @ mtb.c:257:21
	ldr	r0, [r1, #4]
	bic	r0, r0, #-2147483648
	str	r0, [r1, #4]
	.loc	3 260 5 is_stmt 1               @ mtb.c:260:5
	movw	r1, :lower16:DWT_
	movt	r1, :upper16:DWT_
	ldr	r2, [r1]
	movs	r0, #0
	.loc	3 260 17 is_stmt 0              @ mtb.c:260:17
	str	r0, [r2, #32]
	.loc	3 261 5 is_stmt 1               @ mtb.c:261:5
	ldr	r2, [r1]
	.loc	3 261 17 is_stmt 0              @ mtb.c:261:17
	str	r0, [r2, #48]
	.loc	3 262 5 is_stmt 1               @ mtb.c:262:5
	ldr	r2, [r1]
	.loc	3 262 17 is_stmt 0              @ mtb.c:262:17
	str	r0, [r2, #64]
	.loc	3 263 5 is_stmt 1               @ mtb.c:263:5
	ldr	r2, [r1]
	.loc	3 263 17 is_stmt 0              @ mtb.c:263:17
	str	r0, [r2, #80]
	.loc	3 264 5 is_stmt 1               @ mtb.c:264:5
	ldr	r2, [r1]
	.loc	3 264 21 is_stmt 0              @ mtb.c:264:21
	str	r0, [r2, #40]
	.loc	3 265 5 is_stmt 1               @ mtb.c:265:5
	ldr	r2, [r1]
	.loc	3 265 21 is_stmt 0              @ mtb.c:265:21
	str	r0, [r2, #56]
	.loc	3 266 5 is_stmt 1               @ mtb.c:266:5
	ldr	r2, [r1]
	.loc	3 266 21 is_stmt 0              @ mtb.c:266:21
	str	r0, [r2, #72]
	.loc	3 267 5 is_stmt 1               @ mtb.c:267:5
	ldr	r1, [r1]
	.loc	3 267 21 is_stmt 0              @ mtb.c:267:21
	str	r0, [r1, #88]
.Ltmp48:
	.loc	6 623 3 is_stmt 1               @ C:/Users/aj4775/AppData/Local/arm/packs/ARM/CMSIS/6.1.0/CMSIS/Core/Include\cmsis_armclang.h:623:3
	@APP
	cpsie i
	@NO_APP
.Ltmp49:
	.loc	3 271 5 epilogue_begin          @ mtb.c:271:5
	pop	{r7, pc}
.Ltmp50:
.Lfunc_end13:
	.size	mtb_exit, .Lfunc_end13-mtb_exit
	.cfi_endproc
	.cantunwind
	.fnend
                                        @ -- End function
	.section	.text.__debug_MTB_Registers,"ax",%progbits
	.hidden	__debug_MTB_Registers           @ -- Begin function __debug_MTB_Registers
	.globl	__debug_MTB_Registers
	.p2align	2
	.type	__debug_MTB_Registers,%function
	.code	16                              @ @__debug_MTB_Registers
	.thumb_func
__debug_MTB_Registers:
.Lfunc_begin14:
	.loc	3 276 0                         @ mtb.c:276:0
	.fnstart
	.cfi_startproc
@ %bb.0:
	.save	{r7, lr}
	push	{r7, lr}
	.cfi_def_cfa_offset 8
	.cfi_offset lr, -4
	.cfi_offset r7, -8
	.pad	#8
	sub	sp, #8
	.cfi_def_cfa_offset 16
.Ltmp51:
	.loc	3 277 5 prologue_end            @ mtb.c:277:5
	movw	r0, :lower16:.L.str.14
	movt	r0, :upper16:.L.str.14
	bl	printf
	.loc	3 278 48                        @ mtb.c:278:48
	movw	r0, :lower16:mtb
	movt	r0, :upper16:mtb
	str	r0, [sp, #4]                    @ 4-byte Spill
	ldr	r0, [r0]
	.loc	3 278 53 is_stmt 0              @ mtb.c:278:53
	ldr	r1, [r0, #12]
	.loc	3 278 5                         @ mtb.c:278:5
	movw	r0, :lower16:.L.str.15
	movt	r0, :upper16:.L.str.15
	bl	printf
                                        @ kill: def $r1 killed $r0
	.loc	3 279 52 is_stmt 1              @ mtb.c:279:52
	ldr	r0, [sp, #4]                    @ 4-byte Reload
	ldr	r0, [r0]
	.loc	3 279 57 is_stmt 0              @ mtb.c:279:57
	ldr	r1, [r0]
	.loc	3 279 5                         @ mtb.c:279:5
	movw	r0, :lower16:.L.str.16
	movt	r0, :upper16:.L.str.16
	bl	printf
                                        @ kill: def $r1 killed $r0
	.loc	3 280 50 is_stmt 1              @ mtb.c:280:50
	ldr	r0, [sp, #4]                    @ 4-byte Reload
	ldr	r0, [r0]
	.loc	3 280 55 is_stmt 0              @ mtb.c:280:55
	ldr	r1, [r0, #4]
	.loc	3 280 5                         @ mtb.c:280:5
	movw	r0, :lower16:.L.str.17
	movt	r0, :upper16:.L.str.17
	bl	printf
                                        @ kill: def $r1 killed $r0
	.loc	3 281 48 is_stmt 1              @ mtb.c:281:48
	ldr	r0, [sp, #4]                    @ 4-byte Reload
	ldr	r0, [r0]
	.loc	3 281 53 is_stmt 0              @ mtb.c:281:53
	ldr	r1, [r0, #8]
	.loc	3 281 5                         @ mtb.c:281:5
	movw	r0, :lower16:.L.str.18
	movt	r0, :upper16:.L.str.18
	bl	printf
                                        @ kill: def $r1 killed $r0
	.loc	3 282 50 is_stmt 1              @ mtb.c:282:50
	ldr	r0, [sp, #4]                    @ 4-byte Reload
	ldr	r0, [r0]
	.loc	3 282 55 is_stmt 0              @ mtb.c:282:55
	ldr	r1, [r0, #16]
	.loc	3 282 5                         @ mtb.c:282:5
	movw	r0, :lower16:.L.str.19
	movt	r0, :upper16:.L.str.19
	bl	printf
                                        @ kill: def $r1 killed $r0
	.loc	3 283 49 is_stmt 1              @ mtb.c:283:49
	ldr	r0, [sp, #4]                    @ 4-byte Reload
	ldr	r0, [r0]
	.loc	3 283 54 is_stmt 0              @ mtb.c:283:54
	ldr	r1, [r0, #20]
	.loc	3 283 5                         @ mtb.c:283:5
	movw	r0, :lower16:.L.str.20
	movt	r0, :upper16:.L.str.20
	bl	printf
                                        @ kill: def $r1 killed $r0
	.loc	3 284 50 is_stmt 1              @ mtb.c:284:50
	ldr	r0, [sp, #4]                    @ 4-byte Reload
	ldr	r0, [r0]
	.loc	3 284 55 is_stmt 0              @ mtb.c:284:55
	ldr	r1, [r0, #24]
	.loc	3 284 5                         @ mtb.c:284:5
	movw	r0, :lower16:.L.str.21
	movt	r0, :upper16:.L.str.21
	bl	printf
	.loc	3 285 5 epilogue_begin is_stmt 1 @ mtb.c:285:5
	add	sp, #8
	pop	{r7, pc}
.Ltmp52:
.Lfunc_end14:
	.size	__debug_MTB_Registers, .Lfunc_end14-__debug_MTB_Registers
	.cfi_endproc
	.cantunwind
	.fnend
                                        @ -- End function
	.section	.text.__debug_DWT_Registers,"ax",%progbits
	.hidden	__debug_DWT_Registers           @ -- Begin function __debug_DWT_Registers
	.globl	__debug_DWT_Registers
	.p2align	2
	.type	__debug_DWT_Registers,%function
	.code	16                              @ @__debug_DWT_Registers
	.thumb_func
__debug_DWT_Registers:
.Lfunc_begin15:
	.loc	3 288 0                         @ mtb.c:288:0
	.fnstart
	.cfi_startproc
@ %bb.0:
	.save	{r7, lr}
	push	{r7, lr}
	.cfi_def_cfa_offset 8
	.cfi_offset lr, -4
	.cfi_offset r7, -8
	.pad	#8
	sub	sp, #8
	.cfi_def_cfa_offset 16
.Ltmp53:
	.loc	3 289 5 prologue_end            @ mtb.c:289:5
	movw	r0, :lower16:.L.str.22
	movt	r0, :upper16:.L.str.22
	bl	printf
	.loc	3 290 49                        @ mtb.c:290:49
	movw	r0, :lower16:DWT_
	movt	r0, :upper16:DWT_
	str	r0, [sp, #4]                    @ 4-byte Spill
	ldr	r0, [r0]
	.loc	3 290 55 is_stmt 0              @ mtb.c:290:55
	ldr	r1, [r0, #32]
	.loc	3 290 5                         @ mtb.c:290:5
	movw	r0, :lower16:.L.str.23
	movt	r0, :upper16:.L.str.23
	bl	printf
                                        @ kill: def $r1 killed $r0
	.loc	3 291 49 is_stmt 1              @ mtb.c:291:49
	ldr	r0, [sp, #4]                    @ 4-byte Reload
	ldr	r0, [r0]
	.loc	3 291 55 is_stmt 0              @ mtb.c:291:55
	ldr	r1, [r0, #48]
	.loc	3 291 5                         @ mtb.c:291:5
	movw	r0, :lower16:.L.str.24
	movt	r0, :upper16:.L.str.24
	bl	printf
                                        @ kill: def $r1 killed $r0
	.loc	3 292 49 is_stmt 1              @ mtb.c:292:49
	ldr	r0, [sp, #4]                    @ 4-byte Reload
	ldr	r0, [r0]
	.loc	3 292 55 is_stmt 0              @ mtb.c:292:55
	ldr	r1, [r0, #64]
	.loc	3 292 5                         @ mtb.c:292:5
	movw	r0, :lower16:.L.str.25
	movt	r0, :upper16:.L.str.25
	bl	printf
                                        @ kill: def $r1 killed $r0
	.loc	3 293 49 is_stmt 1              @ mtb.c:293:49
	ldr	r0, [sp, #4]                    @ 4-byte Reload
	ldr	r0, [r0]
	.loc	3 293 55 is_stmt 0              @ mtb.c:293:55
	ldr	r1, [r0, #80]
	.loc	3 293 5                         @ mtb.c:293:5
	movw	r0, :lower16:.L.str.26
	movt	r0, :upper16:.L.str.26
	bl	printf
                                        @ kill: def $r1 killed $r0
	.loc	3 294 53 is_stmt 1              @ mtb.c:294:53
	ldr	r0, [sp, #4]                    @ 4-byte Reload
	ldr	r0, [r0]
	.loc	3 294 59 is_stmt 0              @ mtb.c:294:59
	ldr	r1, [r0, #40]
	.loc	3 294 5                         @ mtb.c:294:5
	movw	r0, :lower16:.L.str.27
	movt	r0, :upper16:.L.str.27
	bl	printf
                                        @ kill: def $r1 killed $r0
	.loc	3 295 53 is_stmt 1              @ mtb.c:295:53
	ldr	r0, [sp, #4]                    @ 4-byte Reload
	ldr	r0, [r0]
	.loc	3 295 59 is_stmt 0              @ mtb.c:295:59
	ldr	r1, [r0, #56]
	.loc	3 295 5                         @ mtb.c:295:5
	movw	r0, :lower16:.L.str.28
	movt	r0, :upper16:.L.str.28
	bl	printf
                                        @ kill: def $r1 killed $r0
	.loc	3 296 53 is_stmt 1              @ mtb.c:296:53
	ldr	r0, [sp, #4]                    @ 4-byte Reload
	ldr	r0, [r0]
	.loc	3 296 59 is_stmt 0              @ mtb.c:296:59
	ldr	r1, [r0, #72]
	.loc	3 296 5                         @ mtb.c:296:5
	movw	r0, :lower16:.L.str.29
	movt	r0, :upper16:.L.str.29
	bl	printf
                                        @ kill: def $r1 killed $r0
	.loc	3 297 53 is_stmt 1              @ mtb.c:297:53
	ldr	r0, [sp, #4]                    @ 4-byte Reload
	ldr	r0, [r0]
	.loc	3 297 59 is_stmt 0              @ mtb.c:297:59
	ldr	r1, [r0, #88]
	.loc	3 297 5                         @ mtb.c:297:5
	movw	r0, :lower16:.L.str.30
	movt	r0, :upper16:.L.str.30
	bl	printf
	.loc	3 298 5 epilogue_begin is_stmt 1 @ mtb.c:298:5
	add	sp, #8
	pop	{r7, pc}
.Ltmp54:
.Lfunc_end15:
	.size	__debug_DWT_Registers, .Lfunc_end15-__debug_DWT_Registers
	.cfi_endproc
	.cantunwind
	.fnend
                                        @ -- End function
	.hidden	SCB_                            @ @SCB_
	.type	SCB_,%object
	.section	.data.SCB_,"aw",%progbits
	.globl	SCB_
	.p2align	2, 0x0
SCB_:
	.long	3758157056
	.size	SCB_, 4

	.hidden	mtb                             @ @mtb
	.type	mtb,%object
	.section	.data.mtb,"aw",%progbits
	.globl	mtb
	.p2align	2, 0x0
mtb:
	.long	3758370816
	.size	mtb, 4

	.hidden	CoreDebug_                      @ @CoreDebug_
	.type	CoreDebug_,%object
	.section	.data.CoreDebug_,"aw",%progbits
	.globl	CoreDebug_
	.p2align	2, 0x0
CoreDebug_:
	.long	3758157296
	.size	CoreDebug_, 4

	.hidden	DWT_                            @ @DWT_
	.type	DWT_,%object
	.section	.data.DWT_,"aw",%progbits
	.globl	DWT_
	.p2align	2, 0x0
DWT_:
	.long	3758100480
	.size	DWT_, 4

	.hidden	ITM_                            @ @ITM_
	.type	ITM_,%object
	.section	.data.ITM_,"aw",%progbits
	.globl	ITM_
	.p2align	2, 0x0
ITM_:
	.long	3758096384
	.size	ITM_, 4

	.type	.L.str,%object                  @ @.str
	.section	.rodata.str1.1,"aMS",%progbits,1
.L.str:
	.asciz	"[LOG] CoreDebug_->DHCSR : %x\n"
	.size	.L.str, 30

	.type	.L.str.1,%object                @ @.str.1
.L.str.1:
	.asciz	"[LOG] CoreDebug_->DEMCR : %x\n"
	.size	.L.str.1, 30

	.type	.L.str.2,%object                @ @.str.2
.L.str.2:
	.asciz	"[LOG] Sending MTB Buffer\n"
	.size	.L.str.2, 26

	.hidden	log_counter                     @ @log_counter
	.type	log_counter,%object
	.section	.bss.log_counter,"aw",%nobits
	.globl	log_counter
	.p2align	2, 0x0
log_counter:
	.long	0                               @ 0x0
	.size	log_counter, 4

	.type	.L.str.3,%object                @ @.str.3
	.section	.rodata.str1.1,"aMS",%progbits,1
.L.str.3:
	.asciz	"[LOG] Log Counter : %d\n"
	.size	.L.str.3, 24

	.type	.L.str.4,%object                @ @.str.4
.L.str.4:
	.asciz	"%d\n"
	.size	.L.str.4, 4

	.type	.L.str.5,%object                @ @.str.5
.L.str.5:
	.asciz	"%x;"
	.size	.L.str.5, 4

	.type	.L.str.6,%object                @ @.str.6
.L.str.6:
	.asciz	"\n[LOG] MTB Buffer Sent\n"
	.size	.L.str.6, 24

	.type	.L.str.7,%object                @ @.str.7
.L.str.7:
	.asciz	"[LOG] Debug Monitor Handler\n"
	.size	.L.str.7, 29

	.type	.L.str.8,%object                @ @.str.8
.L.str.8:
	.asciz	"[LOG] PendSV\n"
	.size	.L.str.8, 14

	.type	.L.str.9,%object                @ @.str.9
.L.str.9:
	.asciz	"[ERROR] Hardfault\n"
	.size	.L.str.9, 19

	.type	.L.str.10,%object               @ @.str.10
.L.str.10:
	.asciz	"[LOG] Setting up MTB\n"
	.size	.L.str.10, 22

	.type	.L.str.11,%object               @ @.str.11
.L.str.11:
	.asciz	"[LOG] Setting up hardfaultHandler\n"
	.size	.L.str.11, 35

	.type	.L.str.12,%object               @ @.str.12
.L.str.12:
	.asciz	"[LOG] Setting up DWT\n"
	.size	.L.str.12, 22

	.type	.L.str.13,%object               @ @.str.13
.L.str.13:
	.asciz	"[LOG] Setting up Interrupt Handlers\n"
	.size	.L.str.13, 37

	.type	.L.str.14,%object               @ @.str.14
.L.str.14:
	.asciz	"[LOG] Entering Debug MTB Registers\n"
	.size	.L.str.14, 36

	.type	.L.str.15,%object               @ @.str.15
.L.str.15:
	.asciz	"[LOG] MTB_BASE : %x\n"
	.size	.L.str.15, 21

	.type	.L.str.16,%object               @ @.str.16
.L.str.16:
	.asciz	"[LOG] MTB_POSITION : %x\n"
	.size	.L.str.16, 25

	.type	.L.str.17,%object               @ @.str.17
.L.str.17:
	.asciz	"[LOG] MTB_MASTER : %x\n"
	.size	.L.str.17, 23

	.type	.L.str.18,%object               @ @.str.18
.L.str.18:
	.asciz	"[LOG] MTB_FLOW : %x\n"
	.size	.L.str.18, 21

	.type	.L.str.19,%object               @ @.str.19
.L.str.19:
	.asciz	"[LOG] MTB_TSTART : %x\n"
	.size	.L.str.19, 23

	.type	.L.str.20,%object               @ @.str.20
.L.str.20:
	.asciz	"[LOG] MTB_TSTOP : %x\n"
	.size	.L.str.20, 22

	.type	.L.str.21,%object               @ @.str.21
.L.str.21:
	.asciz	"[LOG] MTB_SECURE : %x\n"
	.size	.L.str.21, 23

	.type	.L.str.22,%object               @ @.str.22
.L.str.22:
	.asciz	"[LOG] Entering Debug DWT Registers\n"
	.size	.L.str.22, 36

	.type	.L.str.23,%object               @ @.str.23
.L.str.23:
	.asciz	"[LOG] DWT_COMP0 : %x\n"
	.size	.L.str.23, 22

	.type	.L.str.24,%object               @ @.str.24
.L.str.24:
	.asciz	"[LOG] DWT_COMP1 : %x\n"
	.size	.L.str.24, 22

	.type	.L.str.25,%object               @ @.str.25
.L.str.25:
	.asciz	"[LOG] DWT_COMP2 : %x\n"
	.size	.L.str.25, 22

	.type	.L.str.26,%object               @ @.str.26
.L.str.26:
	.asciz	"[LOG] DWT_COMP3 : %x\n"
	.size	.L.str.26, 22

	.type	.L.str.27,%object               @ @.str.27
.L.str.27:
	.asciz	"[LOG] DWT_FUNCTION0 : %x\n"
	.size	.L.str.27, 26

	.type	.L.str.28,%object               @ @.str.28
.L.str.28:
	.asciz	"[LOG] DWT_FUNCTION1 : %x\n"
	.size	.L.str.28, 26

	.type	.L.str.29,%object               @ @.str.29
.L.str.29:
	.asciz	"[LOG] DWT_FUNCTION2 : %x\n"
	.size	.L.str.29, 26

	.type	.L.str.30,%object               @ @.str.30
.L.str.30:
	.asciz	"[LOG] DWT_FUNCTION3 : %x\n"
	.size	.L.str.30, 26

	.section	".note.GNU-stack","",%progbits
	.eabi_attribute	30, 6	@ Tag_ABI_optimization_goals
	.ARM_attribute	16, 1	@ Tag_AV_eba