	.text
	.syntax unified
	.eabi_attribute	67, "2.09"	@ Tag_conformance
	.cpu	cortex-m33
	.eabi_attribute	6, 17	@ Tag_CPU_arch
	.eabi_attribute	7, 77	@ Tag_CPU_arch_profile
	.eabi_attribute	8, 0	@ Tag_ARM_ISA_use
	.eabi_attribute	9, 3	@ Tag_THUMB_ISA_use
	.fpu	fpv5-sp-d16
	.eabi_attribute	27, 1	@ Tag_ABI_HardFP_use
	.eabi_attribute	36, 1	@ Tag_FP_HP_extension
	.eabi_attribute	46, 1	@ Tag_DSP_extension
	.eabi_attribute	34, 1	@ Tag_CPU_unaligned_access
	.eabi_attribute	17, 1	@ Tag_ABI_PCS_GOT_use
	.eabi_attribute	20, 2	@ Tag_ABI_FP_denormal
	.eabi_attribute	21, 0	@ Tag_ABI_FP_exceptions
	.eabi_attribute	23, 1	@ Tag_ABI_FP_number_model
	.eabi_attribute	24, 1	@ Tag_ABI_align_needed
	.eabi_attribute	25, 1	@ Tag_ABI_align_preserved
	.eabi_attribute	28, 1	@ Tag_ABI_VFP_args
	.eabi_attribute	38, 1	@ Tag_ABI_FP_16bit_format
	.eabi_attribute	18, 2	@ Tag_ABI_PCS_wchar_t
	.eabi_attribute	26, 1	@ Tag_ABI_enum_size
	.eabi_attribute	14, 0	@ Tag_ABI_PCS_R9_use
	.file	"retarget_io.c"
	.file	1 "C:/Users/aj4775/AppData/Local/arm/packs/Keil/ARM_Compiler/1.7.2/Source" "retarget_io.c"
	.section	.text._sys_open,"ax",%progbits
	.hidden	_sys_open                       @ -- Begin function _sys_open
	.weak	_sys_open
	.p2align	2
	.type	_sys_open,%function
	.code	16                              @ @_sys_open
	.thumb_func
_sys_open:
.Lfunc_begin0:
	.loc	1 413 0                         @ C:/Users/aj4775/AppData/Local/arm/packs/Keil/ARM_Compiler/1.7.2/Source/retarget_io.c:413:0
	.fnstart
	.cfi_sections .debug_frame
	.cfi_startproc
@ %bb.0:
	.save	{r7, lr}
	push	{r7, lr}
	.cfi_def_cfa_offset 8
	.cfi_offset lr, -4
	.cfi_offset r7, -8
	.pad	#16
	sub	sp, #16
	.cfi_def_cfa_offset 24
	str	r0, [sp, #8]
	str	r1, [sp, #4]
.Ltmp0:
	.loc	1 418 7 prologue_end            @ C:/Users/aj4775/AppData/Local/arm/packs/Keil/ARM_Compiler/1.7.2/Source/retarget_io.c:418:7
	ldr	r0, [sp, #8]
.Ltmp1:
	.loc	1 418 7 is_stmt 0               @ C:/Users/aj4775/AppData/Local/arm/packs/Keil/ARM_Compiler/1.7.2/Source/retarget_io.c:418:7
	cbnz	r0, .LBB0_2
	b	.LBB0_1
.LBB0_1:
	.loc	1 0 7                           @ C:/Users/aj4775/AppData/Local/arm/packs/Keil/ARM_Compiler/1.7.2/Source/retarget_io.c:0:7
	mov.w	r0, #-1
.Ltmp2:
	.loc	1 419 5 is_stmt 1               @ C:/Users/aj4775/AppData/Local/arm/packs/Keil/ARM_Compiler/1.7.2/Source/retarget_io.c:419:5
	str	r0, [sp, #12]
	b	.LBB0_11
.Ltmp3:
.LBB0_2:
	.loc	1 422 7                         @ C:/Users/aj4775/AppData/Local/arm/packs/Keil/ARM_Compiler/1.7.2/Source/retarget_io.c:422:7
	ldr	r0, [sp, #8]
	ldrb	r0, [r0]
.Ltmp4:
	.loc	1 422 7 is_stmt 0               @ C:/Users/aj4775/AppData/Local/arm/packs/Keil/ARM_Compiler/1.7.2/Source/retarget_io.c:422:7
	cmp	r0, #58
	bne	.LBB0_10
	b	.LBB0_3
.LBB0_3:
.Ltmp5:
	.loc	1 423 16 is_stmt 1              @ C:/Users/aj4775/AppData/Local/arm/packs/Keil/ARM_Compiler/1.7.2/Source/retarget_io.c:423:16
	ldr	r0, [sp, #8]
	.loc	1 423 9 is_stmt 0               @ C:/Users/aj4775/AppData/Local/arm/packs/Keil/ARM_Compiler/1.7.2/Source/retarget_io.c:423:9
	movw	r1, :lower16:.L.str
	movt	r1, :upper16:.L.str
	bl	strcmp
.Ltmp6:
	.loc	1 423 9                         @ C:/Users/aj4775/AppData/Local/arm/packs/Keil/ARM_Compiler/1.7.2/Source/retarget_io.c:423:9
	cbnz	r0, .LBB0_5
	b	.LBB0_4
.LBB0_4:
	.loc	1 0 9                           @ C:/Users/aj4775/AppData/Local/arm/packs/Keil/ARM_Compiler/1.7.2/Source/retarget_io.c:0:9
	movw	r0, #32769
.Ltmp7:
	.loc	1 424 7 is_stmt 1               @ C:/Users/aj4775/AppData/Local/arm/packs/Keil/ARM_Compiler/1.7.2/Source/retarget_io.c:424:7
	str	r0, [sp, #12]
	b	.LBB0_11
.Ltmp8:
.LBB0_5:
	.loc	1 426 16                        @ C:/Users/aj4775/AppData/Local/arm/packs/Keil/ARM_Compiler/1.7.2/Source/retarget_io.c:426:16
	ldr	r0, [sp, #8]
	.loc	1 426 9 is_stmt 0               @ C:/Users/aj4775/AppData/Local/arm/packs/Keil/ARM_Compiler/1.7.2/Source/retarget_io.c:426:9
	movw	r1, :lower16:.L.str.1
	movt	r1, :upper16:.L.str.1
	bl	strcmp
.Ltmp9:
	.loc	1 426 9                         @ C:/Users/aj4775/AppData/Local/arm/packs/Keil/ARM_Compiler/1.7.2/Source/retarget_io.c:426:9
	cbnz	r0, .LBB0_7
	b	.LBB0_6
.LBB0_6:
	.loc	1 0 9                           @ C:/Users/aj4775/AppData/Local/arm/packs/Keil/ARM_Compiler/1.7.2/Source/retarget_io.c:0:9
	movw	r0, #32770
.Ltmp10:
	.loc	1 427 7 is_stmt 1               @ C:/Users/aj4775/AppData/Local/arm/packs/Keil/ARM_Compiler/1.7.2/Source/retarget_io.c:427:7
	str	r0, [sp, #12]
	b	.LBB0_11
.Ltmp11:
.LBB0_7:
	.loc	1 429 16                        @ C:/Users/aj4775/AppData/Local/arm/packs/Keil/ARM_Compiler/1.7.2/Source/retarget_io.c:429:16
	ldr	r0, [sp, #8]
	.loc	1 429 9 is_stmt 0               @ C:/Users/aj4775/AppData/Local/arm/packs/Keil/ARM_Compiler/1.7.2/Source/retarget_io.c:429:9
	movw	r1, :lower16:.L.str.2
	movt	r1, :upper16:.L.str.2
	bl	strcmp
.Ltmp12:
	.loc	1 429 9                         @ C:/Users/aj4775/AppData/Local/arm/packs/Keil/ARM_Compiler/1.7.2/Source/retarget_io.c:429:9
	cbnz	r0, .LBB0_9
	b	.LBB0_8
.LBB0_8:
	.loc	1 0 9                           @ C:/Users/aj4775/AppData/Local/arm/packs/Keil/ARM_Compiler/1.7.2/Source/retarget_io.c:0:9
	movw	r0, #32771
.Ltmp13:
	.loc	1 430 7 is_stmt 1               @ C:/Users/aj4775/AppData/Local/arm/packs/Keil/ARM_Compiler/1.7.2/Source/retarget_io.c:430:7
	str	r0, [sp, #12]
	b	.LBB0_11
.Ltmp14:
.LBB0_9:
	.loc	1 0 7 is_stmt 0                 @ C:/Users/aj4775/AppData/Local/arm/packs/Keil/ARM_Compiler/1.7.2/Source/retarget_io.c:0:7
	mov.w	r0, #-1
	.loc	1 432 5 is_stmt 1               @ C:/Users/aj4775/AppData/Local/arm/packs/Keil/ARM_Compiler/1.7.2/Source/retarget_io.c:432:5
	str	r0, [sp, #12]
	b	.LBB0_11
.Ltmp15:
.LBB0_10:
	.loc	1 0 5 is_stmt 0                 @ C:/Users/aj4775/AppData/Local/arm/packs/Keil/ARM_Compiler/1.7.2/Source/retarget_io.c:0:5
	mov.w	r0, #-1
	.loc	1 440 3 is_stmt 1               @ C:/Users/aj4775/AppData/Local/arm/packs/Keil/ARM_Compiler/1.7.2/Source/retarget_io.c:440:3
	str	r0, [sp, #12]
	b	.LBB0_11
.LBB0_11:
	.loc	1 442 1                         @ C:/Users/aj4775/AppData/Local/arm/packs/Keil/ARM_Compiler/1.7.2/Source/retarget_io.c:442:1
	ldr	r0, [sp, #12]
	.loc	1 442 1 epilogue_begin is_stmt 0 @ C:/Users/aj4775/AppData/Local/arm/packs/Keil/ARM_Compiler/1.7.2/Source/retarget_io.c:442:1
	add	sp, #16
	pop	{r7, pc}
.Ltmp16:
.Lfunc_end0:
	.size	_sys_open, .Lfunc_end0-_sys_open
	.cfi_endproc
	.cantunwind
	.fnend
                                        @ -- End function
	.section	.text._sys_close,"ax",%progbits
	.hidden	_sys_close                      @ -- Begin function _sys_close
	.weak	_sys_close
	.p2align	2
	.type	_sys_close,%function
	.code	16                              @ @_sys_close
	.thumb_func
_sys_close:
.Lfunc_begin1:
	.loc	1 459 0 is_stmt 1               @ C:/Users/aj4775/AppData/Local/arm/packs/Keil/ARM_Compiler/1.7.2/Source/retarget_io.c:459:0
	.fnstart
	.cfi_startproc
@ %bb.0:
	.pad	#12
	sub	sp, #12
	.cfi_def_cfa_offset 12
	str	r0, [sp, #4]
.Ltmp17:
	.loc	1 461 11 prologue_end           @ C:/Users/aj4775/AppData/Local/arm/packs/Keil/ARM_Compiler/1.7.2/Source/retarget_io.c:461:11
	ldr	r0, [sp, #4]
	str	r0, [sp]                        @ 4-byte Spill
	movw	r1, #32769
	.loc	1 461 3 is_stmt 0               @ C:/Users/aj4775/AppData/Local/arm/packs/Keil/ARM_Compiler/1.7.2/Source/retarget_io.c:461:3
	cmp	r0, r1
	beq	.LBB1_3
	b	.LBB1_1
.LBB1_1:
	.loc	1 0 3                           @ C:/Users/aj4775/AppData/Local/arm/packs/Keil/ARM_Compiler/1.7.2/Source/retarget_io.c:0:3
	ldr	r0, [sp]                        @ 4-byte Reload
	movw	r1, #32770
	.loc	1 461 3                         @ C:/Users/aj4775/AppData/Local/arm/packs/Keil/ARM_Compiler/1.7.2/Source/retarget_io.c:461:3
	cmp	r0, r1
	beq	.LBB1_4
	b	.LBB1_2
.LBB1_2:
	.loc	1 0 3                           @ C:/Users/aj4775/AppData/Local/arm/packs/Keil/ARM_Compiler/1.7.2/Source/retarget_io.c:0:3
	ldr	r0, [sp]                        @ 4-byte Reload
	movw	r1, #32771
	.loc	1 461 3                         @ C:/Users/aj4775/AppData/Local/arm/packs/Keil/ARM_Compiler/1.7.2/Source/retarget_io.c:461:3
	cmp	r0, r1
	beq	.LBB1_5
	b	.LBB1_6
.LBB1_3:
	.loc	1 0 3                           @ C:/Users/aj4775/AppData/Local/arm/packs/Keil/ARM_Compiler/1.7.2/Source/retarget_io.c:0:3
	movs	r0, #0
.Ltmp18:
	.loc	1 463 7 is_stmt 1               @ C:/Users/aj4775/AppData/Local/arm/packs/Keil/ARM_Compiler/1.7.2/Source/retarget_io.c:463:7
	str	r0, [sp, #8]
	b	.LBB1_7
.LBB1_4:
	.loc	1 0 7 is_stmt 0                 @ C:/Users/aj4775/AppData/Local/arm/packs/Keil/ARM_Compiler/1.7.2/Source/retarget_io.c:0:7
	movs	r0, #0
	.loc	1 465 7 is_stmt 1               @ C:/Users/aj4775/AppData/Local/arm/packs/Keil/ARM_Compiler/1.7.2/Source/retarget_io.c:465:7
	str	r0, [sp, #8]
	b	.LBB1_7
.LBB1_5:
	.loc	1 0 7 is_stmt 0                 @ C:/Users/aj4775/AppData/Local/arm/packs/Keil/ARM_Compiler/1.7.2/Source/retarget_io.c:0:7
	movs	r0, #0
	.loc	1 467 7 is_stmt 1               @ C:/Users/aj4775/AppData/Local/arm/packs/Keil/ARM_Compiler/1.7.2/Source/retarget_io.c:467:7
	str	r0, [sp, #8]
	b	.LBB1_7
.Ltmp19:
.LBB1_6:
	.loc	1 0 7 is_stmt 0                 @ C:/Users/aj4775/AppData/Local/arm/packs/Keil/ARM_Compiler/1.7.2/Source/retarget_io.c:0:7
	mov.w	r0, #-1
	.loc	1 475 3 is_stmt 1               @ C:/Users/aj4775/AppData/Local/arm/packs/Keil/ARM_Compiler/1.7.2/Source/retarget_io.c:475:3
	str	r0, [sp, #8]
	b	.LBB1_7
.LBB1_7:
	.loc	1 477 1                         @ C:/Users/aj4775/AppData/Local/arm/packs/Keil/ARM_Compiler/1.7.2/Source/retarget_io.c:477:1
	ldr	r0, [sp, #8]
	.loc	1 477 1 epilogue_begin is_stmt 0 @ C:/Users/aj4775/AppData/Local/arm/packs/Keil/ARM_Compiler/1.7.2/Source/retarget_io.c:477:1
	add	sp, #12
	bx	lr
.Ltmp20:
.Lfunc_end1:
	.size	_sys_close, .Lfunc_end1-_sys_close
	.cfi_endproc
	.cantunwind
	.fnend
                                        @ -- End function
	.section	.text._sys_write,"ax",%progbits
	.hidden	_sys_write                      @ -- Begin function _sys_write
	.weak	_sys_write
	.p2align	2
	.type	_sys_write,%function
	.code	16                              @ @_sys_write
	.thumb_func
_sys_write:
.Lfunc_begin2:
	.loc	1 501 0 is_stmt 1               @ C:/Users/aj4775/AppData/Local/arm/packs/Keil/ARM_Compiler/1.7.2/Source/retarget_io.c:501:0
	.fnstart
	.cfi_startproc
@ %bb.0:
	.save	{r7, lr}
	push	{r7, lr}
	.cfi_def_cfa_offset 8
	.cfi_offset lr, -4
	.cfi_offset r7, -8
	.pad	#32
	sub	sp, #32
	.cfi_def_cfa_offset 40
	str	r0, [sp, #24]
	str	r1, [sp, #20]
	str	r2, [sp, #16]
	str	r3, [sp, #12]
.Ltmp21:
	.loc	1 510 11 prologue_end           @ C:/Users/aj4775/AppData/Local/arm/packs/Keil/ARM_Compiler/1.7.2/Source/retarget_io.c:510:11
	ldr	r0, [sp, #24]
	str	r0, [sp, #4]                    @ 4-byte Spill
	movw	r1, #32769
	.loc	1 510 3 is_stmt 0               @ C:/Users/aj4775/AppData/Local/arm/packs/Keil/ARM_Compiler/1.7.2/Source/retarget_io.c:510:3
	cmp	r0, r1
	beq	.LBB2_3
	b	.LBB2_1
.LBB2_1:
	.loc	1 0 3                           @ C:/Users/aj4775/AppData/Local/arm/packs/Keil/ARM_Compiler/1.7.2/Source/retarget_io.c:0:3
	ldr	r0, [sp, #4]                    @ 4-byte Reload
	movw	r1, #32770
	.loc	1 510 3                         @ C:/Users/aj4775/AppData/Local/arm/packs/Keil/ARM_Compiler/1.7.2/Source/retarget_io.c:510:3
	cmp	r0, r1
	beq	.LBB2_4
	b	.LBB2_2
.LBB2_2:
	.loc	1 0 3                           @ C:/Users/aj4775/AppData/Local/arm/packs/Keil/ARM_Compiler/1.7.2/Source/retarget_io.c:0:3
	ldr	r0, [sp, #4]                    @ 4-byte Reload
	movw	r1, #32771
	.loc	1 510 3                         @ C:/Users/aj4775/AppData/Local/arm/packs/Keil/ARM_Compiler/1.7.2/Source/retarget_io.c:510:3
	cmp	r0, r1
	beq	.LBB2_9
	b	.LBB2_10
.LBB2_3:
	.loc	1 0 3                           @ C:/Users/aj4775/AppData/Local/arm/packs/Keil/ARM_Compiler/1.7.2/Source/retarget_io.c:0:3
	mov.w	r0, #-1
.Ltmp22:
	.loc	1 512 7 is_stmt 1               @ C:/Users/aj4775/AppData/Local/arm/packs/Keil/ARM_Compiler/1.7.2/Source/retarget_io.c:512:7
	str	r0, [sp, #28]
	b	.LBB2_11
.LBB2_4:
	.loc	1 515 7                         @ C:/Users/aj4775/AppData/Local/arm/packs/Keil/ARM_Compiler/1.7.2/Source/retarget_io.c:515:7
	b	.LBB2_5
.LBB2_5:                                @ =>This Inner Loop Header: Depth=1
.Ltmp23:
	.loc	1 515 14 is_stmt 0              @ C:/Users/aj4775/AppData/Local/arm/packs/Keil/ARM_Compiler/1.7.2/Source/retarget_io.c:515:14
	ldr	r0, [sp, #16]
.Ltmp24:
	.loc	1 515 7                         @ C:/Users/aj4775/AppData/Local/arm/packs/Keil/ARM_Compiler/1.7.2/Source/retarget_io.c:515:7
	cbz	r0, .LBB2_8
	b	.LBB2_6
.LBB2_6:                                @   in Loop: Header=BB2_5 Depth=1
.Ltmp25:
	.loc	1 516 18 is_stmt 1              @ C:/Users/aj4775/AppData/Local/arm/packs/Keil/ARM_Compiler/1.7.2/Source/retarget_io.c:516:18
	ldr	r0, [sp, #20]
	adds	r1, r0, #1
	str	r1, [sp, #20]
	.loc	1 516 14 is_stmt 0              @ C:/Users/aj4775/AppData/Local/arm/packs/Keil/ARM_Compiler/1.7.2/Source/retarget_io.c:516:14
	ldrb	r0, [r0]
	.loc	1 516 12                        @ C:/Users/aj4775/AppData/Local/arm/packs/Keil/ARM_Compiler/1.7.2/Source/retarget_io.c:516:12
	str	r0, [sp, #8]
	.loc	1 520 24 is_stmt 1              @ C:/Users/aj4775/AppData/Local/arm/packs/Keil/ARM_Compiler/1.7.2/Source/retarget_io.c:520:24
	ldr	r0, [sp, #8]
	.loc	1 520 9 is_stmt 0               @ C:/Users/aj4775/AppData/Local/arm/packs/Keil/ARM_Compiler/1.7.2/Source/retarget_io.c:520:9
	bl	stdout_putchar
	.loc	1 521 7 is_stmt 1               @ C:/Users/aj4775/AppData/Local/arm/packs/Keil/ARM_Compiler/1.7.2/Source/retarget_io.c:521:7
	b	.LBB2_7
.Ltmp26:
.LBB2_7:                                @   in Loop: Header=BB2_5 Depth=1
	.loc	1 515 22                        @ C:/Users/aj4775/AppData/Local/arm/packs/Keil/ARM_Compiler/1.7.2/Source/retarget_io.c:515:22
	ldr	r0, [sp, #16]
	subs	r0, #1
	str	r0, [sp, #16]
	.loc	1 515 7 is_stmt 0               @ C:/Users/aj4775/AppData/Local/arm/packs/Keil/ARM_Compiler/1.7.2/Source/retarget_io.c:515:7
	b	.LBB2_5
.Ltmp27:
.LBB2_8:
	.loc	1 0 7                           @ C:/Users/aj4775/AppData/Local/arm/packs/Keil/ARM_Compiler/1.7.2/Source/retarget_io.c:0:7
	movs	r0, #0
	.loc	1 523 7 is_stmt 1               @ C:/Users/aj4775/AppData/Local/arm/packs/Keil/ARM_Compiler/1.7.2/Source/retarget_io.c:523:7
	str	r0, [sp, #28]
	b	.LBB2_11
.LBB2_9:
	.loc	1 0 7 is_stmt 0                 @ C:/Users/aj4775/AppData/Local/arm/packs/Keil/ARM_Compiler/1.7.2/Source/retarget_io.c:0:7
	movs	r0, #0
	.loc	1 534 7 is_stmt 1               @ C:/Users/aj4775/AppData/Local/arm/packs/Keil/ARM_Compiler/1.7.2/Source/retarget_io.c:534:7
	str	r0, [sp, #28]
	b	.LBB2_11
.Ltmp28:
.LBB2_10:
	.loc	1 0 7 is_stmt 0                 @ C:/Users/aj4775/AppData/Local/arm/packs/Keil/ARM_Compiler/1.7.2/Source/retarget_io.c:0:7
	mov.w	r0, #-1
	.loc	1 542 3 is_stmt 1               @ C:/Users/aj4775/AppData/Local/arm/packs/Keil/ARM_Compiler/1.7.2/Source/retarget_io.c:542:3
	str	r0, [sp, #28]
	b	.LBB2_11
.LBB2_11:
	.loc	1 544 1                         @ C:/Users/aj4775/AppData/Local/arm/packs/Keil/ARM_Compiler/1.7.2/Source/retarget_io.c:544:1
	ldr	r0, [sp, #28]
	.loc	1 544 1 epilogue_begin is_stmt 0 @ C:/Users/aj4775/AppData/Local/arm/packs/Keil/ARM_Compiler/1.7.2/Source/retarget_io.c:544:1
	add	sp, #32
	pop	{r7, pc}
.Ltmp29:
.Lfunc_end2:
	.size	_sys_write, .Lfunc_end2-_sys_write
	.cfi_endproc
	.cantunwind
	.fnend
                                        @ -- End function
	.section	.text._sys_read,"ax",%progbits
	.hidden	_sys_read                       @ -- Begin function _sys_read
	.weak	_sys_read
	.p2align	2
	.type	_sys_read,%function
	.code	16                              @ @_sys_read
	.thumb_func
_sys_read:
.Lfunc_begin3:
	.loc	1 577 0 is_stmt 1               @ C:/Users/aj4775/AppData/Local/arm/packs/Keil/ARM_Compiler/1.7.2/Source/retarget_io.c:577:0
	.fnstart
	.cfi_startproc
@ %bb.0:
	.pad	#24
	sub	sp, #24
	.cfi_def_cfa_offset 24
	str	r0, [sp, #16]
	str	r1, [sp, #12]
	str	r2, [sp, #8]
	str	r3, [sp, #4]
.Ltmp30:
	.loc	1 586 11 prologue_end           @ C:/Users/aj4775/AppData/Local/arm/packs/Keil/ARM_Compiler/1.7.2/Source/retarget_io.c:586:11
	ldr	r0, [sp, #16]
	str	r0, [sp]                        @ 4-byte Spill
	movw	r1, #32769
	.loc	1 586 3 is_stmt 0               @ C:/Users/aj4775/AppData/Local/arm/packs/Keil/ARM_Compiler/1.7.2/Source/retarget_io.c:586:3
	cmp	r0, r1
	beq	.LBB3_3
	b	.LBB3_1
.LBB3_1:
	.loc	1 0 3                           @ C:/Users/aj4775/AppData/Local/arm/packs/Keil/ARM_Compiler/1.7.2/Source/retarget_io.c:0:3
	ldr	r0, [sp]                        @ 4-byte Reload
	movw	r1, #32770
	.loc	1 586 3                         @ C:/Users/aj4775/AppData/Local/arm/packs/Keil/ARM_Compiler/1.7.2/Source/retarget_io.c:586:3
	cmp	r0, r1
	beq	.LBB3_4
	b	.LBB3_2
.LBB3_2:
	.loc	1 0 3                           @ C:/Users/aj4775/AppData/Local/arm/packs/Keil/ARM_Compiler/1.7.2/Source/retarget_io.c:0:3
	ldr	r0, [sp]                        @ 4-byte Reload
	movw	r1, #32771
	.loc	1 586 3                         @ C:/Users/aj4775/AppData/Local/arm/packs/Keil/ARM_Compiler/1.7.2/Source/retarget_io.c:586:3
	cmp	r0, r1
	beq	.LBB3_5
	b	.LBB3_6
.LBB3_3:
.Ltmp31:
	.loc	1 600 21 is_stmt 1              @ C:/Users/aj4775/AppData/Local/arm/packs/Keil/ARM_Compiler/1.7.2/Source/retarget_io.c:600:21
	ldr	r0, [sp, #8]
	.loc	1 600 25 is_stmt 0              @ C:/Users/aj4775/AppData/Local/arm/packs/Keil/ARM_Compiler/1.7.2/Source/retarget_io.c:600:25
	orr	r0, r0, #-2147483648
	.loc	1 600 7                         @ C:/Users/aj4775/AppData/Local/arm/packs/Keil/ARM_Compiler/1.7.2/Source/retarget_io.c:600:7
	str	r0, [sp, #20]
	b	.LBB3_7
.LBB3_4:
	.loc	1 0 7                           @ C:/Users/aj4775/AppData/Local/arm/packs/Keil/ARM_Compiler/1.7.2/Source/retarget_io.c:0:7
	mov.w	r0, #-1
	.loc	1 603 7 is_stmt 1               @ C:/Users/aj4775/AppData/Local/arm/packs/Keil/ARM_Compiler/1.7.2/Source/retarget_io.c:603:7
	str	r0, [sp, #20]
	b	.LBB3_7
.LBB3_5:
	.loc	1 0 7 is_stmt 0                 @ C:/Users/aj4775/AppData/Local/arm/packs/Keil/ARM_Compiler/1.7.2/Source/retarget_io.c:0:7
	mov.w	r0, #-1
	.loc	1 605 7 is_stmt 1               @ C:/Users/aj4775/AppData/Local/arm/packs/Keil/ARM_Compiler/1.7.2/Source/retarget_io.c:605:7
	str	r0, [sp, #20]
	b	.LBB3_7
.Ltmp32:
.LBB3_6:
	.loc	1 0 7 is_stmt 0                 @ C:/Users/aj4775/AppData/Local/arm/packs/Keil/ARM_Compiler/1.7.2/Source/retarget_io.c:0:7
	mov.w	r0, #-1
	.loc	1 613 3 is_stmt 1               @ C:/Users/aj4775/AppData/Local/arm/packs/Keil/ARM_Compiler/1.7.2/Source/retarget_io.c:613:3
	str	r0, [sp, #20]
	b	.LBB3_7
.LBB3_7:
	.loc	1 615 1                         @ C:/Users/aj4775/AppData/Local/arm/packs/Keil/ARM_Compiler/1.7.2/Source/retarget_io.c:615:1
	ldr	r0, [sp, #20]
	.loc	1 615 1 epilogue_begin is_stmt 0 @ C:/Users/aj4775/AppData/Local/arm/packs/Keil/ARM_Compiler/1.7.2/Source/retarget_io.c:615:1
	add	sp, #24
	bx	lr
.Ltmp33:
.Lfunc_end3:
	.size	_sys_read, .Lfunc_end3-_sys_read
	.cfi_endproc
	.cantunwind
	.fnend
                                        @ -- End function
	.section	.text._sys_istty,"ax",%progbits
	.hidden	_sys_istty                      @ -- Begin function _sys_istty
	.weak	_sys_istty
	.p2align	2
	.type	_sys_istty,%function
	.code	16                              @ @_sys_istty
	.thumb_func
_sys_istty:
.Lfunc_begin4:
	.loc	1 670 0 is_stmt 1               @ C:/Users/aj4775/AppData/Local/arm/packs/Keil/ARM_Compiler/1.7.2/Source/retarget_io.c:670:0
	.fnstart
	.cfi_startproc
@ %bb.0:
	.pad	#12
	sub	sp, #12
	.cfi_def_cfa_offset 12
	str	r0, [sp, #4]
.Ltmp34:
	.loc	1 672 11 prologue_end           @ C:/Users/aj4775/AppData/Local/arm/packs/Keil/ARM_Compiler/1.7.2/Source/retarget_io.c:672:11
	ldr	r0, [sp, #4]
	str	r0, [sp]                        @ 4-byte Spill
	movw	r1, #32769
	.loc	1 672 3 is_stmt 0               @ C:/Users/aj4775/AppData/Local/arm/packs/Keil/ARM_Compiler/1.7.2/Source/retarget_io.c:672:3
	cmp	r0, r1
	beq	.LBB4_3
	b	.LBB4_1
.LBB4_1:
	.loc	1 0 3                           @ C:/Users/aj4775/AppData/Local/arm/packs/Keil/ARM_Compiler/1.7.2/Source/retarget_io.c:0:3
	ldr	r0, [sp]                        @ 4-byte Reload
	movw	r1, #32770
	.loc	1 672 3                         @ C:/Users/aj4775/AppData/Local/arm/packs/Keil/ARM_Compiler/1.7.2/Source/retarget_io.c:672:3
	cmp	r0, r1
	beq	.LBB4_4
	b	.LBB4_2
.LBB4_2:
	.loc	1 0 3                           @ C:/Users/aj4775/AppData/Local/arm/packs/Keil/ARM_Compiler/1.7.2/Source/retarget_io.c:0:3
	ldr	r0, [sp]                        @ 4-byte Reload
	movw	r1, #32771
	.loc	1 672 3                         @ C:/Users/aj4775/AppData/Local/arm/packs/Keil/ARM_Compiler/1.7.2/Source/retarget_io.c:672:3
	cmp	r0, r1
	beq	.LBB4_5
	b	.LBB4_6
.LBB4_3:
	.loc	1 0 3                           @ C:/Users/aj4775/AppData/Local/arm/packs/Keil/ARM_Compiler/1.7.2/Source/retarget_io.c:0:3
	movs	r0, #1
.Ltmp35:
	.loc	1 674 7 is_stmt 1               @ C:/Users/aj4775/AppData/Local/arm/packs/Keil/ARM_Compiler/1.7.2/Source/retarget_io.c:674:7
	str	r0, [sp, #8]
	b	.LBB4_7
.LBB4_4:
	.loc	1 0 7 is_stmt 0                 @ C:/Users/aj4775/AppData/Local/arm/packs/Keil/ARM_Compiler/1.7.2/Source/retarget_io.c:0:7
	movs	r0, #1
	.loc	1 676 7 is_stmt 1               @ C:/Users/aj4775/AppData/Local/arm/packs/Keil/ARM_Compiler/1.7.2/Source/retarget_io.c:676:7
	str	r0, [sp, #8]
	b	.LBB4_7
.LBB4_5:
	.loc	1 0 7 is_stmt 0                 @ C:/Users/aj4775/AppData/Local/arm/packs/Keil/ARM_Compiler/1.7.2/Source/retarget_io.c:0:7
	movs	r0, #1
	.loc	1 678 7 is_stmt 1               @ C:/Users/aj4775/AppData/Local/arm/packs/Keil/ARM_Compiler/1.7.2/Source/retarget_io.c:678:7
	str	r0, [sp, #8]
	b	.LBB4_7
.Ltmp36:
.LBB4_6:
	.loc	1 0 7 is_stmt 0                 @ C:/Users/aj4775/AppData/Local/arm/packs/Keil/ARM_Compiler/1.7.2/Source/retarget_io.c:0:7
	movs	r0, #0
	.loc	1 681 3 is_stmt 1               @ C:/Users/aj4775/AppData/Local/arm/packs/Keil/ARM_Compiler/1.7.2/Source/retarget_io.c:681:3
	str	r0, [sp, #8]
	b	.LBB4_7
.LBB4_7:
	.loc	1 682 1                         @ C:/Users/aj4775/AppData/Local/arm/packs/Keil/ARM_Compiler/1.7.2/Source/retarget_io.c:682:1
	ldr	r0, [sp, #8]
	.loc	1 682 1 epilogue_begin is_stmt 0 @ C:/Users/aj4775/AppData/Local/arm/packs/Keil/ARM_Compiler/1.7.2/Source/retarget_io.c:682:1
	add	sp, #12
	bx	lr
.Ltmp37:
.Lfunc_end4:
	.size	_sys_istty, .Lfunc_end4-_sys_istty
	.cfi_endproc
	.cantunwind
	.fnend
                                        @ -- End function
	.section	.text._sys_seek,"ax",%progbits
	.hidden	_sys_seek                       @ -- Begin function _sys_seek
	.weak	_sys_seek
	.p2align	2
	.type	_sys_seek,%function
	.code	16                              @ @_sys_seek
	.thumb_func
_sys_seek:
.Lfunc_begin5:
	.loc	1 702 0 is_stmt 1               @ C:/Users/aj4775/AppData/Local/arm/packs/Keil/ARM_Compiler/1.7.2/Source/retarget_io.c:702:0
	.fnstart
	.cfi_startproc
@ %bb.0:
	.pad	#16
	sub	sp, #16
	.cfi_def_cfa_offset 16
	str	r0, [sp, #8]
	str	r1, [sp, #4]
.Ltmp38:
	.loc	1 707 11 prologue_end           @ C:/Users/aj4775/AppData/Local/arm/packs/Keil/ARM_Compiler/1.7.2/Source/retarget_io.c:707:11
	ldr	r0, [sp, #8]
	str	r0, [sp]                        @ 4-byte Spill
	movw	r1, #32769
	.loc	1 707 3 is_stmt 0               @ C:/Users/aj4775/AppData/Local/arm/packs/Keil/ARM_Compiler/1.7.2/Source/retarget_io.c:707:3
	cmp	r0, r1
	beq	.LBB5_3
	b	.LBB5_1
.LBB5_1:
	.loc	1 0 3                           @ C:/Users/aj4775/AppData/Local/arm/packs/Keil/ARM_Compiler/1.7.2/Source/retarget_io.c:0:3
	ldr	r0, [sp]                        @ 4-byte Reload
	movw	r1, #32770
	.loc	1 707 3                         @ C:/Users/aj4775/AppData/Local/arm/packs/Keil/ARM_Compiler/1.7.2/Source/retarget_io.c:707:3
	cmp	r0, r1
	beq	.LBB5_4
	b	.LBB5_2
.LBB5_2:
	.loc	1 0 3                           @ C:/Users/aj4775/AppData/Local/arm/packs/Keil/ARM_Compiler/1.7.2/Source/retarget_io.c:0:3
	ldr	r0, [sp]                        @ 4-byte Reload
	movw	r1, #32771
	.loc	1 707 3                         @ C:/Users/aj4775/AppData/Local/arm/packs/Keil/ARM_Compiler/1.7.2/Source/retarget_io.c:707:3
	cmp	r0, r1
	beq	.LBB5_5
	b	.LBB5_6
.LBB5_3:
	.loc	1 0 3                           @ C:/Users/aj4775/AppData/Local/arm/packs/Keil/ARM_Compiler/1.7.2/Source/retarget_io.c:0:3
	mov.w	r0, #-1
.Ltmp39:
	.loc	1 709 7 is_stmt 1               @ C:/Users/aj4775/AppData/Local/arm/packs/Keil/ARM_Compiler/1.7.2/Source/retarget_io.c:709:7
	str	r0, [sp, #12]
	b	.LBB5_7
.LBB5_4:
	.loc	1 0 7 is_stmt 0                 @ C:/Users/aj4775/AppData/Local/arm/packs/Keil/ARM_Compiler/1.7.2/Source/retarget_io.c:0:7
	mov.w	r0, #-1
	.loc	1 711 7 is_stmt 1               @ C:/Users/aj4775/AppData/Local/arm/packs/Keil/ARM_Compiler/1.7.2/Source/retarget_io.c:711:7
	str	r0, [sp, #12]
	b	.LBB5_7
.LBB5_5:
	.loc	1 0 7 is_stmt 0                 @ C:/Users/aj4775/AppData/Local/arm/packs/Keil/ARM_Compiler/1.7.2/Source/retarget_io.c:0:7
	mov.w	r0, #-1
	.loc	1 713 7 is_stmt 1               @ C:/Users/aj4775/AppData/Local/arm/packs/Keil/ARM_Compiler/1.7.2/Source/retarget_io.c:713:7
	str	r0, [sp, #12]
	b	.LBB5_7
.Ltmp40:
.LBB5_6:
	.loc	1 0 7 is_stmt 0                 @ C:/Users/aj4775/AppData/Local/arm/packs/Keil/ARM_Compiler/1.7.2/Source/retarget_io.c:0:7
	mov.w	r0, #-1
	.loc	1 721 3 is_stmt 1               @ C:/Users/aj4775/AppData/Local/arm/packs/Keil/ARM_Compiler/1.7.2/Source/retarget_io.c:721:3
	str	r0, [sp, #12]
	b	.LBB5_7
.LBB5_7:
	.loc	1 723 1                         @ C:/Users/aj4775/AppData/Local/arm/packs/Keil/ARM_Compiler/1.7.2/Source/retarget_io.c:723:1
	ldr	r0, [sp, #12]
	.loc	1 723 1 epilogue_begin is_stmt 0 @ C:/Users/aj4775/AppData/Local/arm/packs/Keil/ARM_Compiler/1.7.2/Source/retarget_io.c:723:1
	add	sp, #16
	bx	lr
.Ltmp41:
.Lfunc_end5:
	.size	_sys_seek, .Lfunc_end5-_sys_seek
	.cfi_endproc
	.cantunwind
	.fnend
                                        @ -- End function
	.section	.text._sys_flen,"ax",%progbits
	.hidden	_sys_flen                       @ -- Begin function _sys_flen
	.weak	_sys_flen
	.p2align	2
	.type	_sys_flen,%function
	.code	16                              @ @_sys_flen
	.thumb_func
_sys_flen:
.Lfunc_begin6:
	.loc	1 744 0 is_stmt 1               @ C:/Users/aj4775/AppData/Local/arm/packs/Keil/ARM_Compiler/1.7.2/Source/retarget_io.c:744:0
	.fnstart
	.cfi_startproc
@ %bb.0:
	.pad	#12
	sub	sp, #12
	.cfi_def_cfa_offset 12
	str	r0, [sp, #4]
.Ltmp42:
	.loc	1 746 11 prologue_end           @ C:/Users/aj4775/AppData/Local/arm/packs/Keil/ARM_Compiler/1.7.2/Source/retarget_io.c:746:11
	ldr	r0, [sp, #4]
	str	r0, [sp]                        @ 4-byte Spill
	movw	r1, #32769
	.loc	1 746 3 is_stmt 0               @ C:/Users/aj4775/AppData/Local/arm/packs/Keil/ARM_Compiler/1.7.2/Source/retarget_io.c:746:3
	cmp	r0, r1
	beq	.LBB6_3
	b	.LBB6_1
.LBB6_1:
	.loc	1 0 3                           @ C:/Users/aj4775/AppData/Local/arm/packs/Keil/ARM_Compiler/1.7.2/Source/retarget_io.c:0:3
	ldr	r0, [sp]                        @ 4-byte Reload
	movw	r1, #32770
	.loc	1 746 3                         @ C:/Users/aj4775/AppData/Local/arm/packs/Keil/ARM_Compiler/1.7.2/Source/retarget_io.c:746:3
	cmp	r0, r1
	beq	.LBB6_4
	b	.LBB6_2
.LBB6_2:
	.loc	1 0 3                           @ C:/Users/aj4775/AppData/Local/arm/packs/Keil/ARM_Compiler/1.7.2/Source/retarget_io.c:0:3
	ldr	r0, [sp]                        @ 4-byte Reload
	movw	r1, #32771
	.loc	1 746 3                         @ C:/Users/aj4775/AppData/Local/arm/packs/Keil/ARM_Compiler/1.7.2/Source/retarget_io.c:746:3
	cmp	r0, r1
	beq	.LBB6_5
	b	.LBB6_6
.LBB6_3:
	.loc	1 0 3                           @ C:/Users/aj4775/AppData/Local/arm/packs/Keil/ARM_Compiler/1.7.2/Source/retarget_io.c:0:3
	movs	r0, #0
.Ltmp43:
	.loc	1 748 7 is_stmt 1               @ C:/Users/aj4775/AppData/Local/arm/packs/Keil/ARM_Compiler/1.7.2/Source/retarget_io.c:748:7
	str	r0, [sp, #8]
	b	.LBB6_7
.LBB6_4:
	.loc	1 0 7 is_stmt 0                 @ C:/Users/aj4775/AppData/Local/arm/packs/Keil/ARM_Compiler/1.7.2/Source/retarget_io.c:0:7
	movs	r0, #0
	.loc	1 750 7 is_stmt 1               @ C:/Users/aj4775/AppData/Local/arm/packs/Keil/ARM_Compiler/1.7.2/Source/retarget_io.c:750:7
	str	r0, [sp, #8]
	b	.LBB6_7
.LBB6_5:
	.loc	1 0 7 is_stmt 0                 @ C:/Users/aj4775/AppData/Local/arm/packs/Keil/ARM_Compiler/1.7.2/Source/retarget_io.c:0:7
	movs	r0, #0
	.loc	1 752 7 is_stmt 1               @ C:/Users/aj4775/AppData/Local/arm/packs/Keil/ARM_Compiler/1.7.2/Source/retarget_io.c:752:7
	str	r0, [sp, #8]
	b	.LBB6_7
.Ltmp44:
.LBB6_6:
	.loc	1 0 7 is_stmt 0                 @ C:/Users/aj4775/AppData/Local/arm/packs/Keil/ARM_Compiler/1.7.2/Source/retarget_io.c:0:7
	movs	r0, #0
	.loc	1 760 3 is_stmt 1               @ C:/Users/aj4775/AppData/Local/arm/packs/Keil/ARM_Compiler/1.7.2/Source/retarget_io.c:760:3
	str	r0, [sp, #8]
	b	.LBB6_7
.LBB6_7:
	.loc	1 762 1                         @ C:/Users/aj4775/AppData/Local/arm/packs/Keil/ARM_Compiler/1.7.2/Source/retarget_io.c:762:1
	ldr	r0, [sp, #8]
	.loc	1 762 1 epilogue_begin is_stmt 0 @ C:/Users/aj4775/AppData/Local/arm/packs/Keil/ARM_Compiler/1.7.2/Source/retarget_io.c:762:1
	add	sp, #12
	bx	lr
.Ltmp45:
.Lfunc_end6:
	.size	_sys_flen, .Lfunc_end6-_sys_flen
	.cfi_endproc
	.cantunwind
	.fnend
                                        @ -- End function
	.hidden	__stdin_name                    @ @__stdin_name
	.type	__stdin_name,%object
	.section	.rodata.__stdin_name,"a",%progbits
	.globl	__stdin_name
__stdin_name:
	.asciz	":STDIN"
	.size	__stdin_name, 7

	.hidden	__stdout_name                   @ @__stdout_name
	.type	__stdout_name,%object
	.section	.rodata.__stdout_name,"a",%progbits
	.globl	__stdout_name
__stdout_name:
	.asciz	":STDOUT"
	.size	__stdout_name, 8

	.hidden	__stderr_name                   @ @__stderr_name
	.type	__stderr_name,%object
	.section	.rodata.__stderr_name,"a",%progbits
	.globl	__stderr_name
__stderr_name:
	.asciz	":STDERR"
	.size	__stderr_name, 8

	.type	.L.str,%object                  @ @.str
	.section	.rodata.str1.1,"aMS",%progbits,1
.L.str:
	.asciz	":STDIN"
	.size	.L.str, 7

	.type	.L.str.1,%object                @ @.str.1
.L.str.1:
	.asciz	":STDOUT"
	.size	.L.str.1, 8

	.type	.L.str.2,%object                @ @.str.2
.L.str.2:
	.asciz	":STDERR"
	.size	.L.str.2, 8

	.file	2 "C:\\Users\\aj4775\\AppData\\Local\\Keil_v5\\ARM\\ARMCLANG\\bin\\..\\include" "rt_sys.h"
	.file	3 "C:\\Users\\aj4775\\AppData\\Local\\Keil_v5\\ARM\\ARMCLANG\\bin\\..\\include" "stdint.h"
	.section	".note.GNU-stack","",%progbits
	.eabi_attribute	30, 6	@ Tag_ABI_optimization_goals
	.ARM_attribute	16, 1	@ Tag_AV_eba