	.text
	.syntax unified
	.eabi_attribute	67, "2.09"	@ Tag_conformance
	.cpu	cortex-m33
	.eabi_attribute	6, 17	@ Tag_CPU_arch
	.eabi_attribute	7, 77	@ Tag_CPU_arch_profile
	.eabi_attribute	8, 0	@ Tag_ARM_ISA_use
	.eabi_attribute	9, 3	@ Tag_THUMB_ISA_use
	.fpu	fpv5-sp-d16
	.eabi_attribute	27, 1	@ Tag_ABI_HardFP_use
	.eabi_attribute	36, 1	@ Tag_FP_HP_extension
	.eabi_attribute	46, 1	@ Tag_DSP_extension
	.eabi_attribute	34, 1	@ Tag_CPU_unaligned_access
	.eabi_attribute	17, 1	@ Tag_ABI_PCS_GOT_use
	.eabi_attribute	20, 2	@ Tag_ABI_FP_denormal
	.eabi_attribute	21, 0	@ Tag_ABI_FP_exceptions
	.eabi_attribute	23, 1	@ Tag_ABI_FP_number_model
	.eabi_attribute	24, 1	@ Tag_ABI_align_needed
	.eabi_attribute	25, 1	@ Tag_ABI_align_preserved
	.eabi_attribute	28, 1	@ Tag_ABI_VFP_args
	.eabi_attribute	38, 1	@ Tag_ABI_FP_16bit_format
	.eabi_attribute	18, 2	@ Tag_ABI_PCS_wchar_t
	.eabi_attribute	26, 1	@ Tag_ABI_enum_size
	.eabi_attribute	14, 0	@ Tag_ABI_PCS_R9_use
	.file	"Secure_Functions.c"
	.file	1 "P:\\Workspace\\Git\\MTB_CFA\\IOTKit_CM33_S_NS\\IOTKit_CM33_s" ".\\Secure_Functions.h"
	.file	2 "P:\\Workspace\\Git\\MTB_CFA\\IOTKit_CM33_S_NS\\IOTKit_CM33_s" "Secure_Functions.c"
	.file	3 "C:\\Users\\aj4775\\AppData\\Local\\Keil_v5\\ARM\\ARMCLANG\\bin\\..\\include" "stdint.h"
	.section	.text.SECURE_NOPE,"ax",%progbits
	.hidden	SECURE_NOPE                     @ -- Begin function SECURE_NOPE
	.globl	SECURE_NOPE
	.p2align	2
	.type	SECURE_NOPE,%function
	.code	16                              @ @SECURE_NOPE
	.thumb_func
	.globl	__acle_se_SECURE_NOPE
	.type	__acle_se_SECURE_NOPE,%function
__acle_se_SECURE_NOPE:
SECURE_NOPE:
.Lfunc_begin0:
	.fnstart
	.cfi_sections .debug_frame
	.cfi_startproc
@ %bb.0:
	.loc	2 24 5 prologue_end             @ Secure_Functions.c:24:5
	mrs	r12, control
	tst.w	r12, #8
	beq	.LBB0_2
@ %bb.1:
	vmov	d0, lr, lr
	vmov	d1, lr, lr
	vmov	d2, lr, lr
	vmov	d3, lr, lr
	vmov	d4, lr, lr
	vmov	d5, lr, lr
	vmov	d6, lr, lr
	vmov	d7, lr, lr
	vmrs	r12, fpscr
	bic	r12, r12, #159
	bic	r12, r12, #4026531840
	vmsr	fpscr, r12
.LBB0_2:
	mov	r0, lr
	mov	r1, lr
	mov	r2, lr
	mov	r3, lr
	mov	r12, lr
	msr	apsr_nzcvqg, lr
	bxns	lr
.Ltmp0:
.Lfunc_end0:
	.size	SECURE_NOPE, .Lfunc_end0-SECURE_NOPE
	.cfi_endproc
	.cantunwind
	.fnend
                                        @ -- End function
	.section	.text.SECURE_register_callback,"ax",%progbits
	.hidden	SECURE_register_callback        @ -- Begin function SECURE_register_callback
	.globl	SECURE_register_callback
	.p2align	2
	.type	SECURE_register_callback,%function
	.code	16                              @ @SECURE_register_callback
	.thumb_func
	.globl	__acle_se_SECURE_register_callback
	.type	__acle_se_SECURE_register_callback,%function
__acle_se_SECURE_register_callback:
SECURE_register_callback:
.Lfunc_begin1:
	.loc	2 29 0                          @ Secure_Functions.c:29:0
	.fnstart
	.cfi_startproc
@ %bb.0:
	.save	{r7, lr}
	push	{r7, lr}
	.cfi_def_cfa_offset 8
	.cfi_offset lr, -4
	.cfi_offset r7, -8
	.pad	#8
	sub	sp, #8
	.cfi_def_cfa_offset 16
	str	r0, [sp, #4]
.Ltmp1:
	.loc	2 30 5 prologue_end             @ Secure_Functions.c:30:5
	movw	r0, :lower16:.L.str
	movt	r0, :upper16:.L.str
	bl	printf
	.loc	2 37 34                         @ Secure_Functions.c:37:34
	ldr	r0, [sp, #4]
	.loc	2 37 13 is_stmt 0               @ Secure_Functions.c:37:13
	movw	r1, :lower16:fNSFunc
	movt	r1, :upper16:fNSFunc
	str	r0, [r1]
	.loc	2 38 5 is_stmt 1                @ Secure_Functions.c:38:5
	movw	r0, :lower16:.L.str.1
	movt	r0, :upper16:.L.str.1
	bl	printf
	.loc	2 39 5 epilogue_begin           @ Secure_Functions.c:39:5
	add	sp, #8
	pop.w	{r7, lr}
	mrs	r12, control
	tst.w	r12, #8
	beq	.LBB1_2
@ %bb.1:
	vmov	d0, lr, lr
	vmov	d1, lr, lr
	vmov	d2, lr, lr
	vmov	d3, lr, lr
	vmov	d4, lr, lr
	vmov	d5, lr, lr
	vmov	d6, lr, lr
	vmov	d7, lr, lr
	vmrs	r12, fpscr
	bic	r12, r12, #159
	bic	r12, r12, #4026531840
	vmsr	fpscr, r12
.LBB1_2:
	mov	r0, lr
	mov	r1, lr
	mov	r2, lr
	mov	r3, lr
	mov	r12, lr
	msr	apsr_nzcvqg, lr
	bxns	lr
.Ltmp2:
.Lfunc_end1:
	.size	SECURE_register_callback, .Lfunc_end1-SECURE_register_callback
	.cfi_endproc
	.cantunwind
	.fnend
                                        @ -- End function
	.section	.text._set_stat,"ax",%progbits
	.hidden	_set_stat                       @ -- Begin function _set_stat
	.globl	_set_stat
	.p2align	2
	.type	_set_stat,%function
	.code	16                              @ @_set_stat
	.thumb_func
_set_stat:
.Lfunc_begin2:
	.loc	2 45 0                          @ Secure_Functions.c:45:0
	.fnstart
	.cfi_startproc
@ %bb.0:
	.pad	#4
	sub	sp, #4
	.cfi_def_cfa_offset 4
.Ltmp3:
	.file	4 "C:/Users/aj4775/AppData/Local/arm/packs/ARM/CMSIS/6.1.0/CMSIS/Core/Include" "cmsis_armclang.h"
	.loc	4 636 3 prologue_end            @ C:/Users/aj4775/AppData/Local/arm/packs/ARM/CMSIS/6.1.0/CMSIS/Core/Include\cmsis_armclang.h:636:3
	@APP
	cpsid i
	@NO_APP
.Ltmp4:
	.loc	2 48 9                          @ Secure_Functions.c:48:9
	movw	r0, :lower16:CFA_stat
	movt	r0, :upper16:CFA_stat
	ldr	r0, [r0]
.Ltmp5:
	.loc	2 48 9 is_stmt 0                @ Secure_Functions.c:48:9
	cmp	r0, #1
	bne	.LBB2_2
	b	.LBB2_1
.LBB2_1:
.Ltmp6:
	.loc	4 623 3 is_stmt 1               @ C:/Users/aj4775/AppData/Local/arm/packs/ARM/CMSIS/6.1.0/CMSIS/Core/Include\cmsis_armclang.h:623:3
	@APP
	cpsie i
	@NO_APP
	movs	r0, #1
.Ltmp7:
	.loc	2 51 9                          @ Secure_Functions.c:51:9
	strb.w	r0, [sp, #3]
	b	.LBB2_3
.Ltmp8:
.LBB2_2:
	.loc	2 54 14                         @ Secure_Functions.c:54:14
	movw	r1, :lower16:CFA_stat
	movt	r1, :upper16:CFA_stat
	movs	r0, #1
	str	r0, [r1]
.Ltmp9:
	.loc	4 623 3                         @ C:/Users/aj4775/AppData/Local/arm/packs/ARM/CMSIS/6.1.0/CMSIS/Core/Include\cmsis_armclang.h:623:3
	@APP
	cpsie i
	@NO_APP
	movs	r0, #0
.Ltmp10:
	.loc	2 57 5                          @ Secure_Functions.c:57:5
	strb.w	r0, [sp, #3]
	b	.LBB2_3
.LBB2_3:
	.loc	2 58 1                          @ Secure_Functions.c:58:1
	ldrb.w	r0, [sp, #3]
	.loc	2 58 1 epilogue_begin is_stmt 0 @ Secure_Functions.c:58:1
	add	sp, #4
	bx	lr
.Ltmp11:
.Lfunc_end2:
	.size	_set_stat, .Lfunc_end2-_set_stat
	.cfi_endproc
	.cantunwind
	.fnend
                                        @ -- End function
	.section	.text._clear_stat,"ax",%progbits
	.hidden	_clear_stat                     @ -- Begin function _clear_stat
	.globl	_clear_stat
	.p2align	2
	.type	_clear_stat,%function
	.code	16                              @ @_clear_stat
	.thumb_func
_clear_stat:
.Lfunc_begin3:
	.fnstart
	.cfi_startproc
@ %bb.0:
	.loc	4 636 3 prologue_end is_stmt 1  @ C:/Users/aj4775/AppData/Local/arm/packs/ARM/CMSIS/6.1.0/CMSIS/Core/Include\cmsis_armclang.h:636:3
	@APP
	cpsid i
	@NO_APP
.Ltmp12:
	.loc	2 64 14                         @ Secure_Functions.c:64:14
	movw	r1, :lower16:CFA_stat
	movt	r1, :upper16:CFA_stat
	movs	r0, #0
	str	r0, [r1]
.Ltmp13:
	.loc	4 623 3                         @ C:/Users/aj4775/AppData/Local/arm/packs/ARM/CMSIS/6.1.0/CMSIS/Core/Include\cmsis_armclang.h:623:3
	@APP
	cpsie i
	@NO_APP
.Ltmp14:
	.loc	2 67 1                          @ Secure_Functions.c:67:1
	bx	lr
.Ltmp15:
.Lfunc_end3:
	.size	_clear_stat, .Lfunc_end3-_clear_stat
	.cfi_endproc
	.cantunwind
	.fnend
                                        @ -- End function
	.section	.text.SECURE_start_cfa,"ax",%progbits
	.hidden	SECURE_start_cfa                @ -- Begin function SECURE_start_cfa
	.globl	SECURE_start_cfa
	.p2align	2
	.type	SECURE_start_cfa,%function
	.code	16                              @ @SECURE_start_cfa
	.thumb_func
	.globl	__acle_se_SECURE_start_cfa
	.type	__acle_se_SECURE_start_cfa,%function
__acle_se_SECURE_start_cfa:
SECURE_start_cfa:
.Lfunc_begin4:
	.loc	2 69 0                          @ Secure_Functions.c:69:0
	.fnstart
	.cfi_startproc
@ %bb.0:
	.save	{r7, lr}
	push	{r7, lr}
	.cfi_def_cfa_offset 8
	.cfi_offset lr, -4
	.cfi_offset r7, -8
	.pad	#8
	sub	sp, #8
	.cfi_def_cfa_offset 16
	str	r0, [sp, #4]
.Ltmp16:
	.loc	2 70 5 prologue_end             @ Secure_Functions.c:70:5
	movw	r0, :lower16:.L.str.2
	movt	r0, :upper16:.L.str.2
	bl	printf
.Ltmp17:
	.loc	4 636 3                         @ C:/Users/aj4775/AppData/Local/arm/packs/ARM/CMSIS/6.1.0/CMSIS/Core/Include\cmsis_armclang.h:636:3
	@APP
	cpsid i
	@NO_APP
.Ltmp18:
	.loc	2 74 9                          @ Secure_Functions.c:74:9
	movw	r0, :lower16:fNSFunc
	movt	r0, :upper16:fNSFunc
	ldr	r0, [r0]
.Ltmp19:
	.loc	2 74 9 is_stmt 0                @ Secure_Functions.c:74:9
	cbnz	r0, .LBB4_2
	b	.LBB4_1
.LBB4_1:
.Ltmp20:
	.loc	2 76 9 is_stmt 1                @ Secure_Functions.c:76:9
	movw	r0, :lower16:.L.str.3
	movt	r0, :upper16:.L.str.3
	bl	printf
	.loc	2 77 9                          @ Secure_Functions.c:77:9
	ldr	r1, [sp, #4]
	movs	r0, #100
	.loc	2 77 24 is_stmt 0               @ Secure_Functions.c:77:24
	strb	r0, [r1]
.Ltmp21:
	.loc	4 623 3 is_stmt 1               @ C:/Users/aj4775/AppData/Local/arm/packs/ARM/CMSIS/6.1.0/CMSIS/Core/Include\cmsis_armclang.h:623:3
	@APP
	cpsie i
	@NO_APP
.Ltmp22:
	.loc	2 79 9                          @ Secure_Functions.c:79:9
	b	.LBB4_5
.Ltmp23:
.LBB4_2:
	.loc	4 623 3                         @ C:/Users/aj4775/AppData/Local/arm/packs/ARM/CMSIS/6.1.0/CMSIS/Core/Include\cmsis_armclang.h:623:3
	@APP
	cpsie i
	@NO_APP
.Ltmp24:
	.loc	2 84 8                          @ Secure_Functions.c:84:8
	bl	_set_stat
.Ltmp25:
	.loc	2 84 8 is_stmt 0                @ Secure_Functions.c:84:8
	cbz	r0, .LBB4_4
	b	.LBB4_3
.LBB4_3:
.Ltmp26:
	.loc	2 84 20                         @ Secure_Functions.c:84:20
	b	.LBB4_5
.Ltmp27:
.LBB4_4:
	.loc	2 86 5 is_stmt 1                @ Secure_Functions.c:86:5
	movw	r0, :lower16:.L.str.4
	movt	r0, :upper16:.L.str.4
	bl	printf
	.loc	2 88 19                         @ Secure_Functions.c:88:19
	ldr	r0, [sp, #4]
	.loc	2 88 5 is_stmt 0                @ Secure_Functions.c:88:5
	bl	eCFA_init_cfa
	.loc	2 90 5 is_stmt 1                @ Secure_Functions.c:90:5
	bl	_clear_stat
	.loc	2 92 5                          @ Secure_Functions.c:92:5
	b	.LBB4_5
.LBB4_5:
	.loc	2 93 1 epilogue_begin           @ Secure_Functions.c:93:1
	add	sp, #8
	pop.w	{r7, lr}
	mrs	r12, control
	tst.w	r12, #8
	beq	.LBB4_7
@ %bb.6:
	vmov	d0, lr, lr
	vmov	d1, lr, lr
	vmov	d2, lr, lr
	vmov	d3, lr, lr
	vmov	d4, lr, lr
	vmov	d5, lr, lr
	vmov	d6, lr, lr
	vmov	d7, lr, lr
	vmrs	r12, fpscr
	bic	r12, r12, #159
	bic	r12, r12, #4026531840
	vmsr	fpscr, r12
.LBB4_7:
	mov	r0, lr
	mov	r1, lr
	mov	r2, lr
	mov	r3, lr
	mov	r12, lr
	msr	apsr_nzcvqg, lr
	bxns	lr
.Ltmp28:
.Lfunc_end4:
	.size	SECURE_start_cfa, .Lfunc_end4-SECURE_start_cfa
	.cfi_endproc
	.cantunwind
	.fnend
                                        @ -- End function
	.section	.text.Secure_LED_On,"ax",%progbits
	.hidden	Secure_LED_On                   @ -- Begin function Secure_LED_On
	.globl	Secure_LED_On
	.p2align	2
	.type	Secure_LED_On,%function
	.code	16                              @ @Secure_LED_On
	.thumb_func
	.globl	__acle_se_Secure_LED_On
	.type	__acle_se_Secure_LED_On,%function
__acle_se_Secure_LED_On:
Secure_LED_On:
.Lfunc_begin5:
	.loc	2 115 0                         @ Secure_Functions.c:115:0
	.fnstart
	.cfi_startproc
@ %bb.0:
	.save	{r7, lr}
	push	{r7, lr}
	.cfi_def_cfa_offset 8
	.cfi_offset lr, -4
	.cfi_offset r7, -8
	.pad	#8
	sub	sp, #8
	.cfi_def_cfa_offset 16
	str	r0, [sp, #4]
.Ltmp29:
	.loc	2 115 53 prologue_end           @ Secure_Functions.c:115:53
	ldr	r0, [sp, #4]
	.loc	2 115 46 is_stmt 0              @ Secure_Functions.c:115:46
	bl	LED_On
	.loc	2 115 39 epilogue_begin         @ Secure_Functions.c:115:39
	add	sp, #8
	pop.w	{r7, lr}
	mrs	r12, control
	tst.w	r12, #8
	beq	.LBB5_2
@ %bb.1:
	vmov	d0, lr, lr
	vmov	d1, lr, lr
	vmov	d2, lr, lr
	vmov	d3, lr, lr
	vmov	d4, lr, lr
	vmov	d5, lr, lr
	vmov	d6, lr, lr
	vmov	d7, lr, lr
	vmrs	r12, fpscr
	bic	r12, r12, #159
	bic	r12, r12, #4026531840
	vmsr	fpscr, r12
.LBB5_2:
	mov	r1, lr
	mov	r2, lr
	mov	r3, lr
	mov	r12, lr
	msr	apsr_nzcvqg, lr
	bxns	lr
.Ltmp30:
.Lfunc_end5:
	.size	Secure_LED_On, .Lfunc_end5-Secure_LED_On
	.cfi_endproc
	.cantunwind
	.fnend
                                        @ -- End function
	.section	.text.Secure_LED_Off,"ax",%progbits
	.hidden	Secure_LED_Off                  @ -- Begin function Secure_LED_Off
	.globl	Secure_LED_Off
	.p2align	2
	.type	Secure_LED_Off,%function
	.code	16                              @ @Secure_LED_Off
	.thumb_func
	.globl	__acle_se_Secure_LED_Off
	.type	__acle_se_Secure_LED_Off,%function
__acle_se_Secure_LED_Off:
Secure_LED_Off:
.Lfunc_begin6:
	.loc	2 118 0 is_stmt 1               @ Secure_Functions.c:118:0
	.fnstart
	.cfi_startproc
@ %bb.0:
	.save	{r7, lr}
	push	{r7, lr}
	.cfi_def_cfa_offset 8
	.cfi_offset lr, -4
	.cfi_offset r7, -8
	.pad	#8
	sub	sp, #8
	.cfi_def_cfa_offset 16
	str	r0, [sp, #4]
.Ltmp31:
	.loc	2 118 55 prologue_end           @ Secure_Functions.c:118:55
	ldr	r0, [sp, #4]
	.loc	2 118 47 is_stmt 0              @ Secure_Functions.c:118:47
	bl	LED_Off
	.loc	2 118 40 epilogue_begin         @ Secure_Functions.c:118:40
	add	sp, #8
	pop.w	{r7, lr}
	mrs	r12, control
	tst.w	r12, #8
	beq	.LBB6_2
@ %bb.1:
	vmov	d0, lr, lr
	vmov	d1, lr, lr
	vmov	d2, lr, lr
	vmov	d3, lr, lr
	vmov	d4, lr, lr
	vmov	d5, lr, lr
	vmov	d6, lr, lr
	vmov	d7, lr, lr
	vmrs	r12, fpscr
	bic	r12, r12, #159
	bic	r12, r12, #4026531840
	vmsr	fpscr, r12
.LBB6_2:
	mov	r1, lr
	mov	r2, lr
	mov	r3, lr
	mov	r12, lr
	msr	apsr_nzcvqg, lr
	bxns	lr
.Ltmp32:
.Lfunc_end6:
	.size	Secure_LED_Off, .Lfunc_end6-Secure_LED_Off
	.cfi_endproc
	.cantunwind
	.fnend
                                        @ -- End function
	.section	.text.Secure_printf,"ax",%progbits
	.hidden	Secure_printf                   @ -- Begin function Secure_printf
	.globl	Secure_printf
	.p2align	2
	.type	Secure_printf,%function
	.code	16                              @ @Secure_printf
	.thumb_func
	.globl	__acle_se_Secure_printf
	.type	__acle_se_Secure_printf,%function
__acle_se_Secure_printf:
Secure_printf:
.Lfunc_begin7:
	.loc	2 121 0 is_stmt 1               @ Secure_Functions.c:121:0
	.fnstart
	.cfi_startproc
@ %bb.0:
	.save	{r7, lr}
	push	{r7, lr}
	.cfi_def_cfa_offset 8
	.cfi_offset lr, -4
	.cfi_offset r7, -8
	.pad	#8
	sub	sp, #8
	.cfi_def_cfa_offset 16
	str	r0, [sp, #4]
.Ltmp33:
	.loc	2 121 50 prologue_end           @ Secure_Functions.c:121:50
	ldr	r1, [sp, #4]
	.loc	2 121 37 is_stmt 0              @ Secure_Functions.c:121:37
	movw	r0, :lower16:.L.str.5
	movt	r0, :upper16:.L.str.5
	bl	printf
	.loc	2 121 60 epilogue_begin         @ Secure_Functions.c:121:60
	add	sp, #8
	pop.w	{r7, lr}
	mrs	r12, control
	tst.w	r12, #8
	beq	.LBB7_2
@ %bb.1:
	vmov	d0, lr, lr
	vmov	d1, lr, lr
	vmov	d2, lr, lr
	vmov	d3, lr, lr
	vmov	d4, lr, lr
	vmov	d5, lr, lr
	vmov	d6, lr, lr
	vmov	d7, lr, lr
	vmrs	r12, fpscr
	bic	r12, r12, #159
	bic	r12, r12, #4026531840
	vmsr	fpscr, r12
.LBB7_2:
	mov	r0, lr
	mov	r1, lr
	mov	r2, lr
	mov	r3, lr
	mov	r12, lr
	msr	apsr_nzcvqg, lr
	bxns	lr
.Ltmp34:
.Lfunc_end7:
	.size	Secure_printf, .Lfunc_end7-Secure_printf
	.cfi_endproc
	.cantunwind
	.fnend
                                        @ -- End function
	.section	.text.Secure_LED_On_callback,"ax",%progbits
	.hidden	Secure_LED_On_callback          @ -- Begin function Secure_LED_On_callback
	.globl	Secure_LED_On_callback
	.p2align	2
	.type	Secure_LED_On_callback,%function
	.code	16                              @ @Secure_LED_On_callback
	.thumb_func
	.globl	__acle_se_Secure_LED_On_callback
	.type	__acle_se_Secure_LED_On_callback,%function
__acle_se_Secure_LED_On_callback:
Secure_LED_On_callback:
.Lfunc_begin8:
	.loc	2 129 0 is_stmt 1               @ Secure_Functions.c:129:0
	.fnstart
	.cfi_startproc
@ %bb.0:
	.pad	#4
	sub	sp, #4
	.cfi_def_cfa_offset 4
	str	r0, [sp]
.Ltmp35:
	.loc	2 130 26 prologue_end           @ Secure_Functions.c:130:26
	ldr	r0, [sp]
	.loc	2 130 24 is_stmt 0              @ Secure_Functions.c:130:24
	movw	r1, :lower16:pfNonSecure_LED_On
	movt	r1, :upper16:pfNonSecure_LED_On
	str	r0, [r1]
	movs	r0, #0
	.loc	2 131 5 epilogue_begin is_stmt 1 @ Secure_Functions.c:131:5
	add	sp, #4
	mrs	r12, control
	tst.w	r12, #8
	beq	.LBB8_2
@ %bb.1:
	vmov	d0, lr, lr
	vmov	d1, lr, lr
	vmov	d2, lr, lr
	vmov	d3, lr, lr
	vmov	d4, lr, lr
	vmov	d5, lr, lr
	vmov	d6, lr, lr
	vmov	d7, lr, lr
	vmrs	r12, fpscr
	bic	r12, r12, #159
	bic	r12, r12, #4026531840
	vmsr	fpscr, r12
.LBB8_2:
	mov	r1, lr
	mov	r2, lr
	mov	r3, lr
	mov	r12, lr
	msr	apsr_nzcvqg, lr
	bxns	lr
.Ltmp36:
.Lfunc_end8:
	.size	Secure_LED_On_callback, .Lfunc_end8-Secure_LED_On_callback
	.cfi_endproc
	.cantunwind
	.fnend
                                        @ -- End function
	.section	.text.Secure_LED_Off_callback,"ax",%progbits
	.hidden	Secure_LED_Off_callback         @ -- Begin function Secure_LED_Off_callback
	.globl	Secure_LED_Off_callback
	.p2align	2
	.type	Secure_LED_Off_callback,%function
	.code	16                              @ @Secure_LED_Off_callback
	.thumb_func
	.globl	__acle_se_Secure_LED_Off_callback
	.type	__acle_se_Secure_LED_Off_callback,%function
__acle_se_Secure_LED_Off_callback:
Secure_LED_Off_callback:
.Lfunc_begin9:
	.loc	2 137 0                         @ Secure_Functions.c:137:0
	.fnstart
	.cfi_startproc
@ %bb.0:
	.pad	#4
	sub	sp, #4
	.cfi_def_cfa_offset 4
	str	r0, [sp]
.Ltmp37:
	.loc	2 138 27 prologue_end           @ Secure_Functions.c:138:27
	ldr	r0, [sp]
	.loc	2 138 25 is_stmt 0              @ Secure_Functions.c:138:25
	movw	r1, :lower16:pfNonSecure_LED_Off
	movt	r1, :upper16:pfNonSecure_LED_Off
	str	r0, [r1]
	movs	r0, #0
	.loc	2 139 5 epilogue_begin is_stmt 1 @ Secure_Functions.c:139:5
	add	sp, #4
	mrs	r12, control
	tst.w	r12, #8
	beq	.LBB9_2
@ %bb.1:
	vmov	d0, lr, lr
	vmov	d1, lr, lr
	vmov	d2, lr, lr
	vmov	d3, lr, lr
	vmov	d4, lr, lr
	vmov	d5, lr, lr
	vmov	d6, lr, lr
	vmov	d7, lr, lr
	vmrs	r12, fpscr
	bic	r12, r12, #159
	bic	r12, r12, #4026531840
	vmsr	fpscr, r12
.LBB9_2:
	mov	r1, lr
	mov	r2, lr
	mov	r3, lr
	mov	r12, lr
	msr	apsr_nzcvqg, lr
	bxns	lr
.Ltmp38:
.Lfunc_end9:
	.size	Secure_LED_Off_callback, .Lfunc_end9-Secure_LED_Off_callback
	.cfi_endproc
	.cantunwind
	.fnend
                                        @ -- End function
	.hidden	fNSFunc                         @ @fNSFunc
	.type	fNSFunc,%object
	.section	.bss.fNSFunc,"aw",%nobits
	.globl	fNSFunc
	.p2align	2, 0x0
fNSFunc:
	.long	0
	.size	fNSFunc, 4

	.type	.L.str,%object                  @ @.str
	.section	.rodata.str1.1,"aMS",%progbits,1
.L.str:
	.asciz	"[LOG] Entered Secure register_callback\n"
	.size	.L.str, 40

	.type	.L.str.1,%object                @ @.str.1
.L.str.1:
	.asciz	"[LOG] Callback function registered\n"
	.size	.L.str.1, 36

	.hidden	CFA_stat                        @ @CFA_stat
	.type	CFA_stat,%object
	.section	.bss.CFA_stat,"aw",%nobits
	.globl	CFA_stat
	.p2align	2, 0x0
CFA_stat:
	.long	0                               @ 0x0
	.size	CFA_stat, 4

	.type	.L.str.2,%object                @ @.str.2
	.section	.rodata.str1.1,"aMS",%progbits,1
.L.str.2:
	.asciz	"[LOG] Entered Secure start_cfa\n"
	.size	.L.str.2, 32

	.type	.L.str.3,%object                @ @.str.3
.L.str.3:
	.asciz	"[ERROR] Callback function not defined\n"
	.size	.L.str.3, 39

	.type	.L.str.4,%object                @ @.str.4
.L.str.4:
	.asciz	"[LOG] CFA initialization\n"
	.size	.L.str.4, 26

	.hidden	text                            @ @text
	.type	text,%object
	.section	.data.text,"aw",%progbits
	.globl	text
text:
	.asciz	"Hello World (secure)\r\n"
	.size	text, 23

	.hidden	pfNonSecure_LED_On              @ @pfNonSecure_LED_On
	.type	pfNonSecure_LED_On,%object
	.section	.bss.pfNonSecure_LED_On,"aw",%nobits
	.globl	pfNonSecure_LED_On
	.p2align	2, 0x0
pfNonSecure_LED_On:
	.long	0
	.size	pfNonSecure_LED_On, 4

	.hidden	pfNonSecure_LED_Off             @ @pfNonSecure_LED_Off
	.type	pfNonSecure_LED_Off,%object
	.section	.bss.pfNonSecure_LED_Off,"aw",%nobits
	.globl	pfNonSecure_LED_Off
	.p2align	2, 0x0
pfNonSecure_LED_Off:
	.long	0
	.size	pfNonSecure_LED_Off, 4

	.type	.L.str.5,%object                @ @.str.5
	.section	.rodata.str1.1,"aMS",%progbits,1
.L.str.5:
	.asciz	"%s"
	.size	.L.str.5, 3

	.file	5 "P:\\Workspace\\Git\\MTB_CFA\\IOTKit_CM33_S_NS\\IOTKit_CM33_s" ".\\cfa.h"
	.section	".note.GNU-stack","",%progbits
	.eabi_attribute	30, 6	@ Tag_ABI_optimization_goals
	.ARM_attribute	16, 1	@ Tag_AV_eba