	.text
	.syntax unified
	.eabi_attribute	67, "2.09"	@ Tag_conformance
	.cpu	cortex-m33
	.eabi_attribute	6, 17	@ Tag_CPU_arch
	.eabi_attribute	7, 77	@ Tag_CPU_arch_profile
	.eabi_attribute	8, 0	@ Tag_ARM_ISA_use
	.eabi_attribute	9, 3	@ Tag_THUMB_ISA_use
	.fpu	fpv5-sp-d16
	.eabi_attribute	27, 1	@ Tag_ABI_HardFP_use
	.eabi_attribute	36, 1	@ Tag_FP_HP_extension
	.eabi_attribute	46, 1	@ Tag_DSP_extension
	.eabi_attribute	34, 1	@ Tag_CPU_unaligned_access
	.eabi_attribute	17, 1	@ Tag_ABI_PCS_GOT_use
	.eabi_attribute	20, 2	@ Tag_ABI_FP_denormal
	.eabi_attribute	21, 0	@ Tag_ABI_FP_exceptions
	.eabi_attribute	23, 1	@ Tag_ABI_FP_number_model
	.eabi_attribute	24, 1	@ Tag_ABI_align_needed
	.eabi_attribute	25, 1	@ Tag_ABI_align_preserved
	.eabi_attribute	28, 1	@ Tag_ABI_VFP_args
	.eabi_attribute	38, 1	@ Tag_ABI_FP_16bit_format
	.eabi_attribute	18, 2	@ Tag_ABI_PCS_wchar_t
	.eabi_attribute	26, 1	@ Tag_ABI_enum_size
	.eabi_attribute	14, 0	@ Tag_ABI_PCS_R9_use
	.file	"startup_IOTKit_CM33.c"
	.file	1 "C:/Users/aj4775/AppData/Local/arm/packs/Keil/V2M-MPS2_IOTKit_BSP/1.5.2/Device/IOTKit_CM33/Include" "system_IOTKit_CM33.h"
	.file	2 "P:\\Workspace\\Git\\MTB_CFA\\IOTKit_CM33_S_NS\\IOTKit_CM33_s" "RTE/Device/IOTKit_CM33_FP/startup_IOTKit_CM33.c"
	.file	3 "C:\\Users\\aj4775\\AppData\\Local\\Keil_v5\\ARM\\ARMCLANG\\bin\\..\\include" "stdint.h"
	.section	.text.Default_Handler,"ax",%progbits
	.hidden	Default_Handler                 @ -- Begin function Default_Handler
	.globl	Default_Handler
	.p2align	2
	.type	Default_Handler,%function
	.code	16                              @ @Default_Handler
	.thumb_func
Default_Handler:
.Lfunc_begin0:
	.loc	2 509 0                         @ RTE/Device/IOTKit_CM33_FP/startup_IOTKit_CM33.c:509:0
	.fnstart
	.cfi_sections .debug_frame
	.cfi_startproc
@ %bb.0:
	.save	{r7, lr}
	push	{r7, lr}
	.cfi_def_cfa_offset 8
	.cfi_offset lr, -4
	.cfi_offset r7, -8
.Ltmp0:
	.loc	2 510 3 prologue_end            @ RTE/Device/IOTKit_CM33_FP/startup_IOTKit_CM33.c:510:3
	movw	r0, :lower16:.L.str.1
	movt	r0, :upper16:.L.str.1
	bl	printf
	.loc	2 511 3                         @ RTE/Device/IOTKit_CM33_FP/startup_IOTKit_CM33.c:511:3
	b	.LBB0_1
.LBB0_1:                                @ =>This Inner Loop Header: Depth=1
	b	.LBB0_1
.Ltmp1:
.Lfunc_end0:
	.size	Default_Handler, .Lfunc_end0-Default_Handler
	.cfi_endproc
	.cantunwind
	.fnend
                                        @ -- End function
	.section	.text.Reset_Handler,"ax",%progbits
	.hidden	Reset_Handler                   @ -- Begin function Reset_Handler
	.globl	Reset_Handler
	.p2align	2
	.type	Reset_Handler,%function
	.code	16                              @ @Reset_Handler
	.thumb_func
Reset_Handler:
.Lfunc_begin1:
	.loc	2 476 0                         @ RTE/Device/IOTKit_CM33_FP/startup_IOTKit_CM33.c:476:0
	.fnstart
	.cfi_startproc
@ %bb.0:
	.pad	#16
	sub	sp, #16
	.cfi_def_cfa_offset 16
	movw	r0, :lower16:Image$$ARM_LIB_STACK$$ZI$$Limit
	movt	r0, :upper16:Image$$ARM_LIB_STACK$$ZI$$Limit
	str	r0, [sp]
.Ltmp2:
	.file	4 "C:/Users/aj4775/AppData/Local/arm/packs/ARM/CMSIS/6.1.0/CMSIS/Core/Include\\./m-profile" "cmsis_armclang_m.h"
	.loc	4 258 42 prologue_end           @ C:/Users/aj4775/AppData/Local/arm/packs/ARM/CMSIS/6.1.0/CMSIS/Core/Include\./m-profile/cmsis_armclang_m.h:258:42
	ldr	r0, [sp]
	.loc	4 258 3 is_stmt 0               @ C:/Users/aj4775/AppData/Local/arm/packs/ARM/CMSIS/6.1.0/CMSIS/Core/Include\./m-profile/cmsis_armclang_m.h:258:3
	@APP
	msr	psp, r0
	@NO_APP
	movw	r0, :lower16:Image$$ARM_LIB_STACK$$ZI$$Base
	movt	r0, :upper16:Image$$ARM_LIB_STACK$$ZI$$Base
	str	r0, [sp, #4]
.Ltmp3:
	.loc	4 688 45 is_stmt 1              @ C:/Users/aj4775/AppData/Local/arm/packs/ARM/CMSIS/6.1.0/CMSIS/Core/Include\./m-profile/cmsis_armclang_m.h:688:45
	ldr	r1, [sp, #4]
	.loc	4 688 3 is_stmt 0               @ C:/Users/aj4775/AppData/Local/arm/packs/ARM/CMSIS/6.1.0/CMSIS/Core/Include\./m-profile/cmsis_armclang_m.h:688:3
	@APP
	msr	msplim, r1
	@NO_APP
	str	r0, [sp, #8]
.Ltmp4:
	.loc	4 598 45 is_stmt 1              @ C:/Users/aj4775/AppData/Local/arm/packs/ARM/CMSIS/6.1.0/CMSIS/Core/Include\./m-profile/cmsis_armclang_m.h:598:45
	ldr	r0, [sp, #8]
	.loc	4 598 3 is_stmt 0               @ C:/Users/aj4775/AppData/Local/arm/packs/ARM/CMSIS/6.1.0/CMSIS/Core/Include\./m-profile/cmsis_armclang_m.h:598:3
	@APP
	msr	psplim, r0
	@NO_APP
	movw	r0, :lower16:Image$$STACKSEAL$$ZI$$Base
	movt	r0, :upper16:Image$$STACKSEAL$$ZI$$Base
	str	r0, [sp, #12]
.Ltmp5:
	.loc	4 74 17 is_stmt 1               @ C:/Users/aj4775/AppData/Local/arm/packs/ARM/CMSIS/6.1.0/CMSIS/Core/Include\./m-profile/cmsis_armclang_m.h:74:17
	ldr	r1, [sp, #12]
	movw	r0, #60837
	movt	r0, #65269
	.loc	4 74 27 is_stmt 0               @ C:/Users/aj4775/AppData/Local/arm/packs/ARM/CMSIS/6.1.0/CMSIS/Core/Include\./m-profile/cmsis_armclang_m.h:74:27
	str	r0, [r1, #4]
	str	r0, [r1]
.Ltmp6:
	.loc	2 486 3 is_stmt 1               @ RTE/Device/IOTKit_CM33_FP/startup_IOTKit_CM33.c:486:3
	bl	SystemInit
	.loc	2 487 3                         @ RTE/Device/IOTKit_CM33_FP/startup_IOTKit_CM33.c:487:3
	bl	__main
.Ltmp7:
.Lfunc_end1:
	.size	Reset_Handler, .Lfunc_end1-Reset_Handler
	.cfi_endproc
	.cantunwind
	.fnend
                                        @ -- End function
	.section	.text.HardFault_Handler,"ax",%progbits
	.hidden	HardFault_Handler               @ -- Begin function HardFault_Handler
	.weak	HardFault_Handler
	.p2align	2
	.type	HardFault_Handler,%function
	.code	16                              @ @HardFault_Handler
	.thumb_func
HardFault_Handler:
.Lfunc_begin2:
	.loc	2 500 0                         @ RTE/Device/IOTKit_CM33_FP/startup_IOTKit_CM33.c:500:0
	.fnstart
	.cfi_startproc
@ %bb.0:
	.save	{r7, lr}
	push	{r7, lr}
	.cfi_def_cfa_offset 8
	.cfi_offset lr, -4
	.cfi_offset r7, -8
.Ltmp8:
	.loc	2 501 3 prologue_end            @ RTE/Device/IOTKit_CM33_FP/startup_IOTKit_CM33.c:501:3
	movw	r0, :lower16:.L.str
	movt	r0, :upper16:.L.str
	bl	printf
	.loc	2 502 3                         @ RTE/Device/IOTKit_CM33_FP/startup_IOTKit_CM33.c:502:3
	b	.LBB2_1
.LBB2_1:                                @ =>This Inner Loop Header: Depth=1
	b	.LBB2_1
.Ltmp9:
.Lfunc_end2:
	.size	HardFault_Handler, .Lfunc_end2-HardFault_Handler
	.cfi_endproc
	.cantunwind
	.fnend
                                        @ -- End function
	.hidden	__Vectors                       @ @__Vectors
	.type	__Vectors,%object
	.section	RESET,"aR",%progbits,unique,1
	.globl	__Vectors
	.p2align	2, 0x0
__Vectors:
__tagsym$$used.0:
	.long	Image$$ARM_LIB_STACK$$ZI$$Limit
	.long	Reset_Handler
	.long	NMI_Handler
	.long	HardFault_Handler
	.long	MemManage_Handler
	.long	BusFault_Handler
	.long	UsageFault_Handler
	.long	SecureFault_Handler
	.long	0
	.long	0
	.long	0
	.long	SVC_Handler
	.long	DebugMon_Handler
	.long	0
	.long	PendSV_Handler
	.long	SysTick_Handler
	.long	NONSEC_WATCHDOG_RESET_Handler
	.long	NONSEC_WATCHDOG_Handler
	.long	S32K_TIMER_Handler
	.long	TIMER0_Handler
	.long	TIMER1_Handler
	.long	DUALTIMER_Handler
	.long	0
	.long	0
	.long	0
	.long	MPC_Handler
	.long	PPC_Handler
	.long	MSC_Handler
	.long	BRIDGE_ERROR_Handler
	.long	0
	.long	0
	.long	0
	.long	0
	.long	0
	.long	0
	.long	0
	.long	0
	.long	0
	.long	0
	.long	0
	.long	0
	.long	0
	.long	0
	.long	0
	.long	0
	.long	0
	.long	0
	.long	0
	.long	UART0RX_Handler
	.long	UART0TX_Handler
	.long	UART1RX_Handler
	.long	UART1TX_Handler
	.long	UART2RX_Handler
	.long	UART2TX_Handler
	.long	UART3RX_Handler
	.long	UART3TX_Handler
	.long	UART4RX_Handler
	.long	UART4TX_Handler
	.long	UART0_Handler
	.long	UART1_Handler
	.long	UART2_Handler
	.long	UART3_Handler
	.long	UART4_Handler
	.long	UARTOVF_Handler
	.long	ETHERNET_Handler
	.long	I2S_Handler
	.long	TSC_Handler
	.long	SPI0_Handler
	.long	SPI1_Handler
	.long	SPI2_Handler
	.long	SPI3_Handler
	.long	SPI4_Handler
	.long	DMA0_ERROR_Handler
	.long	DMA0_TC_Handler
	.long	DMA0_Handler
	.long	DMA1_ERROR_Handler
	.long	DMA1_TC_Handler
	.long	DMA1_Handler
	.long	DMA2_ERROR_Handler
	.long	DMA2_TC_Handler
	.long	DMA2_Handler
	.long	DMA3_ERROR_Handler
	.long	DMA3_TC_Handler
	.long	DMA3_Handler
	.long	GPIO0_Handler
	.long	GPIO1_Handler
	.long	GPIO2_Handler
	.long	GPIO3_Handler
	.long	GPIO0_0_Handler
	.long	GPIO0_1_Handler
	.long	GPIO0_2_Handler
	.long	GPIO0_3_Handler
	.long	GPIO0_4_Handler
	.long	GPIO0_5_Handler
	.long	GPIO0_6_Handler
	.long	GPIO0_7_Handler
	.long	GPIO0_8_Handler
	.long	GPIO0_9_Handler
	.long	GPIO0_10_Handler
	.long	GPIO0_11_Handler
	.long	GPIO0_12_Handler
	.long	GPIO0_13_Handler
	.long	GPIO0_14_Handler
	.long	GPIO0_15_Handler
	.long	GPIO1_0_Handler
	.long	GPIO1_1_Handler
	.long	GPIO1_2_Handler
	.long	GPIO1_3_Handler
	.long	GPIO1_4_Handler
	.long	GPIO1_5_Handler
	.long	GPIO1_6_Handler
	.long	GPIO1_7_Handler
	.long	GPIO1_8_Handler
	.long	GPIO1_9_Handler
	.long	GPIO1_10_Handler
	.long	GPIO1_11_Handler
	.long	GPIO1_12_Handler
	.long	GPIO1_13_Handler
	.long	GPIO1_14_Handler
	.long	GPIO1_15_Handler
	.long	GPIO2_0_Handler
	.long	GPIO2_1_Handler
	.long	GPIO2_2_Handler
	.long	GPIO2_3_Handler
	.long	GPIO2_4_Handler
	.long	GPIO2_5_Handler
	.long	GPIO2_6_Handler
	.long	GPIO2_7_Handler
	.long	GPIO2_8_Handler
	.long	GPIO2_9_Handler
	.long	GPIO2_10_Handler
	.long	GPIO2_11_Handler
	.long	GPIO2_12_Handler
	.long	GPIO2_13_Handler
	.long	GPIO2_14_Handler
	.long	GPIO2_15_Handler
	.long	GPIO3_0_Handler
	.long	GPIO3_1_Handler
	.long	GPIO3_2_Handler
	.long	GPIO3_3_Handler
	.zero	464
	.size	__Vectors, 1024

	.type	.L.str,%object                  @ @.str
	.section	.rodata.str1.1,"aMS",%progbits,1
.L.str:
	.asciz	"[LOG] Hard Fault\n"
	.size	.L.str, 18

	.type	.L.str.1,%object                @ @.str.1
.L.str.1:
	.asciz	"[LOG] Default Handler Fault\n"
	.size	.L.str.1, 29

	.weak	NMI_Handler
	.type	NMI_Handler,%function
	.hidden	NMI_Handler
.set NMI_Handler, Default_Handler
	.weak	MemManage_Handler
	.type	MemManage_Handler,%function
	.hidden	MemManage_Handler
.set MemManage_Handler, Default_Handler
	.weak	BusFault_Handler
	.type	BusFault_Handler,%function
	.hidden	BusFault_Handler
.set BusFault_Handler, Default_Handler
	.weak	UsageFault_Handler
	.type	UsageFault_Handler,%function
	.hidden	UsageFault_Handler
.set UsageFault_Handler, Default_Handler
	.weak	SecureFault_Handler
	.type	SecureFault_Handler,%function
	.hidden	SecureFault_Handler
.set SecureFault_Handler, Default_Handler
	.weak	SVC_Handler
	.type	SVC_Handler,%function
	.hidden	SVC_Handler
.set SVC_Handler, Default_Handler
	.weak	DebugMon_Handler
	.type	DebugMon_Handler,%function
	.hidden	DebugMon_Handler
.set DebugMon_Handler, Default_Handler
	.weak	PendSV_Handler
	.type	PendSV_Handler,%function
	.hidden	PendSV_Handler
.set PendSV_Handler, Default_Handler
	.weak	SysTick_Handler
	.type	SysTick_Handler,%function
	.hidden	SysTick_Handler
.set SysTick_Handler, Default_Handler
	.weak	NONSEC_WATCHDOG_RESET_Handler
	.type	NONSEC_WATCHDOG_RESET_Handler,%function
	.hidden	NONSEC_WATCHDOG_RESET_Handler
.set NONSEC_WATCHDOG_RESET_Handler, Default_Handler
	.weak	NONSEC_WATCHDOG_Handler
	.type	NONSEC_WATCHDOG_Handler,%function
	.hidden	NONSEC_WATCHDOG_Handler
.set NONSEC_WATCHDOG_Handler, Default_Handler
	.weak	S32K_TIMER_Handler
	.type	S32K_TIMER_Handler,%function
	.hidden	S32K_TIMER_Handler
.set S32K_TIMER_Handler, Default_Handler
	.weak	TIMER0_Handler
	.type	TIMER0_Handler,%function
	.hidden	TIMER0_Handler
.set TIMER0_Handler, Default_Handler
	.weak	TIMER1_Handler
	.type	TIMER1_Handler,%function
	.hidden	TIMER1_Handler
.set TIMER1_Handler, Default_Handler
	.weak	DUALTIMER_Handler
	.type	DUALTIMER_Handler,%function
	.hidden	DUALTIMER_Handler
.set DUALTIMER_Handler, Default_Handler
	.weak	MPC_Handler
	.type	MPC_Handler,%function
	.hidden	MPC_Handler
.set MPC_Handler, Default_Handler
	.weak	PPC_Handler
	.type	PPC_Handler,%function
	.hidden	PPC_Handler
.set PPC_Handler, Default_Handler
	.weak	MSC_Handler
	.type	MSC_Handler,%function
	.hidden	MSC_Handler
.set MSC_Handler, Default_Handler
	.weak	BRIDGE_ERROR_Handler
	.type	BRIDGE_ERROR_Handler,%function
	.hidden	BRIDGE_ERROR_Handler
.set BRIDGE_ERROR_Handler, Default_Handler
	.weak	UART0RX_Handler
	.type	UART0RX_Handler,%function
	.hidden	UART0RX_Handler
.set UART0RX_Handler, Default_Handler
	.weak	UART0TX_Handler
	.type	UART0TX_Handler,%function
	.hidden	UART0TX_Handler
.set UART0TX_Handler, Default_Handler
	.weak	UART1RX_Handler
	.type	UART1RX_Handler,%function
	.hidden	UART1RX_Handler
.set UART1RX_Handler, Default_Handler
	.weak	UART1TX_Handler
	.type	UART1TX_Handler,%function
	.hidden	UART1TX_Handler
.set UART1TX_Handler, Default_Handler
	.weak	UART2RX_Handler
	.type	UART2RX_Handler,%function
	.hidden	UART2RX_Handler
.set UART2RX_Handler, Default_Handler
	.weak	UART2TX_Handler
	.type	UART2TX_Handler,%function
	.hidden	UART2TX_Handler
.set UART2TX_Handler, Default_Handler
	.weak	UART3RX_Handler
	.type	UART3RX_Handler,%function
	.hidden	UART3RX_Handler
.set UART3RX_Handler, Default_Handler
	.weak	UART3TX_Handler
	.type	UART3TX_Handler,%function
	.hidden	UART3TX_Handler
.set UART3TX_Handler, Default_Handler
	.weak	UART4RX_Handler
	.type	UART4RX_Handler,%function
	.hidden	UART4RX_Handler
.set UART4RX_Handler, Default_Handler
	.weak	UART4TX_Handler
	.type	UART4TX_Handler,%function
	.hidden	UART4TX_Handler
.set UART4TX_Handler, Default_Handler
	.weak	UART0_Handler
	.type	UART0_Handler,%function
	.hidden	UART0_Handler
.set UART0_Handler, Default_Handler
	.weak	UART1_Handler
	.type	UART1_Handler,%function
	.hidden	UART1_Handler
.set UART1_Handler, Default_Handler
	.weak	UART2_Handler
	.type	UART2_Handler,%function
	.hidden	UART2_Handler
.set UART2_Handler, Default_Handler
	.weak	UART3_Handler
	.type	UART3_Handler,%function
	.hidden	UART3_Handler
.set UART3_Handler, Default_Handler
	.weak	UART4_Handler
	.type	UART4_Handler,%function
	.hidden	UART4_Handler
.set UART4_Handler, Default_Handler
	.weak	UARTOVF_Handler
	.type	UARTOVF_Handler,%function
	.hidden	UARTOVF_Handler
.set UARTOVF_Handler, Default_Handler
	.weak	ETHERNET_Handler
	.type	ETHERNET_Handler,%function
	.hidden	ETHERNET_Handler
.set ETHERNET_Handler, Default_Handler
	.weak	I2S_Handler
	.type	I2S_Handler,%function
	.hidden	I2S_Handler
.set I2S_Handler, Default_Handler
	.weak	TSC_Handler
	.type	TSC_Handler,%function
	.hidden	TSC_Handler
.set TSC_Handler, Default_Handler
	.weak	SPI0_Handler
	.type	SPI0_Handler,%function
	.hidden	SPI0_Handler
.set SPI0_Handler, Default_Handler
	.weak	SPI1_Handler
	.type	SPI1_Handler,%function
	.hidden	SPI1_Handler
.set SPI1_Handler, Default_Handler
	.weak	SPI2_Handler
	.type	SPI2_Handler,%function
	.hidden	SPI2_Handler
.set SPI2_Handler, Default_Handler
	.weak	SPI3_Handler
	.type	SPI3_Handler,%function
	.hidden	SPI3_Handler
.set SPI3_Handler, Default_Handler
	.weak	SPI4_Handler
	.type	SPI4_Handler,%function
	.hidden	SPI4_Handler
.set SPI4_Handler, Default_Handler
	.weak	DMA0_ERROR_Handler
	.type	DMA0_ERROR_Handler,%function
	.hidden	DMA0_ERROR_Handler
.set DMA0_ERROR_Handler, Default_Handler
	.weak	DMA0_TC_Handler
	.type	DMA0_TC_Handler,%function
	.hidden	DMA0_TC_Handler
.set DMA0_TC_Handler, Default_Handler
	.weak	DMA0_Handler
	.type	DMA0_Handler,%function
	.hidden	DMA0_Handler
.set DMA0_Handler, Default_Handler
	.weak	DMA1_ERROR_Handler
	.type	DMA1_ERROR_Handler,%function
	.hidden	DMA1_ERROR_Handler
.set DMA1_ERROR_Handler, Default_Handler
	.weak	DMA1_TC_Handler
	.type	DMA1_TC_Handler,%function
	.hidden	DMA1_TC_Handler
.set DMA1_TC_Handler, Default_Handler
	.weak	DMA1_Handler
	.type	DMA1_Handler,%function
	.hidden	DMA1_Handler
.set DMA1_Handler, Default_Handler
	.weak	DMA2_ERROR_Handler
	.type	DMA2_ERROR_Handler,%function
	.hidden	DMA2_ERROR_Handler
.set DMA2_ERROR_Handler, Default_Handler
	.weak	DMA2_TC_Handler
	.type	DMA2_TC_Handler,%function
	.hidden	DMA2_TC_Handler
.set DMA2_TC_Handler, Default_Handler
	.weak	DMA2_Handler
	.type	DMA2_Handler,%function
	.hidden	DMA2_Handler
.set DMA2_Handler, Default_Handler
	.weak	DMA3_ERROR_Handler
	.type	DMA3_ERROR_Handler,%function
	.hidden	DMA3_ERROR_Handler
.set DMA3_ERROR_Handler, Default_Handler
	.weak	DMA3_TC_Handler
	.type	DMA3_TC_Handler,%function
	.hidden	DMA3_TC_Handler
.set DMA3_TC_Handler, Default_Handler
	.weak	DMA3_Handler
	.type	DMA3_Handler,%function
	.hidden	DMA3_Handler
.set DMA3_Handler, Default_Handler
	.weak	GPIO0_Handler
	.type	GPIO0_Handler,%function
	.hidden	GPIO0_Handler
.set GPIO0_Handler, Default_Handler
	.weak	GPIO1_Handler
	.type	GPIO1_Handler,%function
	.hidden	GPIO1_Handler
.set GPIO1_Handler, Default_Handler
	.weak	GPIO2_Handler
	.type	GPIO2_Handler,%function
	.hidden	GPIO2_Handler
.set GPIO2_Handler, Default_Handler
	.weak	GPIO3_Handler
	.type	GPIO3_Handler,%function
	.hidden	GPIO3_Handler
.set GPIO3_Handler, Default_Handler
	.weak	GPIO0_0_Handler
	.type	GPIO0_0_Handler,%function
	.hidden	GPIO0_0_Handler
.set GPIO0_0_Handler, Default_Handler
	.weak	GPIO0_1_Handler
	.type	GPIO0_1_Handler,%function
	.hidden	GPIO0_1_Handler
.set GPIO0_1_Handler, Default_Handler
	.weak	GPIO0_2_Handler
	.type	GPIO0_2_Handler,%function
	.hidden	GPIO0_2_Handler
.set GPIO0_2_Handler, Default_Handler
	.weak	GPIO0_3_Handler
	.type	GPIO0_3_Handler,%function
	.hidden	GPIO0_3_Handler
.set GPIO0_3_Handler, Default_Handler
	.weak	GPIO0_4_Handler
	.type	GPIO0_4_Handler,%function
	.hidden	GPIO0_4_Handler
.set GPIO0_4_Handler, Default_Handler
	.weak	GPIO0_5_Handler
	.type	GPIO0_5_Handler,%function
	.hidden	GPIO0_5_Handler
.set GPIO0_5_Handler, Default_Handler
	.weak	GPIO0_6_Handler
	.type	GPIO0_6_Handler,%function
	.hidden	GPIO0_6_Handler
.set GPIO0_6_Handler, Default_Handler
	.weak	GPIO0_7_Handler
	.type	GPIO0_7_Handler,%function
	.hidden	GPIO0_7_Handler
.set GPIO0_7_Handler, Default_Handler
	.weak	GPIO0_8_Handler
	.type	GPIO0_8_Handler,%function
	.hidden	GPIO0_8_Handler
.set GPIO0_8_Handler, Default_Handler
	.weak	GPIO0_9_Handler
	.type	GPIO0_9_Handler,%function
	.hidden	GPIO0_9_Handler
.set GPIO0_9_Handler, Default_Handler
	.weak	GPIO0_10_Handler
	.type	GPIO0_10_Handler,%function
	.hidden	GPIO0_10_Handler
.set GPIO0_10_Handler, Default_Handler
	.weak	GPIO0_11_Handler
	.type	GPIO0_11_Handler,%function
	.hidden	GPIO0_11_Handler
.set GPIO0_11_Handler, Default_Handler
	.weak	GPIO0_12_Handler
	.type	GPIO0_12_Handler,%function
	.hidden	GPIO0_12_Handler
.set GPIO0_12_Handler, Default_Handler
	.weak	GPIO0_13_Handler
	.type	GPIO0_13_Handler,%function
	.hidden	GPIO0_13_Handler
.set GPIO0_13_Handler, Default_Handler
	.weak	GPIO0_14_Handler
	.type	GPIO0_14_Handler,%function
	.hidden	GPIO0_14_Handler
.set GPIO0_14_Handler, Default_Handler
	.weak	GPIO0_15_Handler
	.type	GPIO0_15_Handler,%function
	.hidden	GPIO0_15_Handler
.set GPIO0_15_Handler, Default_Handler
	.weak	GPIO1_0_Handler
	.type	GPIO1_0_Handler,%function
	.hidden	GPIO1_0_Handler
.set GPIO1_0_Handler, Default_Handler
	.weak	GPIO1_1_Handler
	.type	GPIO1_1_Handler,%function
	.hidden	GPIO1_1_Handler
.set GPIO1_1_Handler, Default_Handler
	.weak	GPIO1_2_Handler
	.type	GPIO1_2_Handler,%function
	.hidden	GPIO1_2_Handler
.set GPIO1_2_Handler, Default_Handler
	.weak	GPIO1_3_Handler
	.type	GPIO1_3_Handler,%function
	.hidden	GPIO1_3_Handler
.set GPIO1_3_Handler, Default_Handler
	.weak	GPIO1_4_Handler
	.type	GPIO1_4_Handler,%function
	.hidden	GPIO1_4_Handler
.set GPIO1_4_Handler, Default_Handler
	.weak	GPIO1_5_Handler
	.type	GPIO1_5_Handler,%function
	.hidden	GPIO1_5_Handler
.set GPIO1_5_Handler, Default_Handler
	.weak	GPIO1_6_Handler
	.type	GPIO1_6_Handler,%function
	.hidden	GPIO1_6_Handler
.set GPIO1_6_Handler, Default_Handler
	.weak	GPIO1_7_Handler
	.type	GPIO1_7_Handler,%function
	.hidden	GPIO1_7_Handler
.set GPIO1_7_Handler, Default_Handler
	.weak	GPIO1_8_Handler
	.type	GPIO1_8_Handler,%function
	.hidden	GPIO1_8_Handler
.set GPIO1_8_Handler, Default_Handler
	.weak	GPIO1_9_Handler
	.type	GPIO1_9_Handler,%function
	.hidden	GPIO1_9_Handler
.set GPIO1_9_Handler, Default_Handler
	.weak	GPIO1_10_Handler
	.type	GPIO1_10_Handler,%function
	.hidden	GPIO1_10_Handler
.set GPIO1_10_Handler, Default_Handler
	.weak	GPIO1_11_Handler
	.type	GPIO1_11_Handler,%function
	.hidden	GPIO1_11_Handler
.set GPIO1_11_Handler, Default_Handler
	.weak	GPIO1_12_Handler
	.type	GPIO1_12_Handler,%function
	.hidden	GPIO1_12_Handler
.set GPIO1_12_Handler, Default_Handler
	.weak	GPIO1_13_Handler
	.type	GPIO1_13_Handler,%function
	.hidden	GPIO1_13_Handler
.set GPIO1_13_Handler, Default_Handler
	.weak	GPIO1_14_Handler
	.type	GPIO1_14_Handler,%function
	.hidden	GPIO1_14_Handler
.set GPIO1_14_Handler, Default_Handler
	.weak	GPIO1_15_Handler
	.type	GPIO1_15_Handler,%function
	.hidden	GPIO1_15_Handler
.set GPIO1_15_Handler, Default_Handler
	.weak	GPIO2_0_Handler
	.type	GPIO2_0_Handler,%function
	.hidden	GPIO2_0_Handler
.set GPIO2_0_Handler, Default_Handler
	.weak	GPIO2_1_Handler
	.type	GPIO2_1_Handler,%function
	.hidden	GPIO2_1_Handler
.set GPIO2_1_Handler, Default_Handler
	.weak	GPIO2_2_Handler
	.type	GPIO2_2_Handler,%function
	.hidden	GPIO2_2_Handler
.set GPIO2_2_Handler, Default_Handler
	.weak	GPIO2_3_Handler
	.type	GPIO2_3_Handler,%function
	.hidden	GPIO2_3_Handler
.set GPIO2_3_Handler, Default_Handler
	.weak	GPIO2_4_Handler
	.type	GPIO2_4_Handler,%function
	.hidden	GPIO2_4_Handler
.set GPIO2_4_Handler, Default_Handler
	.weak	GPIO2_5_Handler
	.type	GPIO2_5_Handler,%function
	.hidden	GPIO2_5_Handler
.set GPIO2_5_Handler, Default_Handler
	.weak	GPIO2_6_Handler
	.type	GPIO2_6_Handler,%function
	.hidden	GPIO2_6_Handler
.set GPIO2_6_Handler, Default_Handler
	.weak	GPIO2_7_Handler
	.type	GPIO2_7_Handler,%function
	.hidden	GPIO2_7_Handler
.set GPIO2_7_Handler, Default_Handler
	.weak	GPIO2_8_Handler
	.type	GPIO2_8_Handler,%function
	.hidden	GPIO2_8_Handler
.set GPIO2_8_Handler, Default_Handler
	.weak	GPIO2_9_Handler
	.type	GPIO2_9_Handler,%function
	.hidden	GPIO2_9_Handler
.set GPIO2_9_Handler, Default_Handler
	.weak	GPIO2_10_Handler
	.type	GPIO2_10_Handler,%function
	.hidden	GPIO2_10_Handler
.set GPIO2_10_Handler, Default_Handler
	.weak	GPIO2_11_Handler
	.type	GPIO2_11_Handler,%function
	.hidden	GPIO2_11_Handler
.set GPIO2_11_Handler, Default_Handler
	.weak	GPIO2_12_Handler
	.type	GPIO2_12_Handler,%function
	.hidden	GPIO2_12_Handler
.set GPIO2_12_Handler, Default_Handler
	.weak	GPIO2_13_Handler
	.type	GPIO2_13_Handler,%function
	.hidden	GPIO2_13_Handler
.set GPIO2_13_Handler, Default_Handler
	.weak	GPIO2_14_Handler
	.type	GPIO2_14_Handler,%function
	.hidden	GPIO2_14_Handler
.set GPIO2_14_Handler, Default_Handler
	.weak	GPIO2_15_Handler
	.type	GPIO2_15_Handler,%function
	.hidden	GPIO2_15_Handler
.set GPIO2_15_Handler, Default_Handler
	.weak	GPIO3_0_Handler
	.type	GPIO3_0_Handler,%function
	.hidden	GPIO3_0_Handler
.set GPIO3_0_Handler, Default_Handler
	.weak	GPIO3_1_Handler
	.type	GPIO3_1_Handler,%function
	.hidden	GPIO3_1_Handler
.set GPIO3_1_Handler, Default_Handler
	.weak	GPIO3_2_Handler
	.type	GPIO3_2_Handler,%function
	.hidden	GPIO3_2_Handler
.set GPIO3_2_Handler, Default_Handler
	.weak	GPIO3_3_Handler
	.type	GPIO3_3_Handler,%function
	.hidden	GPIO3_3_Handler
.set GPIO3_3_Handler, Default_Handler
	.section	".note.GNU-stack","",%progbits
	.eabi_attribute	30, 6	@ Tag_ABI_optimization_goals
	.ARM_attribute	16, 1	@ Tag_AV_eba