	.text
	.syntax unified
	.eabi_attribute	67, "2.09"	@ Tag_conformance
	.cpu	cortex-m33
	.eabi_attribute	6, 17	@ Tag_CPU_arch
	.eabi_attribute	7, 77	@ Tag_CPU_arch_profile
	.eabi_attribute	8, 0	@ Tag_ARM_ISA_use
	.eabi_attribute	9, 3	@ Tag_THUMB_ISA_use
	.fpu	fpv5-sp-d16
	.eabi_attribute	27, 1	@ Tag_ABI_HardFP_use
	.eabi_attribute	36, 1	@ Tag_FP_HP_extension
	.eabi_attribute	46, 1	@ Tag_DSP_extension
	.eabi_attribute	34, 1	@ Tag_CPU_unaligned_access
	.eabi_attribute	17, 1	@ Tag_ABI_PCS_GOT_use
	.eabi_attribute	20, 2	@ Tag_ABI_FP_denormal
	.eabi_attribute	21, 0	@ Tag_ABI_FP_exceptions
	.eabi_attribute	23, 1	@ Tag_ABI_FP_number_model
	.eabi_attribute	24, 1	@ Tag_ABI_align_needed
	.eabi_attribute	25, 1	@ Tag_ABI_align_preserved
	.eabi_attribute	28, 1	@ Tag_ABI_VFP_args
	.eabi_attribute	38, 1	@ Tag_ABI_FP_16bit_format
	.eabi_attribute	18, 2	@ Tag_ABI_PCS_wchar_t
	.eabi_attribute	26, 1	@ Tag_ABI_enum_size
	.eabi_attribute	14, 0	@ Tag_ABI_PCS_R9_use
	.file	"USART_V2M-MPS2.c"
	.file	1 "C:\\Users\\aj4775\\AppData\\Local\\Keil_v5\\ARM\\ARMCLANG\\bin\\..\\include" "stdint.h"
	.file	2 "C:/Users/aj4775/AppData/Local/arm/packs/ARM/CMSIS/6.1.0/CMSIS/Driver/Include" "Driver_Common.h"
	.file	3 "C:/Users/aj4775/AppData/Local/arm/packs/ARM/CMSIS/6.1.0/CMSIS/Driver/Include" "Driver_USART.h"
	.file	4 "C:/Users/aj4775/AppData/Local/arm/packs/Keil/V2M-MPS2_IOTKit_BSP/1.5.2/CMSIS/Driver" "USART_V2M-MPS2.c"
	.file	5 "C:/Users/aj4775/AppData/Local/arm/packs/Keil/V2M-MPS2_IOTKit_BSP/1.5.2/CMSIS/Driver" "USART_V2M-MPS2.h"
	.file	6 "C:/Users/aj4775/AppData/Local/arm/packs/Keil/V2M-MPS2_IOTKit_BSP/1.5.2/Device/IOTKit_CM33/Include" "IOTKit_CM33_FP.h"
	.file	7 "C:/Users/aj4775/AppData/Local/arm/packs/ARM/CMSIS/6.1.0/CMSIS/Core/Include" "core_cm33.h"
	.section	.text.UART0RX_Handler,"ax",%progbits
	.hidden	UART0RX_Handler                 @ -- Begin function UART0RX_Handler
	.globl	UART0RX_Handler
	.p2align	2
	.type	UART0RX_Handler,%function
	.code	16                              @ @UART0RX_Handler
	.thumb_func
UART0RX_Handler:
.Lfunc_begin0:
	.loc	4 791 0                         @ C:/Users/aj4775/AppData/Local/arm/packs/Keil/V2M-MPS2_IOTKit_BSP/1.5.2/CMSIS/Driver/USART_V2M-MPS2.c:791:0
	.fnstart
	.cfi_sections .debug_frame
	.cfi_startproc
@ %bb.0:
	.save	{r7, lr}
	push	{r7, lr}
	.cfi_def_cfa_offset 8
	.cfi_offset lr, -4
	.cfi_offset r7, -8
.Ltmp0:
	.loc	4 791 118 prologue_end          @ C:/Users/aj4775/AppData/Local/arm/packs/Keil/V2M-MPS2_IOTKit_BSP/1.5.2/CMSIS/Driver/USART_V2M-MPS2.c:791:118
	movw	r0, :lower16:USART0_Resources
	movt	r0, :upper16:USART0_Resources
	bl	USARTRX_IRQHandler
	.loc	4 791 158 epilogue_begin is_stmt 0 @ C:/Users/aj4775/AppData/Local/arm/packs/Keil/V2M-MPS2_IOTKit_BSP/1.5.2/CMSIS/Driver/USART_V2M-MPS2.c:791:158
	pop	{r7, pc}
.Ltmp1:
.Lfunc_end0:
	.size	UART0RX_Handler, .Lfunc_end0-UART0RX_Handler
	.cfi_endproc
	.cantunwind
	.fnend
                                        @ -- End function
	.section	.text.USARTRX_IRQHandler,"ax",%progbits
	.p2align	2                               @ -- Begin function USARTRX_IRQHandler
	.type	USARTRX_IRQHandler,%function
	.code	16                              @ @USARTRX_IRQHandler
	.thumb_func
USARTRX_IRQHandler:
.Lfunc_begin1:
	.loc	4 716 0 is_stmt 1               @ C:/Users/aj4775/AppData/Local/arm/packs/Keil/V2M-MPS2_IOTKit_BSP/1.5.2/CMSIS/Driver/USART_V2M-MPS2.c:716:0
	.fnstart
	.cfi_startproc
@ %bb.0:
	.save	{r7, lr}
	push	{r7, lr}
	.cfi_def_cfa_offset 8
	.cfi_offset lr, -4
	.cfi_offset r7, -8
	.pad	#8
	sub	sp, #8
	.cfi_def_cfa_offset 16
	str	r0, [sp, #4]
.Ltmp2:
	.loc	4 719 12 prologue_end           @ C:/Users/aj4775/AppData/Local/arm/packs/Keil/V2M-MPS2_IOTKit_BSP/1.5.2/CMSIS/Driver/USART_V2M-MPS2.c:719:12
	ldr	r0, [sp, #4]
	.loc	4 719 19 is_stmt 0              @ C:/Users/aj4775/AppData/Local/arm/packs/Keil/V2M-MPS2_IOTKit_BSP/1.5.2/CMSIS/Driver/USART_V2M-MPS2.c:719:19
	ldr	r0, [r0, #12]
	.loc	4 719 24                        @ C:/Users/aj4775/AppData/Local/arm/packs/Keil/V2M-MPS2_IOTKit_BSP/1.5.2/CMSIS/Driver/USART_V2M-MPS2.c:719:24
	ldr	r0, [r0, #12]
	.loc	4 719 10                        @ C:/Users/aj4775/AppData/Local/arm/packs/Keil/V2M-MPS2_IOTKit_BSP/1.5.2/CMSIS/Driver/USART_V2M-MPS2.c:719:10
	str	r0, [sp]
.Ltmp3:
	.loc	4 720 7 is_stmt 1               @ C:/Users/aj4775/AppData/Local/arm/packs/Keil/V2M-MPS2_IOTKit_BSP/1.5.2/CMSIS/Driver/USART_V2M-MPS2.c:720:7
	ldr	r0, [sp, #4]
	.loc	4 720 14 is_stmt 0              @ C:/Users/aj4775/AppData/Local/arm/packs/Keil/V2M-MPS2_IOTKit_BSP/1.5.2/CMSIS/Driver/USART_V2M-MPS2.c:720:14
	ldr	r0, [r0, #24]
	.loc	4 720 20                        @ C:/Users/aj4775/AppData/Local/arm/packs/Keil/V2M-MPS2_IOTKit_BSP/1.5.2/CMSIS/Driver/USART_V2M-MPS2.c:720:20
	ldr	r0, [r0, #8]
.Ltmp4:
	.loc	4 720 7                         @ C:/Users/aj4775/AppData/Local/arm/packs/Keil/V2M-MPS2_IOTKit_BSP/1.5.2/CMSIS/Driver/USART_V2M-MPS2.c:720:7
	cbz	r0, .LBB1_2
	b	.LBB1_1
.LBB1_1:
.Ltmp5:
	.loc	4 721 59 is_stmt 1              @ C:/Users/aj4775/AppData/Local/arm/packs/Keil/V2M-MPS2_IOTKit_BSP/1.5.2/CMSIS/Driver/USART_V2M-MPS2.c:721:59
	ldr	r0, [sp, #4]
	.loc	4 721 66 is_stmt 0              @ C:/Users/aj4775/AppData/Local/arm/packs/Keil/V2M-MPS2_IOTKit_BSP/1.5.2/CMSIS/Driver/USART_V2M-MPS2.c:721:66
	ldr	r0, [r0, #12]
	.loc	4 721 71                        @ C:/Users/aj4775/AppData/Local/arm/packs/Keil/V2M-MPS2_IOTKit_BSP/1.5.2/CMSIS/Driver/USART_V2M-MPS2.c:721:71
	ldr	r0, [r0]
	.loc	4 721 5                         @ C:/Users/aj4775/AppData/Local/arm/packs/Keil/V2M-MPS2_IOTKit_BSP/1.5.2/CMSIS/Driver/USART_V2M-MPS2.c:721:5
	ldr	r1, [sp, #4]
	.loc	4 721 12                        @ C:/Users/aj4775/AppData/Local/arm/packs/Keil/V2M-MPS2_IOTKit_BSP/1.5.2/CMSIS/Driver/USART_V2M-MPS2.c:721:12
	ldr.w	r12, [r1, #24]
	.loc	4 721 18                        @ C:/Users/aj4775/AppData/Local/arm/packs/Keil/V2M-MPS2_IOTKit_BSP/1.5.2/CMSIS/Driver/USART_V2M-MPS2.c:721:18
	ldr.w	r1, [r12, #8]
	.loc	4 721 44                        @ C:/Users/aj4775/AppData/Local/arm/packs/Keil/V2M-MPS2_IOTKit_BSP/1.5.2/CMSIS/Driver/USART_V2M-MPS2.c:721:44
	ldr.w	r2, [r12, #16]
	adds	r3, r2, #1
	str.w	r3, [r12, #16]
	.loc	4 721 48                        @ C:/Users/aj4775/AppData/Local/arm/packs/Keil/V2M-MPS2_IOTKit_BSP/1.5.2/CMSIS/Driver/USART_V2M-MPS2.c:721:48
	strb	r0, [r1, r2]
	.loc	4 721 5                         @ C:/Users/aj4775/AppData/Local/arm/packs/Keil/V2M-MPS2_IOTKit_BSP/1.5.2/CMSIS/Driver/USART_V2M-MPS2.c:721:5
	b	.LBB1_2
.Ltmp6:
.LBB1_2:
	.loc	4 723 7 is_stmt 1               @ C:/Users/aj4775/AppData/Local/arm/packs/Keil/V2M-MPS2_IOTKit_BSP/1.5.2/CMSIS/Driver/USART_V2M-MPS2.c:723:7
	ldr	r0, [sp, #4]
	.loc	4 723 14 is_stmt 0              @ C:/Users/aj4775/AppData/Local/arm/packs/Keil/V2M-MPS2_IOTKit_BSP/1.5.2/CMSIS/Driver/USART_V2M-MPS2.c:723:14
	ldr	r0, [r0, #24]
	.loc	4 723 43                        @ C:/Users/aj4775/AppData/Local/arm/packs/Keil/V2M-MPS2_IOTKit_BSP/1.5.2/CMSIS/Driver/USART_V2M-MPS2.c:723:43
	ldr	r1, [r0]
	.loc	4 723 20                        @ C:/Users/aj4775/AppData/Local/arm/packs/Keil/V2M-MPS2_IOTKit_BSP/1.5.2/CMSIS/Driver/USART_V2M-MPS2.c:723:20
	ldr	r0, [r0, #16]
.Ltmp7:
	.loc	4 723 7                         @ C:/Users/aj4775/AppData/Local/arm/packs/Keil/V2M-MPS2_IOTKit_BSP/1.5.2/CMSIS/Driver/USART_V2M-MPS2.c:723:7
	cmp	r0, r1
	blo	.LBB1_6
	b	.LBB1_3
.LBB1_3:
.Ltmp8:
	.loc	4 725 5 is_stmt 1               @ C:/Users/aj4775/AppData/Local/arm/packs/Keil/V2M-MPS2_IOTKit_BSP/1.5.2/CMSIS/Driver/USART_V2M-MPS2.c:725:5
	ldr	r0, [sp, #4]
	.loc	4 725 12 is_stmt 0              @ C:/Users/aj4775/AppData/Local/arm/packs/Keil/V2M-MPS2_IOTKit_BSP/1.5.2/CMSIS/Driver/USART_V2M-MPS2.c:725:12
	ldr	r1, [r0, #24]
	movs	r0, #0
	.loc	4 725 25                        @ C:/Users/aj4775/AppData/Local/arm/packs/Keil/V2M-MPS2_IOTKit_BSP/1.5.2/CMSIS/Driver/USART_V2M-MPS2.c:725:25
	str	r0, [r1]
	.loc	4 726 5 is_stmt 1               @ C:/Users/aj4775/AppData/Local/arm/packs/Keil/V2M-MPS2_IOTKit_BSP/1.5.2/CMSIS/Driver/USART_V2M-MPS2.c:726:5
	ldr	r1, [sp, #4]
	.loc	4 726 12 is_stmt 0              @ C:/Users/aj4775/AppData/Local/arm/packs/Keil/V2M-MPS2_IOTKit_BSP/1.5.2/CMSIS/Driver/USART_V2M-MPS2.c:726:12
	ldr	r1, [r1, #20]
	.loc	4 726 33                        @ C:/Users/aj4775/AppData/Local/arm/packs/Keil/V2M-MPS2_IOTKit_BSP/1.5.2/CMSIS/Driver/USART_V2M-MPS2.c:726:33
	strb	r0, [r1, #5]
	.loc	4 729 5 is_stmt 1               @ C:/Users/aj4775/AppData/Local/arm/packs/Keil/V2M-MPS2_IOTKit_BSP/1.5.2/CMSIS/Driver/USART_V2M-MPS2.c:729:5
	ldr	r0, [sp, #4]
	.loc	4 729 12 is_stmt 0              @ C:/Users/aj4775/AppData/Local/arm/packs/Keil/V2M-MPS2_IOTKit_BSP/1.5.2/CMSIS/Driver/USART_V2M-MPS2.c:729:12
	ldr	r1, [r0, #12]
	.loc	4 729 22                        @ C:/Users/aj4775/AppData/Local/arm/packs/Keil/V2M-MPS2_IOTKit_BSP/1.5.2/CMSIS/Driver/USART_V2M-MPS2.c:729:22
	ldr	r0, [r1, #8]
	bic	r0, r0, #8
	str	r0, [r1, #8]
.Ltmp9:
	.loc	4 732 9 is_stmt 1               @ C:/Users/aj4775/AppData/Local/arm/packs/Keil/V2M-MPS2_IOTKit_BSP/1.5.2/CMSIS/Driver/USART_V2M-MPS2.c:732:9
	ldr	r0, [sp, #4]
	.loc	4 732 16 is_stmt 0              @ C:/Users/aj4775/AppData/Local/arm/packs/Keil/V2M-MPS2_IOTKit_BSP/1.5.2/CMSIS/Driver/USART_V2M-MPS2.c:732:16
	ldr	r0, [r0, #20]
	.loc	4 732 22                        @ C:/Users/aj4775/AppData/Local/arm/packs/Keil/V2M-MPS2_IOTKit_BSP/1.5.2/CMSIS/Driver/USART_V2M-MPS2.c:732:22
	ldr	r0, [r0]
.Ltmp10:
	.loc	4 732 9                         @ C:/Users/aj4775/AppData/Local/arm/packs/Keil/V2M-MPS2_IOTKit_BSP/1.5.2/CMSIS/Driver/USART_V2M-MPS2.c:732:9
	cbz	r0, .LBB1_5
	b	.LBB1_4
.LBB1_4:
.Ltmp11:
	.loc	4 733 7 is_stmt 1               @ C:/Users/aj4775/AppData/Local/arm/packs/Keil/V2M-MPS2_IOTKit_BSP/1.5.2/CMSIS/Driver/USART_V2M-MPS2.c:733:7
	ldr	r0, [sp, #4]
	.loc	4 733 14 is_stmt 0              @ C:/Users/aj4775/AppData/Local/arm/packs/Keil/V2M-MPS2_IOTKit_BSP/1.5.2/CMSIS/Driver/USART_V2M-MPS2.c:733:14
	ldr	r0, [r0, #20]
	.loc	4 733 20                        @ C:/Users/aj4775/AppData/Local/arm/packs/Keil/V2M-MPS2_IOTKit_BSP/1.5.2/CMSIS/Driver/USART_V2M-MPS2.c:733:20
	ldr	r1, [r0]
	movs	r0, #2
	.loc	4 733 7                         @ C:/Users/aj4775/AppData/Local/arm/packs/Keil/V2M-MPS2_IOTKit_BSP/1.5.2/CMSIS/Driver/USART_V2M-MPS2.c:733:7
	blx	r1
	b	.LBB1_5
.Ltmp12:
.LBB1_5:
	.loc	4 734 3 is_stmt 1               @ C:/Users/aj4775/AppData/Local/arm/packs/Keil/V2M-MPS2_IOTKit_BSP/1.5.2/CMSIS/Driver/USART_V2M-MPS2.c:734:3
	b	.LBB1_6
.Ltmp13:
.LBB1_6:
	.loc	4 737 26                        @ C:/Users/aj4775/AppData/Local/arm/packs/Keil/V2M-MPS2_IOTKit_BSP/1.5.2/CMSIS/Driver/USART_V2M-MPS2.c:737:26
	ldr	r0, [sp]
	.loc	4 737 3 is_stmt 0               @ C:/Users/aj4775/AppData/Local/arm/packs/Keil/V2M-MPS2_IOTKit_BSP/1.5.2/CMSIS/Driver/USART_V2M-MPS2.c:737:3
	ldr	r1, [sp, #4]
	.loc	4 737 10                        @ C:/Users/aj4775/AppData/Local/arm/packs/Keil/V2M-MPS2_IOTKit_BSP/1.5.2/CMSIS/Driver/USART_V2M-MPS2.c:737:10
	ldr	r1, [r1, #12]
	.loc	4 737 24                        @ C:/Users/aj4775/AppData/Local/arm/packs/Keil/V2M-MPS2_IOTKit_BSP/1.5.2/CMSIS/Driver/USART_V2M-MPS2.c:737:24
	str	r0, [r1, #12]
	.loc	4 738 1 epilogue_begin is_stmt 1 @ C:/Users/aj4775/AppData/Local/arm/packs/Keil/V2M-MPS2_IOTKit_BSP/1.5.2/CMSIS/Driver/USART_V2M-MPS2.c:738:1
	add	sp, #8
	pop	{r7, pc}
.Ltmp14:
.Lfunc_end1:
	.size	USARTRX_IRQHandler, .Lfunc_end1-USARTRX_IRQHandler
	.cfi_endproc
	.cantunwind
	.fnend
                                        @ -- End function
	.section	.text.UART0TX_Handler,"ax",%progbits
	.hidden	UART0TX_Handler                 @ -- Begin function UART0TX_Handler
	.globl	UART0TX_Handler
	.p2align	2
	.type	UART0TX_Handler,%function
	.code	16                              @ @UART0TX_Handler
	.thumb_func
UART0TX_Handler:
.Lfunc_begin2:
	.loc	4 792 0                         @ C:/Users/aj4775/AppData/Local/arm/packs/Keil/V2M-MPS2_IOTKit_BSP/1.5.2/CMSIS/Driver/USART_V2M-MPS2.c:792:0
	.fnstart
	.cfi_startproc
@ %bb.0:
	.save	{r7, lr}
	push	{r7, lr}
	.cfi_def_cfa_offset 8
	.cfi_offset lr, -4
	.cfi_offset r7, -8
.Ltmp15:
	.loc	4 792 118 prologue_end          @ C:/Users/aj4775/AppData/Local/arm/packs/Keil/V2M-MPS2_IOTKit_BSP/1.5.2/CMSIS/Driver/USART_V2M-MPS2.c:792:118
	movw	r0, :lower16:USART0_Resources
	movt	r0, :upper16:USART0_Resources
	bl	USARTTX_IRQHandler
	.loc	4 792 158 epilogue_begin is_stmt 0 @ C:/Users/aj4775/AppData/Local/arm/packs/Keil/V2M-MPS2_IOTKit_BSP/1.5.2/CMSIS/Driver/USART_V2M-MPS2.c:792:158
	pop	{r7, pc}
.Ltmp16:
.Lfunc_end2:
	.size	UART0TX_Handler, .Lfunc_end2-UART0TX_Handler
	.cfi_endproc
	.cantunwind
	.fnend
                                        @ -- End function
	.section	.text.USARTTX_IRQHandler,"ax",%progbits
	.p2align	2                               @ -- Begin function USARTTX_IRQHandler
	.type	USARTTX_IRQHandler,%function
	.code	16                              @ @USARTTX_IRQHandler
	.thumb_func
USARTTX_IRQHandler:
.Lfunc_begin3:
	.loc	4 745 0 is_stmt 1               @ C:/Users/aj4775/AppData/Local/arm/packs/Keil/V2M-MPS2_IOTKit_BSP/1.5.2/CMSIS/Driver/USART_V2M-MPS2.c:745:0
	.fnstart
	.cfi_startproc
@ %bb.0:
	.save	{r7, lr}
	push	{r7, lr}
	.cfi_def_cfa_offset 8
	.cfi_offset lr, -4
	.cfi_offset r7, -8
	.pad	#8
	sub	sp, #8
	.cfi_def_cfa_offset 16
	str	r0, [sp, #4]
.Ltmp17:
	.loc	4 748 12 prologue_end           @ C:/Users/aj4775/AppData/Local/arm/packs/Keil/V2M-MPS2_IOTKit_BSP/1.5.2/CMSIS/Driver/USART_V2M-MPS2.c:748:12
	ldr	r0, [sp, #4]
	.loc	4 748 19 is_stmt 0              @ C:/Users/aj4775/AppData/Local/arm/packs/Keil/V2M-MPS2_IOTKit_BSP/1.5.2/CMSIS/Driver/USART_V2M-MPS2.c:748:19
	ldr	r0, [r0, #12]
	.loc	4 748 24                        @ C:/Users/aj4775/AppData/Local/arm/packs/Keil/V2M-MPS2_IOTKit_BSP/1.5.2/CMSIS/Driver/USART_V2M-MPS2.c:748:24
	ldr	r0, [r0, #12]
	.loc	4 748 10                        @ C:/Users/aj4775/AppData/Local/arm/packs/Keil/V2M-MPS2_IOTKit_BSP/1.5.2/CMSIS/Driver/USART_V2M-MPS2.c:748:10
	str	r0, [sp]
.Ltmp18:
	.loc	4 749 7 is_stmt 1               @ C:/Users/aj4775/AppData/Local/arm/packs/Keil/V2M-MPS2_IOTKit_BSP/1.5.2/CMSIS/Driver/USART_V2M-MPS2.c:749:7
	ldr	r0, [sp, #4]
	.loc	4 749 14 is_stmt 0              @ C:/Users/aj4775/AppData/Local/arm/packs/Keil/V2M-MPS2_IOTKit_BSP/1.5.2/CMSIS/Driver/USART_V2M-MPS2.c:749:14
	ldr	r0, [r0, #24]
	.loc	4 749 20                        @ C:/Users/aj4775/AppData/Local/arm/packs/Keil/V2M-MPS2_IOTKit_BSP/1.5.2/CMSIS/Driver/USART_V2M-MPS2.c:749:20
	ldr	r0, [r0, #4]
.Ltmp19:
	.loc	4 749 7                         @ C:/Users/aj4775/AppData/Local/arm/packs/Keil/V2M-MPS2_IOTKit_BSP/1.5.2/CMSIS/Driver/USART_V2M-MPS2.c:749:7
	cbz	r0, .LBB3_7
	b	.LBB3_1
.LBB3_1:
.Ltmp20:
	.loc	4 751 5 is_stmt 1               @ C:/Users/aj4775/AppData/Local/arm/packs/Keil/V2M-MPS2_IOTKit_BSP/1.5.2/CMSIS/Driver/USART_V2M-MPS2.c:751:5
	ldr	r0, [sp, #4]
	.loc	4 751 12 is_stmt 0              @ C:/Users/aj4775/AppData/Local/arm/packs/Keil/V2M-MPS2_IOTKit_BSP/1.5.2/CMSIS/Driver/USART_V2M-MPS2.c:751:12
	ldr	r1, [r0, #24]
	.loc	4 751 24                        @ C:/Users/aj4775/AppData/Local/arm/packs/Keil/V2M-MPS2_IOTKit_BSP/1.5.2/CMSIS/Driver/USART_V2M-MPS2.c:751:24
	ldr	r0, [r1, #20]
	adds	r0, #1
	str	r0, [r1, #20]
.Ltmp21:
	.loc	4 753 9 is_stmt 1               @ C:/Users/aj4775/AppData/Local/arm/packs/Keil/V2M-MPS2_IOTKit_BSP/1.5.2/CMSIS/Driver/USART_V2M-MPS2.c:753:9
	ldr	r0, [sp, #4]
	.loc	4 753 16 is_stmt 0              @ C:/Users/aj4775/AppData/Local/arm/packs/Keil/V2M-MPS2_IOTKit_BSP/1.5.2/CMSIS/Driver/USART_V2M-MPS2.c:753:16
	ldr	r0, [r0, #24]
	.loc	4 753 44                        @ C:/Users/aj4775/AppData/Local/arm/packs/Keil/V2M-MPS2_IOTKit_BSP/1.5.2/CMSIS/Driver/USART_V2M-MPS2.c:753:44
	ldr	r1, [r0, #4]
	.loc	4 753 22                        @ C:/Users/aj4775/AppData/Local/arm/packs/Keil/V2M-MPS2_IOTKit_BSP/1.5.2/CMSIS/Driver/USART_V2M-MPS2.c:753:22
	ldr	r0, [r0, #20]
.Ltmp22:
	.loc	4 753 9                         @ C:/Users/aj4775/AppData/Local/arm/packs/Keil/V2M-MPS2_IOTKit_BSP/1.5.2/CMSIS/Driver/USART_V2M-MPS2.c:753:9
	cmp	r0, r1
	bhs	.LBB3_3
	b	.LBB3_2
.LBB3_2:
.Ltmp23:
	.loc	4 755 26 is_stmt 1              @ C:/Users/aj4775/AppData/Local/arm/packs/Keil/V2M-MPS2_IOTKit_BSP/1.5.2/CMSIS/Driver/USART_V2M-MPS2.c:755:26
	ldr	r0, [sp, #4]
	.loc	4 755 14 is_stmt 0              @ C:/Users/aj4775/AppData/Local/arm/packs/Keil/V2M-MPS2_IOTKit_BSP/1.5.2/CMSIS/Driver/USART_V2M-MPS2.c:755:14
	ldr	r1, [r0, #12]
	.loc	4 755 33                        @ C:/Users/aj4775/AppData/Local/arm/packs/Keil/V2M-MPS2_IOTKit_BSP/1.5.2/CMSIS/Driver/USART_V2M-MPS2.c:755:33
	ldr	r2, [r0, #24]
	.loc	4 755 39                        @ C:/Users/aj4775/AppData/Local/arm/packs/Keil/V2M-MPS2_IOTKit_BSP/1.5.2/CMSIS/Driver/USART_V2M-MPS2.c:755:39
	ldr	r0, [r2, #12]
	.loc	4 755 59                        @ C:/Users/aj4775/AppData/Local/arm/packs/Keil/V2M-MPS2_IOTKit_BSP/1.5.2/CMSIS/Driver/USART_V2M-MPS2.c:755:59
	ldr	r2, [r2, #20]
	.loc	4 755 26                        @ C:/Users/aj4775/AppData/Local/arm/packs/Keil/V2M-MPS2_IOTKit_BSP/1.5.2/CMSIS/Driver/USART_V2M-MPS2.c:755:26
	ldrb	r0, [r0, r2]
	.loc	4 755 24                        @ C:/Users/aj4775/AppData/Local/arm/packs/Keil/V2M-MPS2_IOTKit_BSP/1.5.2/CMSIS/Driver/USART_V2M-MPS2.c:755:24
	str	r0, [r1]
	.loc	4 756 5 is_stmt 1               @ C:/Users/aj4775/AppData/Local/arm/packs/Keil/V2M-MPS2_IOTKit_BSP/1.5.2/CMSIS/Driver/USART_V2M-MPS2.c:756:5
	b	.LBB3_6
.Ltmp24:
.LBB3_3:
	.loc	4 758 7                         @ C:/Users/aj4775/AppData/Local/arm/packs/Keil/V2M-MPS2_IOTKit_BSP/1.5.2/CMSIS/Driver/USART_V2M-MPS2.c:758:7
	ldr	r0, [sp, #4]
	.loc	4 758 14 is_stmt 0              @ C:/Users/aj4775/AppData/Local/arm/packs/Keil/V2M-MPS2_IOTKit_BSP/1.5.2/CMSIS/Driver/USART_V2M-MPS2.c:758:14
	ldr	r1, [r0, #24]
	movs	r0, #0
	.loc	4 758 27                        @ C:/Users/aj4775/AppData/Local/arm/packs/Keil/V2M-MPS2_IOTKit_BSP/1.5.2/CMSIS/Driver/USART_V2M-MPS2.c:758:27
	str	r0, [r1, #4]
	.loc	4 759 7 is_stmt 1               @ C:/Users/aj4775/AppData/Local/arm/packs/Keil/V2M-MPS2_IOTKit_BSP/1.5.2/CMSIS/Driver/USART_V2M-MPS2.c:759:7
	ldr	r1, [sp, #4]
	.loc	4 759 14 is_stmt 0              @ C:/Users/aj4775/AppData/Local/arm/packs/Keil/V2M-MPS2_IOTKit_BSP/1.5.2/CMSIS/Driver/USART_V2M-MPS2.c:759:14
	ldr	r1, [r1, #20]
	.loc	4 759 35                        @ C:/Users/aj4775/AppData/Local/arm/packs/Keil/V2M-MPS2_IOTKit_BSP/1.5.2/CMSIS/Driver/USART_V2M-MPS2.c:759:35
	strb	r0, [r1, #4]
	.loc	4 762 7 is_stmt 1               @ C:/Users/aj4775/AppData/Local/arm/packs/Keil/V2M-MPS2_IOTKit_BSP/1.5.2/CMSIS/Driver/USART_V2M-MPS2.c:762:7
	ldr	r0, [sp, #4]
	.loc	4 762 14 is_stmt 0              @ C:/Users/aj4775/AppData/Local/arm/packs/Keil/V2M-MPS2_IOTKit_BSP/1.5.2/CMSIS/Driver/USART_V2M-MPS2.c:762:14
	ldr	r1, [r0, #12]
	.loc	4 762 24                        @ C:/Users/aj4775/AppData/Local/arm/packs/Keil/V2M-MPS2_IOTKit_BSP/1.5.2/CMSIS/Driver/USART_V2M-MPS2.c:762:24
	ldr	r0, [r1, #8]
	bic	r0, r0, #4
	str	r0, [r1, #8]
.Ltmp25:
	.loc	4 765 11 is_stmt 1              @ C:/Users/aj4775/AppData/Local/arm/packs/Keil/V2M-MPS2_IOTKit_BSP/1.5.2/CMSIS/Driver/USART_V2M-MPS2.c:765:11
	ldr	r0, [sp, #4]
	.loc	4 765 18 is_stmt 0              @ C:/Users/aj4775/AppData/Local/arm/packs/Keil/V2M-MPS2_IOTKit_BSP/1.5.2/CMSIS/Driver/USART_V2M-MPS2.c:765:18
	ldr	r0, [r0, #20]
	.loc	4 765 24                        @ C:/Users/aj4775/AppData/Local/arm/packs/Keil/V2M-MPS2_IOTKit_BSP/1.5.2/CMSIS/Driver/USART_V2M-MPS2.c:765:24
	ldr	r0, [r0]
.Ltmp26:
	.loc	4 765 11                        @ C:/Users/aj4775/AppData/Local/arm/packs/Keil/V2M-MPS2_IOTKit_BSP/1.5.2/CMSIS/Driver/USART_V2M-MPS2.c:765:11
	cbz	r0, .LBB3_5
	b	.LBB3_4
.LBB3_4:
.Ltmp27:
	.loc	4 766 9 is_stmt 1               @ C:/Users/aj4775/AppData/Local/arm/packs/Keil/V2M-MPS2_IOTKit_BSP/1.5.2/CMSIS/Driver/USART_V2M-MPS2.c:766:9
	ldr	r0, [sp, #4]
	.loc	4 766 16 is_stmt 0              @ C:/Users/aj4775/AppData/Local/arm/packs/Keil/V2M-MPS2_IOTKit_BSP/1.5.2/CMSIS/Driver/USART_V2M-MPS2.c:766:16
	ldr	r0, [r0, #20]
	.loc	4 766 22                        @ C:/Users/aj4775/AppData/Local/arm/packs/Keil/V2M-MPS2_IOTKit_BSP/1.5.2/CMSIS/Driver/USART_V2M-MPS2.c:766:22
	ldr	r1, [r0]
	movs	r0, #1
	.loc	4 766 9                         @ C:/Users/aj4775/AppData/Local/arm/packs/Keil/V2M-MPS2_IOTKit_BSP/1.5.2/CMSIS/Driver/USART_V2M-MPS2.c:766:9
	blx	r1
	b	.LBB3_5
.Ltmp28:
.LBB3_5:
	.loc	4 0 9                           @ C:/Users/aj4775/AppData/Local/arm/packs/Keil/V2M-MPS2_IOTKit_BSP/1.5.2/CMSIS/Driver/USART_V2M-MPS2.c:0:9
	b	.LBB3_6
.LBB3_6:
	.loc	4 768 3 is_stmt 1               @ C:/Users/aj4775/AppData/Local/arm/packs/Keil/V2M-MPS2_IOTKit_BSP/1.5.2/CMSIS/Driver/USART_V2M-MPS2.c:768:3
	b	.LBB3_7
.Ltmp29:
.LBB3_7:
	.loc	4 771 26                        @ C:/Users/aj4775/AppData/Local/arm/packs/Keil/V2M-MPS2_IOTKit_BSP/1.5.2/CMSIS/Driver/USART_V2M-MPS2.c:771:26
	ldr	r0, [sp]
	.loc	4 771 3 is_stmt 0               @ C:/Users/aj4775/AppData/Local/arm/packs/Keil/V2M-MPS2_IOTKit_BSP/1.5.2/CMSIS/Driver/USART_V2M-MPS2.c:771:3
	ldr	r1, [sp, #4]
	.loc	4 771 10                        @ C:/Users/aj4775/AppData/Local/arm/packs/Keil/V2M-MPS2_IOTKit_BSP/1.5.2/CMSIS/Driver/USART_V2M-MPS2.c:771:10
	ldr	r1, [r1, #12]
	.loc	4 771 24                        @ C:/Users/aj4775/AppData/Local/arm/packs/Keil/V2M-MPS2_IOTKit_BSP/1.5.2/CMSIS/Driver/USART_V2M-MPS2.c:771:24
	str	r0, [r1, #12]
	.loc	4 772 1 epilogue_begin is_stmt 1 @ C:/Users/aj4775/AppData/Local/arm/packs/Keil/V2M-MPS2_IOTKit_BSP/1.5.2/CMSIS/Driver/USART_V2M-MPS2.c:772:1
	add	sp, #8
	pop	{r7, pc}
.Ltmp30:
.Lfunc_end3:
	.size	USARTTX_IRQHandler, .Lfunc_end3-USARTTX_IRQHandler
	.cfi_endproc
	.cantunwind
	.fnend
                                        @ -- End function
	.section	.text.USARTx_GetVersion,"ax",%progbits
	.p2align	2                               @ -- Begin function USARTx_GetVersion
	.type	USARTx_GetVersion,%function
	.code	16                              @ @USARTx_GetVersion
	.thumb_func
USARTx_GetVersion:
.Lfunc_begin4:
	.loc	4 295 0                         @ C:/Users/aj4775/AppData/Local/arm/packs/Keil/V2M-MPS2_IOTKit_BSP/1.5.2/CMSIS/Driver/USART_V2M-MPS2.c:295:0
	.fnstart
	.cfi_startproc
@ %bb.0:
	.pad	#4
	sub	sp, #4
	.cfi_def_cfa_offset 4
	movw	r0, #516
	movt	r0, #256
.Ltmp31:
	.loc	4 296 10 prologue_end           @ C:/Users/aj4775/AppData/Local/arm/packs/Keil/V2M-MPS2_IOTKit_BSP/1.5.2/CMSIS/Driver/USART_V2M-MPS2.c:296:10
	str	r0, [sp]
	.loc	4 296 3 is_stmt 0               @ C:/Users/aj4775/AppData/Local/arm/packs/Keil/V2M-MPS2_IOTKit_BSP/1.5.2/CMSIS/Driver/USART_V2M-MPS2.c:296:3
	ldr	r0, [sp]
	.loc	4 296 3 epilogue_begin          @ C:/Users/aj4775/AppData/Local/arm/packs/Keil/V2M-MPS2_IOTKit_BSP/1.5.2/CMSIS/Driver/USART_V2M-MPS2.c:296:3
	add	sp, #4
	bx	lr
.Ltmp32:
.Lfunc_end4:
	.size	USARTx_GetVersion, .Lfunc_end4-USARTx_GetVersion
	.cfi_endproc
	.cantunwind
	.fnend
                                        @ -- End function
	.section	.text.USART0_GetCapabilities,"ax",%progbits
	.p2align	2                               @ -- Begin function USART0_GetCapabilities
	.type	USART0_GetCapabilities,%function
	.code	16                              @ @USART0_GetCapabilities
	.thumb_func
USART0_GetCapabilities:
.Lfunc_begin5:
	.loc	4 778 0 is_stmt 1               @ C:/Users/aj4775/AppData/Local/arm/packs/Keil/V2M-MPS2_IOTKit_BSP/1.5.2/CMSIS/Driver/USART_V2M-MPS2.c:778:0
	.fnstart
	.cfi_startproc
@ %bb.0:
	.save	{r7, lr}
	push	{r7, lr}
	.cfi_def_cfa_offset 8
	.cfi_offset lr, -4
	.cfi_offset r7, -8
	.pad	#8
	sub	sp, #8
	.cfi_def_cfa_offset 16
.Ltmp33:
	.loc	4 778 118 prologue_end          @ C:/Users/aj4775/AppData/Local/arm/packs/Keil/V2M-MPS2_IOTKit_BSP/1.5.2/CMSIS/Driver/USART_V2M-MPS2.c:778:118
	movw	r0, :lower16:USART0_Resources
	movt	r0, :upper16:USART0_Resources
	bl	USART_GetCapabilities
	str	r0, [sp, #4]
	.loc	4 778 111 is_stmt 0             @ C:/Users/aj4775/AppData/Local/arm/packs/Keil/V2M-MPS2_IOTKit_BSP/1.5.2/CMSIS/Driver/USART_V2M-MPS2.c:778:111
	ldr	r0, [sp, #4]
	.loc	4 778 111 epilogue_begin        @ C:/Users/aj4775/AppData/Local/arm/packs/Keil/V2M-MPS2_IOTKit_BSP/1.5.2/CMSIS/Driver/USART_V2M-MPS2.c:778:111
	add	sp, #8
	pop	{r7, pc}
.Ltmp34:
.Lfunc_end5:
	.size	USART0_GetCapabilities, .Lfunc_end5-USART0_GetCapabilities
	.cfi_endproc
	.cantunwind
	.fnend
                                        @ -- End function
	.section	.text.USART0_Initialize,"ax",%progbits
	.p2align	2                               @ -- Begin function USART0_Initialize
	.type	USART0_Initialize,%function
	.code	16                              @ @USART0_Initialize
	.thumb_func
USART0_Initialize:
.Lfunc_begin6:
	.loc	4 779 0 is_stmt 1               @ C:/Users/aj4775/AppData/Local/arm/packs/Keil/V2M-MPS2_IOTKit_BSP/1.5.2/CMSIS/Driver/USART_V2M-MPS2.c:779:0
	.fnstart
	.cfi_startproc
@ %bb.0:
	.save	{r7, lr}
	push	{r7, lr}
	.cfi_def_cfa_offset 8
	.cfi_offset lr, -4
	.cfi_offset r7, -8
	.pad	#8
	sub	sp, #8
	.cfi_def_cfa_offset 16
	str	r0, [sp, #4]
.Ltmp35:
	.loc	4 779 136 prologue_end          @ C:/Users/aj4775/AppData/Local/arm/packs/Keil/V2M-MPS2_IOTKit_BSP/1.5.2/CMSIS/Driver/USART_V2M-MPS2.c:779:136
	ldr	r0, [sp, #4]
	.loc	4 779 118 is_stmt 0             @ C:/Users/aj4775/AppData/Local/arm/packs/Keil/V2M-MPS2_IOTKit_BSP/1.5.2/CMSIS/Driver/USART_V2M-MPS2.c:779:118
	movw	r1, :lower16:USART0_Resources
	movt	r1, :upper16:USART0_Resources
	bl	USART_Initialize
	.loc	4 779 111 epilogue_begin        @ C:/Users/aj4775/AppData/Local/arm/packs/Keil/V2M-MPS2_IOTKit_BSP/1.5.2/CMSIS/Driver/USART_V2M-MPS2.c:779:111
	add	sp, #8
	pop	{r7, pc}
.Ltmp36:
.Lfunc_end6:
	.size	USART0_Initialize, .Lfunc_end6-USART0_Initialize
	.cfi_endproc
	.cantunwind
	.fnend
                                        @ -- End function
	.section	.text.USART0_Uninitialize,"ax",%progbits
	.p2align	2                               @ -- Begin function USART0_Uninitialize
	.type	USART0_Uninitialize,%function
	.code	16                              @ @USART0_Uninitialize
	.thumb_func
USART0_Uninitialize:
.Lfunc_begin7:
	.loc	4 780 0 is_stmt 1               @ C:/Users/aj4775/AppData/Local/arm/packs/Keil/V2M-MPS2_IOTKit_BSP/1.5.2/CMSIS/Driver/USART_V2M-MPS2.c:780:0
	.fnstart
	.cfi_startproc
@ %bb.0:
	.save	{r7, lr}
	push	{r7, lr}
	.cfi_def_cfa_offset 8
	.cfi_offset lr, -4
	.cfi_offset r7, -8
.Ltmp37:
	.loc	4 780 118 prologue_end          @ C:/Users/aj4775/AppData/Local/arm/packs/Keil/V2M-MPS2_IOTKit_BSP/1.5.2/CMSIS/Driver/USART_V2M-MPS2.c:780:118
	movw	r0, :lower16:USART0_Resources
	movt	r0, :upper16:USART0_Resources
	bl	USART_Uninitialize
	.loc	4 780 111 epilogue_begin is_stmt 0 @ C:/Users/aj4775/AppData/Local/arm/packs/Keil/V2M-MPS2_IOTKit_BSP/1.5.2/CMSIS/Driver/USART_V2M-MPS2.c:780:111
	pop	{r7, pc}
.Ltmp38:
.Lfunc_end7:
	.size	USART0_Uninitialize, .Lfunc_end7-USART0_Uninitialize
	.cfi_endproc
	.cantunwind
	.fnend
                                        @ -- End function
	.section	.text.USART0_PowerControl,"ax",%progbits
	.p2align	2                               @ -- Begin function USART0_PowerControl
	.type	USART0_PowerControl,%function
	.code	16                              @ @USART0_PowerControl
	.thumb_func
USART0_PowerControl:
.Lfunc_begin8:
	.loc	4 781 0 is_stmt 1               @ C:/Users/aj4775/AppData/Local/arm/packs/Keil/V2M-MPS2_IOTKit_BSP/1.5.2/CMSIS/Driver/USART_V2M-MPS2.c:781:0
	.fnstart
	.cfi_startproc
@ %bb.0:
	.save	{r7, lr}
	push	{r7, lr}
	.cfi_def_cfa_offset 8
	.cfi_offset lr, -4
	.cfi_offset r7, -8
	.pad	#8
	sub	sp, #8
	.cfi_def_cfa_offset 16
                                        @ kill: def $r1 killed $r0
	strb.w	r0, [sp, #7]
.Ltmp39:
	.loc	4 781 138 prologue_end          @ C:/Users/aj4775/AppData/Local/arm/packs/Keil/V2M-MPS2_IOTKit_BSP/1.5.2/CMSIS/Driver/USART_V2M-MPS2.c:781:138
	ldrb.w	r0, [sp, #7]
	.loc	4 781 118 is_stmt 0             @ C:/Users/aj4775/AppData/Local/arm/packs/Keil/V2M-MPS2_IOTKit_BSP/1.5.2/CMSIS/Driver/USART_V2M-MPS2.c:781:118
	movw	r1, :lower16:USART0_Resources
	movt	r1, :upper16:USART0_Resources
	bl	USART_PowerControl
	.loc	4 781 111 epilogue_begin        @ C:/Users/aj4775/AppData/Local/arm/packs/Keil/V2M-MPS2_IOTKit_BSP/1.5.2/CMSIS/Driver/USART_V2M-MPS2.c:781:111
	add	sp, #8
	pop	{r7, pc}
.Ltmp40:
.Lfunc_end8:
	.size	USART0_PowerControl, .Lfunc_end8-USART0_PowerControl
	.cfi_endproc
	.cantunwind
	.fnend
                                        @ -- End function
	.section	.text.USART0_Send,"ax",%progbits
	.p2align	2                               @ -- Begin function USART0_Send
	.type	USART0_Send,%function
	.code	16                              @ @USART0_Send
	.thumb_func
USART0_Send:
.Lfunc_begin9:
	.loc	4 782 0 is_stmt 1               @ C:/Users/aj4775/AppData/Local/arm/packs/Keil/V2M-MPS2_IOTKit_BSP/1.5.2/CMSIS/Driver/USART_V2M-MPS2.c:782:0
	.fnstart
	.cfi_startproc
@ %bb.0:
	.save	{r7, lr}
	push	{r7, lr}
	.cfi_def_cfa_offset 8
	.cfi_offset lr, -4
	.cfi_offset r7, -8
	.pad	#8
	sub	sp, #8
	.cfi_def_cfa_offset 16
	str	r0, [sp, #4]
	str	r1, [sp]
.Ltmp41:
	.loc	4 782 130 prologue_end          @ C:/Users/aj4775/AppData/Local/arm/packs/Keil/V2M-MPS2_IOTKit_BSP/1.5.2/CMSIS/Driver/USART_V2M-MPS2.c:782:130
	ldr	r0, [sp, #4]
	.loc	4 782 136 is_stmt 0             @ C:/Users/aj4775/AppData/Local/arm/packs/Keil/V2M-MPS2_IOTKit_BSP/1.5.2/CMSIS/Driver/USART_V2M-MPS2.c:782:136
	ldr	r1, [sp]
	.loc	4 782 118                       @ C:/Users/aj4775/AppData/Local/arm/packs/Keil/V2M-MPS2_IOTKit_BSP/1.5.2/CMSIS/Driver/USART_V2M-MPS2.c:782:118
	movw	r2, :lower16:USART0_Resources
	movt	r2, :upper16:USART0_Resources
	bl	USART_Send
	.loc	4 782 111 epilogue_begin        @ C:/Users/aj4775/AppData/Local/arm/packs/Keil/V2M-MPS2_IOTKit_BSP/1.5.2/CMSIS/Driver/USART_V2M-MPS2.c:782:111
	add	sp, #8
	pop	{r7, pc}
.Ltmp42:
.Lfunc_end9:
	.size	USART0_Send, .Lfunc_end9-USART0_Send
	.cfi_endproc
	.cantunwind
	.fnend
                                        @ -- End function
	.section	.text.USART0_Receive,"ax",%progbits
	.p2align	2                               @ -- Begin function USART0_Receive
	.type	USART0_Receive,%function
	.code	16                              @ @USART0_Receive
	.thumb_func
USART0_Receive:
.Lfunc_begin10:
	.loc	4 783 0 is_stmt 1               @ C:/Users/aj4775/AppData/Local/arm/packs/Keil/V2M-MPS2_IOTKit_BSP/1.5.2/CMSIS/Driver/USART_V2M-MPS2.c:783:0
	.fnstart
	.cfi_startproc
@ %bb.0:
	.save	{r7, lr}
	push	{r7, lr}
	.cfi_def_cfa_offset 8
	.cfi_offset lr, -4
	.cfi_offset r7, -8
	.pad	#8
	sub	sp, #8
	.cfi_def_cfa_offset 16
	str	r0, [sp, #4]
	str	r1, [sp]
.Ltmp43:
	.loc	4 783 133 prologue_end          @ C:/Users/aj4775/AppData/Local/arm/packs/Keil/V2M-MPS2_IOTKit_BSP/1.5.2/CMSIS/Driver/USART_V2M-MPS2.c:783:133
	ldr	r0, [sp, #4]
	.loc	4 783 139 is_stmt 0             @ C:/Users/aj4775/AppData/Local/arm/packs/Keil/V2M-MPS2_IOTKit_BSP/1.5.2/CMSIS/Driver/USART_V2M-MPS2.c:783:139
	ldr	r1, [sp]
	.loc	4 783 118                       @ C:/Users/aj4775/AppData/Local/arm/packs/Keil/V2M-MPS2_IOTKit_BSP/1.5.2/CMSIS/Driver/USART_V2M-MPS2.c:783:118
	movw	r2, :lower16:USART0_Resources
	movt	r2, :upper16:USART0_Resources
	bl	USART_Receive
	.loc	4 783 111 epilogue_begin        @ C:/Users/aj4775/AppData/Local/arm/packs/Keil/V2M-MPS2_IOTKit_BSP/1.5.2/CMSIS/Driver/USART_V2M-MPS2.c:783:111
	add	sp, #8
	pop	{r7, pc}
.Ltmp44:
.Lfunc_end10:
	.size	USART0_Receive, .Lfunc_end10-USART0_Receive
	.cfi_endproc
	.cantunwind
	.fnend
                                        @ -- End function
	.section	.text.USART0_Transfer,"ax",%progbits
	.p2align	2                               @ -- Begin function USART0_Transfer
	.type	USART0_Transfer,%function
	.code	16                              @ @USART0_Transfer
	.thumb_func
USART0_Transfer:
.Lfunc_begin11:
	.loc	4 784 0 is_stmt 1               @ C:/Users/aj4775/AppData/Local/arm/packs/Keil/V2M-MPS2_IOTKit_BSP/1.5.2/CMSIS/Driver/USART_V2M-MPS2.c:784:0
	.fnstart
	.cfi_startproc
@ %bb.0:
	.save	{r7, lr}
	push	{r7, lr}
	.cfi_def_cfa_offset 8
	.cfi_offset lr, -4
	.cfi_offset r7, -8
	.pad	#16
	sub	sp, #16
	.cfi_def_cfa_offset 24
	str	r0, [sp, #12]
	str	r1, [sp, #8]
	str	r2, [sp, #4]
.Ltmp45:
	.loc	4 784 134 prologue_end          @ C:/Users/aj4775/AppData/Local/arm/packs/Keil/V2M-MPS2_IOTKit_BSP/1.5.2/CMSIS/Driver/USART_V2M-MPS2.c:784:134
	ldr	r0, [sp, #12]
	.loc	4 784 144 is_stmt 0             @ C:/Users/aj4775/AppData/Local/arm/packs/Keil/V2M-MPS2_IOTKit_BSP/1.5.2/CMSIS/Driver/USART_V2M-MPS2.c:784:144
	ldr	r1, [sp, #8]
	.loc	4 784 153                       @ C:/Users/aj4775/AppData/Local/arm/packs/Keil/V2M-MPS2_IOTKit_BSP/1.5.2/CMSIS/Driver/USART_V2M-MPS2.c:784:153
	ldr	r2, [sp, #4]
	.loc	4 784 118                       @ C:/Users/aj4775/AppData/Local/arm/packs/Keil/V2M-MPS2_IOTKit_BSP/1.5.2/CMSIS/Driver/USART_V2M-MPS2.c:784:118
	movw	r3, :lower16:USART0_Resources
	movt	r3, :upper16:USART0_Resources
	bl	USART_Transfer
	.loc	4 784 111 epilogue_begin        @ C:/Users/aj4775/AppData/Local/arm/packs/Keil/V2M-MPS2_IOTKit_BSP/1.5.2/CMSIS/Driver/USART_V2M-MPS2.c:784:111
	add	sp, #16
	pop	{r7, pc}
.Ltmp46:
.Lfunc_end11:
	.size	USART0_Transfer, .Lfunc_end11-USART0_Transfer
	.cfi_endproc
	.cantunwind
	.fnend
                                        @ -- End function
	.section	.text.USART0_GetTxCount,"ax",%progbits
	.p2align	2                               @ -- Begin function USART0_GetTxCount
	.type	USART0_GetTxCount,%function
	.code	16                              @ @USART0_GetTxCount
	.thumb_func
USART0_GetTxCount:
.Lfunc_begin12:
	.loc	4 785 0 is_stmt 1               @ C:/Users/aj4775/AppData/Local/arm/packs/Keil/V2M-MPS2_IOTKit_BSP/1.5.2/CMSIS/Driver/USART_V2M-MPS2.c:785:0
	.fnstart
	.cfi_startproc
@ %bb.0:
	.save	{r7, lr}
	push	{r7, lr}
	.cfi_def_cfa_offset 8
	.cfi_offset lr, -4
	.cfi_offset r7, -8
.Ltmp47:
	.loc	4 785 118 prologue_end          @ C:/Users/aj4775/AppData/Local/arm/packs/Keil/V2M-MPS2_IOTKit_BSP/1.5.2/CMSIS/Driver/USART_V2M-MPS2.c:785:118
	movw	r0, :lower16:USART0_Resources
	movt	r0, :upper16:USART0_Resources
	bl	USART_GetTxCount
	.loc	4 785 111 epilogue_begin is_stmt 0 @ C:/Users/aj4775/AppData/Local/arm/packs/Keil/V2M-MPS2_IOTKit_BSP/1.5.2/CMSIS/Driver/USART_V2M-MPS2.c:785:111
	pop	{r7, pc}
.Ltmp48:
.Lfunc_end12:
	.size	USART0_GetTxCount, .Lfunc_end12-USART0_GetTxCount
	.cfi_endproc
	.cantunwind
	.fnend
                                        @ -- End function
	.section	.text.USART0_GetRxCount,"ax",%progbits
	.p2align	2                               @ -- Begin function USART0_GetRxCount
	.type	USART0_GetRxCount,%function
	.code	16                              @ @USART0_GetRxCount
	.thumb_func
USART0_GetRxCount:
.Lfunc_begin13:
	.loc	4 786 0 is_stmt 1               @ C:/Users/aj4775/AppData/Local/arm/packs/Keil/V2M-MPS2_IOTKit_BSP/1.5.2/CMSIS/Driver/USART_V2M-MPS2.c:786:0
	.fnstart
	.cfi_startproc
@ %bb.0:
	.save	{r7, lr}
	push	{r7, lr}
	.cfi_def_cfa_offset 8
	.cfi_offset lr, -4
	.cfi_offset r7, -8
.Ltmp49:
	.loc	4 786 118 prologue_end          @ C:/Users/aj4775/AppData/Local/arm/packs/Keil/V2M-MPS2_IOTKit_BSP/1.5.2/CMSIS/Driver/USART_V2M-MPS2.c:786:118
	movw	r0, :lower16:USART0_Resources
	movt	r0, :upper16:USART0_Resources
	bl	USART_GetRxCount
	.loc	4 786 111 epilogue_begin is_stmt 0 @ C:/Users/aj4775/AppData/Local/arm/packs/Keil/V2M-MPS2_IOTKit_BSP/1.5.2/CMSIS/Driver/USART_V2M-MPS2.c:786:111
	pop	{r7, pc}
.Ltmp50:
.Lfunc_end13:
	.size	USART0_GetRxCount, .Lfunc_end13-USART0_GetRxCount
	.cfi_endproc
	.cantunwind
	.fnend
                                        @ -- End function
	.section	.text.USART0_Control,"ax",%progbits
	.p2align	2                               @ -- Begin function USART0_Control
	.type	USART0_Control,%function
	.code	16                              @ @USART0_Control
	.thumb_func
USART0_Control:
.Lfunc_begin14:
	.loc	4 787 0 is_stmt 1               @ C:/Users/aj4775/AppData/Local/arm/packs/Keil/V2M-MPS2_IOTKit_BSP/1.5.2/CMSIS/Driver/USART_V2M-MPS2.c:787:0
	.fnstart
	.cfi_startproc
@ %bb.0:
	.save	{r7, lr}
	push	{r7, lr}
	.cfi_def_cfa_offset 8
	.cfi_offset lr, -4
	.cfi_offset r7, -8
	.pad	#8
	sub	sp, #8
	.cfi_def_cfa_offset 16
	str	r0, [sp, #4]
	str	r1, [sp]
.Ltmp51:
	.loc	4 787 133 prologue_end          @ C:/Users/aj4775/AppData/Local/arm/packs/Keil/V2M-MPS2_IOTKit_BSP/1.5.2/CMSIS/Driver/USART_V2M-MPS2.c:787:133
	ldr	r0, [sp, #4]
	.loc	4 787 142 is_stmt 0             @ C:/Users/aj4775/AppData/Local/arm/packs/Keil/V2M-MPS2_IOTKit_BSP/1.5.2/CMSIS/Driver/USART_V2M-MPS2.c:787:142
	ldr	r1, [sp]
	.loc	4 787 118                       @ C:/Users/aj4775/AppData/Local/arm/packs/Keil/V2M-MPS2_IOTKit_BSP/1.5.2/CMSIS/Driver/USART_V2M-MPS2.c:787:118
	movw	r2, :lower16:USART0_Resources
	movt	r2, :upper16:USART0_Resources
	bl	USART_Control
	.loc	4 787 111 epilogue_begin        @ C:/Users/aj4775/AppData/Local/arm/packs/Keil/V2M-MPS2_IOTKit_BSP/1.5.2/CMSIS/Driver/USART_V2M-MPS2.c:787:111
	add	sp, #8
	pop	{r7, pc}
.Ltmp52:
.Lfunc_end14:
	.size	USART0_Control, .Lfunc_end14-USART0_Control
	.cfi_endproc
	.cantunwind
	.fnend
                                        @ -- End function
	.section	.text.USART0_GetStatus,"ax",%progbits
	.p2align	2                               @ -- Begin function USART0_GetStatus
	.type	USART0_GetStatus,%function
	.code	16                              @ @USART0_GetStatus
	.thumb_func
USART0_GetStatus:
.Lfunc_begin15:
	.loc	4 788 0 is_stmt 1               @ C:/Users/aj4775/AppData/Local/arm/packs/Keil/V2M-MPS2_IOTKit_BSP/1.5.2/CMSIS/Driver/USART_V2M-MPS2.c:788:0
	.fnstart
	.cfi_startproc
@ %bb.0:
	.save	{r7, lr}
	push	{r7, lr}
	.cfi_def_cfa_offset 8
	.cfi_offset lr, -4
	.cfi_offset r7, -8
	.pad	#8
	sub	sp, #8
	.cfi_def_cfa_offset 16
.Ltmp53:
	.loc	4 788 118 prologue_end          @ C:/Users/aj4775/AppData/Local/arm/packs/Keil/V2M-MPS2_IOTKit_BSP/1.5.2/CMSIS/Driver/USART_V2M-MPS2.c:788:118
	movw	r0, :lower16:USART0_Resources
	movt	r0, :upper16:USART0_Resources
	bl	USART_GetStatus
	str	r0, [sp, #4]
	.loc	4 788 111 is_stmt 0             @ C:/Users/aj4775/AppData/Local/arm/packs/Keil/V2M-MPS2_IOTKit_BSP/1.5.2/CMSIS/Driver/USART_V2M-MPS2.c:788:111
	ldr	r0, [sp, #4]
	.loc	4 788 111 epilogue_begin        @ C:/Users/aj4775/AppData/Local/arm/packs/Keil/V2M-MPS2_IOTKit_BSP/1.5.2/CMSIS/Driver/USART_V2M-MPS2.c:788:111
	add	sp, #8
	pop	{r7, pc}
.Ltmp54:
.Lfunc_end15:
	.size	USART0_GetStatus, .Lfunc_end15-USART0_GetStatus
	.cfi_endproc
	.cantunwind
	.fnend
                                        @ -- End function
	.section	.text.USART0_SetModemControl,"ax",%progbits
	.p2align	2                               @ -- Begin function USART0_SetModemControl
	.type	USART0_SetModemControl,%function
	.code	16                              @ @USART0_SetModemControl
	.thumb_func
USART0_SetModemControl:
.Lfunc_begin16:
	.loc	4 789 0 is_stmt 1               @ C:/Users/aj4775/AppData/Local/arm/packs/Keil/V2M-MPS2_IOTKit_BSP/1.5.2/CMSIS/Driver/USART_V2M-MPS2.c:789:0
	.fnstart
	.cfi_startproc
@ %bb.0:
	.save	{r7, lr}
	push	{r7, lr}
	.cfi_def_cfa_offset 8
	.cfi_offset lr, -4
	.cfi_offset r7, -8
	.pad	#8
	sub	sp, #8
	.cfi_def_cfa_offset 16
                                        @ kill: def $r1 killed $r0
	strb.w	r0, [sp, #7]
.Ltmp55:
	.loc	4 789 141 prologue_end          @ C:/Users/aj4775/AppData/Local/arm/packs/Keil/V2M-MPS2_IOTKit_BSP/1.5.2/CMSIS/Driver/USART_V2M-MPS2.c:789:141
	ldrb.w	r0, [sp, #7]
	.loc	4 789 118 is_stmt 0             @ C:/Users/aj4775/AppData/Local/arm/packs/Keil/V2M-MPS2_IOTKit_BSP/1.5.2/CMSIS/Driver/USART_V2M-MPS2.c:789:118
	movw	r1, :lower16:USART0_Resources
	movt	r1, :upper16:USART0_Resources
	bl	USART_SetModemControl
	.loc	4 789 111 epilogue_begin        @ C:/Users/aj4775/AppData/Local/arm/packs/Keil/V2M-MPS2_IOTKit_BSP/1.5.2/CMSIS/Driver/USART_V2M-MPS2.c:789:111
	add	sp, #8
	pop	{r7, pc}
.Ltmp56:
.Lfunc_end16:
	.size	USART0_SetModemControl, .Lfunc_end16-USART0_SetModemControl
	.cfi_endproc
	.cantunwind
	.fnend
                                        @ -- End function
	.section	.text.USART0_GetModemStatus,"ax",%progbits
	.p2align	2                               @ -- Begin function USART0_GetModemStatus
	.type	USART0_GetModemStatus,%function
	.code	16                              @ @USART0_GetModemStatus
	.thumb_func
USART0_GetModemStatus:
.Lfunc_begin17:
	.loc	4 790 0 is_stmt 1               @ C:/Users/aj4775/AppData/Local/arm/packs/Keil/V2M-MPS2_IOTKit_BSP/1.5.2/CMSIS/Driver/USART_V2M-MPS2.c:790:0
	.fnstart
	.cfi_startproc
@ %bb.0:
	.save	{r7, lr}
	push	{r7, lr}
	.cfi_def_cfa_offset 8
	.cfi_offset lr, -4
	.cfi_offset r7, -8
	.pad	#8
	sub	sp, #8
	.cfi_def_cfa_offset 16
.Ltmp57:
	.loc	4 790 118 prologue_end          @ C:/Users/aj4775/AppData/Local/arm/packs/Keil/V2M-MPS2_IOTKit_BSP/1.5.2/CMSIS/Driver/USART_V2M-MPS2.c:790:118
	movw	r0, :lower16:USART0_Resources
	movt	r0, :upper16:USART0_Resources
	bl	USART_GetModemStatus
	str	r0, [sp, #4]
	.loc	4 790 111 is_stmt 0             @ C:/Users/aj4775/AppData/Local/arm/packs/Keil/V2M-MPS2_IOTKit_BSP/1.5.2/CMSIS/Driver/USART_V2M-MPS2.c:790:111
	ldr	r0, [sp, #4]
	.loc	4 790 111 epilogue_begin        @ C:/Users/aj4775/AppData/Local/arm/packs/Keil/V2M-MPS2_IOTKit_BSP/1.5.2/CMSIS/Driver/USART_V2M-MPS2.c:790:111
	add	sp, #8
	pop	{r7, pc}
.Ltmp58:
.Lfunc_end17:
	.size	USART0_GetModemStatus, .Lfunc_end17-USART0_GetModemStatus
	.cfi_endproc
	.cantunwind
	.fnend
                                        @ -- End function
	.section	.text.USART_GetCapabilities,"ax",%progbits
	.p2align	2                               @ -- Begin function USART_GetCapabilities
	.type	USART_GetCapabilities,%function
	.code	16                              @ @USART_GetCapabilities
	.thumb_func
USART_GetCapabilities:
.Lfunc_begin18:
	.loc	4 305 0 is_stmt 1               @ C:/Users/aj4775/AppData/Local/arm/packs/Keil/V2M-MPS2_IOTKit_BSP/1.5.2/CMSIS/Driver/USART_V2M-MPS2.c:305:0
	.fnstart
	.cfi_startproc
@ %bb.0:
	.pad	#8
	sub	sp, #8
	.cfi_def_cfa_offset 8
	str	r0, [sp]
.Ltmp59:
	.loc	4 306 10 prologue_end           @ C:/Users/aj4775/AppData/Local/arm/packs/Keil/V2M-MPS2_IOTKit_BSP/1.5.2/CMSIS/Driver/USART_V2M-MPS2.c:306:10
	ldr	r0, [sp]
	.loc	4 306 17 is_stmt 0              @ C:/Users/aj4775/AppData/Local/arm/packs/Keil/V2M-MPS2_IOTKit_BSP/1.5.2/CMSIS/Driver/USART_V2M-MPS2.c:306:17
	ldr	r0, [r0]
	str	r0, [sp, #4]
	.loc	4 306 3                         @ C:/Users/aj4775/AppData/Local/arm/packs/Keil/V2M-MPS2_IOTKit_BSP/1.5.2/CMSIS/Driver/USART_V2M-MPS2.c:306:3
	ldr	r0, [sp, #4]
	.loc	4 306 3 epilogue_begin          @ C:/Users/aj4775/AppData/Local/arm/packs/Keil/V2M-MPS2_IOTKit_BSP/1.5.2/CMSIS/Driver/USART_V2M-MPS2.c:306:3
	add	sp, #8
	bx	lr
.Ltmp60:
.Lfunc_end18:
	.size	USART_GetCapabilities, .Lfunc_end18-USART_GetCapabilities
	.cfi_endproc
	.cantunwind
	.fnend
                                        @ -- End function
	.section	.text.USART_Initialize,"ax",%progbits
	.p2align	2                               @ -- Begin function USART_Initialize
	.type	USART_Initialize,%function
	.code	16                              @ @USART_Initialize
	.thumb_func
USART_Initialize:
.Lfunc_begin19:
	.loc	4 318 0 is_stmt 1               @ C:/Users/aj4775/AppData/Local/arm/packs/Keil/V2M-MPS2_IOTKit_BSP/1.5.2/CMSIS/Driver/USART_V2M-MPS2.c:318:0
	.fnstart
	.cfi_startproc
@ %bb.0:
	.pad	#12
	sub	sp, #12
	.cfi_def_cfa_offset 12
	str	r0, [sp, #4]
	str	r1, [sp]
.Ltmp61:
	.loc	4 320 7 prologue_end            @ C:/Users/aj4775/AppData/Local/arm/packs/Keil/V2M-MPS2_IOTKit_BSP/1.5.2/CMSIS/Driver/USART_V2M-MPS2.c:320:7
	ldr	r0, [sp]
	.loc	4 320 14 is_stmt 0              @ C:/Users/aj4775/AppData/Local/arm/packs/Keil/V2M-MPS2_IOTKit_BSP/1.5.2/CMSIS/Driver/USART_V2M-MPS2.c:320:14
	ldr	r0, [r0, #20]
	.loc	4 320 7                         @ C:/Users/aj4775/AppData/Local/arm/packs/Keil/V2M-MPS2_IOTKit_BSP/1.5.2/CMSIS/Driver/USART_V2M-MPS2.c:320:7
	ldrb	r0, [r0, #7]
.Ltmp62:
	.loc	4 320 7                         @ C:/Users/aj4775/AppData/Local/arm/packs/Keil/V2M-MPS2_IOTKit_BSP/1.5.2/CMSIS/Driver/USART_V2M-MPS2.c:320:7
	lsls	r0, r0, #31
	cbz	r0, .LBB19_2
	b	.LBB19_1
.LBB19_1:
	.loc	4 0 7                           @ C:/Users/aj4775/AppData/Local/arm/packs/Keil/V2M-MPS2_IOTKit_BSP/1.5.2/CMSIS/Driver/USART_V2M-MPS2.c:0:7
	movs	r0, #0
.Ltmp63:
	.loc	4 322 5 is_stmt 1               @ C:/Users/aj4775/AppData/Local/arm/packs/Keil/V2M-MPS2_IOTKit_BSP/1.5.2/CMSIS/Driver/USART_V2M-MPS2.c:322:5
	str	r0, [sp, #8]
	b	.LBB19_3
.Ltmp64:
.LBB19_2:
	.loc	4 326 27                        @ C:/Users/aj4775/AppData/Local/arm/packs/Keil/V2M-MPS2_IOTKit_BSP/1.5.2/CMSIS/Driver/USART_V2M-MPS2.c:326:27
	ldr	r0, [sp, #4]
	.loc	4 326 3 is_stmt 0               @ C:/Users/aj4775/AppData/Local/arm/packs/Keil/V2M-MPS2_IOTKit_BSP/1.5.2/CMSIS/Driver/USART_V2M-MPS2.c:326:3
	ldr	r1, [sp]
	.loc	4 326 10                        @ C:/Users/aj4775/AppData/Local/arm/packs/Keil/V2M-MPS2_IOTKit_BSP/1.5.2/CMSIS/Driver/USART_V2M-MPS2.c:326:10
	ldr	r1, [r1, #20]
	.loc	4 326 25                        @ C:/Users/aj4775/AppData/Local/arm/packs/Keil/V2M-MPS2_IOTKit_BSP/1.5.2/CMSIS/Driver/USART_V2M-MPS2.c:326:25
	str	r0, [r1]
	.loc	4 329 10 is_stmt 1              @ C:/Users/aj4775/AppData/Local/arm/packs/Keil/V2M-MPS2_IOTKit_BSP/1.5.2/CMSIS/Driver/USART_V2M-MPS2.c:329:10
	ldr	r0, [sp]
	.loc	4 329 17 is_stmt 0              @ C:/Users/aj4775/AppData/Local/arm/packs/Keil/V2M-MPS2_IOTKit_BSP/1.5.2/CMSIS/Driver/USART_V2M-MPS2.c:329:17
	ldr	r1, [r0, #24]
	movs	r0, #0
	.loc	4 329 3                         @ C:/Users/aj4775/AppData/Local/arm/packs/Keil/V2M-MPS2_IOTKit_BSP/1.5.2/CMSIS/Driver/USART_V2M-MPS2.c:329:3
	str	r0, [r1, #20]
	str	r0, [r1, #16]
	str	r0, [r1, #12]
	str	r0, [r1, #8]
	str	r0, [r1, #4]
	str	r0, [r1]
	.loc	4 332 53 is_stmt 1              @ C:/Users/aj4775/AppData/Local/arm/packs/Keil/V2M-MPS2_IOTKit_BSP/1.5.2/CMSIS/Driver/USART_V2M-MPS2.c:332:53
	ldr	r1, [sp]
	.loc	4 332 65 is_stmt 0              @ C:/Users/aj4775/AppData/Local/arm/packs/Keil/V2M-MPS2_IOTKit_BSP/1.5.2/CMSIS/Driver/USART_V2M-MPS2.c:332:65
	ldr	r2, [r1, #4]
	.loc	4 332 73                        @ C:/Users/aj4775/AppData/Local/arm/packs/Keil/V2M-MPS2_IOTKit_BSP/1.5.2/CMSIS/Driver/USART_V2M-MPS2.c:332:73
	ldrb	r3, [r2, #4]
	movs	r1, #1
	.loc	4 332 50                        @ C:/Users/aj4775/AppData/Local/arm/packs/Keil/V2M-MPS2_IOTKit_BSP/1.5.2/CMSIS/Driver/USART_V2M-MPS2.c:332:50
	lsl.w	r12, r1, r3
	.loc	4 332 23                        @ C:/Users/aj4775/AppData/Local/arm/packs/Keil/V2M-MPS2_IOTKit_BSP/1.5.2/CMSIS/Driver/USART_V2M-MPS2.c:332:23
	ldr	r3, [r2]
	.loc	4 332 43                        @ C:/Users/aj4775/AppData/Local/arm/packs/Keil/V2M-MPS2_IOTKit_BSP/1.5.2/CMSIS/Driver/USART_V2M-MPS2.c:332:43
	ldr	r2, [r3, #24]
	orr.w	r2, r2, r12
	str	r2, [r3, #24]
	.loc	4 333 53 is_stmt 1              @ C:/Users/aj4775/AppData/Local/arm/packs/Keil/V2M-MPS2_IOTKit_BSP/1.5.2/CMSIS/Driver/USART_V2M-MPS2.c:333:53
	ldr	r2, [sp]
	.loc	4 333 65 is_stmt 0              @ C:/Users/aj4775/AppData/Local/arm/packs/Keil/V2M-MPS2_IOTKit_BSP/1.5.2/CMSIS/Driver/USART_V2M-MPS2.c:333:65
	ldr	r2, [r2, #8]
	.loc	4 333 73                        @ C:/Users/aj4775/AppData/Local/arm/packs/Keil/V2M-MPS2_IOTKit_BSP/1.5.2/CMSIS/Driver/USART_V2M-MPS2.c:333:73
	ldrb	r3, [r2, #4]
	.loc	4 333 50                        @ C:/Users/aj4775/AppData/Local/arm/packs/Keil/V2M-MPS2_IOTKit_BSP/1.5.2/CMSIS/Driver/USART_V2M-MPS2.c:333:50
	lsl.w	r12, r1, r3
	.loc	4 333 23                        @ C:/Users/aj4775/AppData/Local/arm/packs/Keil/V2M-MPS2_IOTKit_BSP/1.5.2/CMSIS/Driver/USART_V2M-MPS2.c:333:23
	ldr	r3, [r2]
	.loc	4 333 43                        @ C:/Users/aj4775/AppData/Local/arm/packs/Keil/V2M-MPS2_IOTKit_BSP/1.5.2/CMSIS/Driver/USART_V2M-MPS2.c:333:43
	ldr	r2, [r3, #24]
	orr.w	r2, r2, r12
	str	r2, [r3, #24]
	.loc	4 335 3 is_stmt 1               @ C:/Users/aj4775/AppData/Local/arm/packs/Keil/V2M-MPS2_IOTKit_BSP/1.5.2/CMSIS/Driver/USART_V2M-MPS2.c:335:3
	ldr	r2, [sp]
	.loc	4 335 10 is_stmt 0              @ C:/Users/aj4775/AppData/Local/arm/packs/Keil/V2M-MPS2_IOTKit_BSP/1.5.2/CMSIS/Driver/USART_V2M-MPS2.c:335:10
	ldr	r2, [r2, #20]
	.loc	4 335 22                        @ C:/Users/aj4775/AppData/Local/arm/packs/Keil/V2M-MPS2_IOTKit_BSP/1.5.2/CMSIS/Driver/USART_V2M-MPS2.c:335:22
	strb	r1, [r2, #7]
	.loc	4 337 3 is_stmt 1               @ C:/Users/aj4775/AppData/Local/arm/packs/Keil/V2M-MPS2_IOTKit_BSP/1.5.2/CMSIS/Driver/USART_V2M-MPS2.c:337:3
	str	r0, [sp, #8]
	b	.LBB19_3
.LBB19_3:
	.loc	4 338 1                         @ C:/Users/aj4775/AppData/Local/arm/packs/Keil/V2M-MPS2_IOTKit_BSP/1.5.2/CMSIS/Driver/USART_V2M-MPS2.c:338:1
	ldr	r0, [sp, #8]
	.loc	4 338 1 epilogue_begin is_stmt 0 @ C:/Users/aj4775/AppData/Local/arm/packs/Keil/V2M-MPS2_IOTKit_BSP/1.5.2/CMSIS/Driver/USART_V2M-MPS2.c:338:1
	add	sp, #12
	bx	lr
.Ltmp65:
.Lfunc_end19:
	.size	USART_Initialize, .Lfunc_end19-USART_Initialize
	.cfi_endproc
	.cantunwind
	.fnend
                                        @ -- End function
	.section	.text.USART_Uninitialize,"ax",%progbits
	.p2align	2                               @ -- Begin function USART_Uninitialize
	.type	USART_Uninitialize,%function
	.code	16                              @ @USART_Uninitialize
	.thumb_func
USART_Uninitialize:
.Lfunc_begin20:
	.loc	4 346 0 is_stmt 1               @ C:/Users/aj4775/AppData/Local/arm/packs/Keil/V2M-MPS2_IOTKit_BSP/1.5.2/CMSIS/Driver/USART_V2M-MPS2.c:346:0
	.fnstart
	.cfi_startproc
@ %bb.0:
	.pad	#4
	sub	sp, #4
	.cfi_def_cfa_offset 4
	str	r0, [sp]
.Ltmp66:
	.loc	4 349 54 prologue_end           @ C:/Users/aj4775/AppData/Local/arm/packs/Keil/V2M-MPS2_IOTKit_BSP/1.5.2/CMSIS/Driver/USART_V2M-MPS2.c:349:54
	ldr	r0, [sp]
	.loc	4 349 66 is_stmt 0              @ C:/Users/aj4775/AppData/Local/arm/packs/Keil/V2M-MPS2_IOTKit_BSP/1.5.2/CMSIS/Driver/USART_V2M-MPS2.c:349:66
	ldr	r0, [r0, #4]
	.loc	4 349 74                        @ C:/Users/aj4775/AppData/Local/arm/packs/Keil/V2M-MPS2_IOTKit_BSP/1.5.2/CMSIS/Driver/USART_V2M-MPS2.c:349:74
	ldrb	r2, [r0, #4]
	movs	r1, #1
	.loc	4 349 51                        @ C:/Users/aj4775/AppData/Local/arm/packs/Keil/V2M-MPS2_IOTKit_BSP/1.5.2/CMSIS/Driver/USART_V2M-MPS2.c:349:51
	lsl.w	r3, r1, r2
	.loc	4 349 23                        @ C:/Users/aj4775/AppData/Local/arm/packs/Keil/V2M-MPS2_IOTKit_BSP/1.5.2/CMSIS/Driver/USART_V2M-MPS2.c:349:23
	ldr	r2, [r0]
	.loc	4 349 43                        @ C:/Users/aj4775/AppData/Local/arm/packs/Keil/V2M-MPS2_IOTKit_BSP/1.5.2/CMSIS/Driver/USART_V2M-MPS2.c:349:43
	ldr	r0, [r2, #24]
	bics	r0, r3
	str	r0, [r2, #24]
	.loc	4 350 54 is_stmt 1              @ C:/Users/aj4775/AppData/Local/arm/packs/Keil/V2M-MPS2_IOTKit_BSP/1.5.2/CMSIS/Driver/USART_V2M-MPS2.c:350:54
	ldr	r0, [sp]
	.loc	4 350 66 is_stmt 0              @ C:/Users/aj4775/AppData/Local/arm/packs/Keil/V2M-MPS2_IOTKit_BSP/1.5.2/CMSIS/Driver/USART_V2M-MPS2.c:350:66
	ldr	r0, [r0, #8]
	.loc	4 350 74                        @ C:/Users/aj4775/AppData/Local/arm/packs/Keil/V2M-MPS2_IOTKit_BSP/1.5.2/CMSIS/Driver/USART_V2M-MPS2.c:350:74
	ldrb	r2, [r0, #4]
	.loc	4 350 51                        @ C:/Users/aj4775/AppData/Local/arm/packs/Keil/V2M-MPS2_IOTKit_BSP/1.5.2/CMSIS/Driver/USART_V2M-MPS2.c:350:51
	lsl.w	r2, r1, r2
	.loc	4 350 23                        @ C:/Users/aj4775/AppData/Local/arm/packs/Keil/V2M-MPS2_IOTKit_BSP/1.5.2/CMSIS/Driver/USART_V2M-MPS2.c:350:23
	ldr	r1, [r0]
	.loc	4 350 43                        @ C:/Users/aj4775/AppData/Local/arm/packs/Keil/V2M-MPS2_IOTKit_BSP/1.5.2/CMSIS/Driver/USART_V2M-MPS2.c:350:43
	ldr	r0, [r1, #24]
	bics	r0, r2
	str	r0, [r1, #24]
	.loc	4 352 3 is_stmt 1               @ C:/Users/aj4775/AppData/Local/arm/packs/Keil/V2M-MPS2_IOTKit_BSP/1.5.2/CMSIS/Driver/USART_V2M-MPS2.c:352:3
	ldr	r0, [sp]
	.loc	4 352 10 is_stmt 0              @ C:/Users/aj4775/AppData/Local/arm/packs/Keil/V2M-MPS2_IOTKit_BSP/1.5.2/CMSIS/Driver/USART_V2M-MPS2.c:352:10
	ldr	r1, [r0, #20]
	movs	r0, #0
	.loc	4 352 22                        @ C:/Users/aj4775/AppData/Local/arm/packs/Keil/V2M-MPS2_IOTKit_BSP/1.5.2/CMSIS/Driver/USART_V2M-MPS2.c:352:22
	strb	r0, [r1, #7]
	.loc	4 354 3 epilogue_begin is_stmt 1 @ C:/Users/aj4775/AppData/Local/arm/packs/Keil/V2M-MPS2_IOTKit_BSP/1.5.2/CMSIS/Driver/USART_V2M-MPS2.c:354:3
	add	sp, #4
	bx	lr
.Ltmp67:
.Lfunc_end20:
	.size	USART_Uninitialize, .Lfunc_end20-USART_Uninitialize
	.cfi_endproc
	.cantunwind
	.fnend
                                        @ -- End function
	.section	.text.USART_PowerControl,"ax",%progbits
	.p2align	2                               @ -- Begin function USART_PowerControl
	.type	USART_PowerControl,%function
	.code	16                              @ @USART_PowerControl
	.thumb_func
USART_PowerControl:
.Lfunc_begin21:
	.loc	4 365 0                         @ C:/Users/aj4775/AppData/Local/arm/packs/Keil/V2M-MPS2_IOTKit_BSP/1.5.2/CMSIS/Driver/USART_V2M-MPS2.c:365:0
	.fnstart
	.cfi_startproc
@ %bb.0:
	.save	{r7, lr}
	push	{r7, lr}
	.cfi_def_cfa_offset 8
	.cfi_offset lr, -4
	.cfi_offset r7, -8
	.pad	#16
	sub	sp, #16
	.cfi_def_cfa_offset 24
                                        @ kill: def $r2 killed $r0
	strb.w	r0, [sp, #11]
	str	r1, [sp, #4]
.Ltmp68:
	.loc	4 367 11 prologue_end           @ C:/Users/aj4775/AppData/Local/arm/packs/Keil/V2M-MPS2_IOTKit_BSP/1.5.2/CMSIS/Driver/USART_V2M-MPS2.c:367:11
	ldrb.w	r0, [sp, #11]
	.loc	4 367 3 is_stmt 0               @ C:/Users/aj4775/AppData/Local/arm/packs/Keil/V2M-MPS2_IOTKit_BSP/1.5.2/CMSIS/Driver/USART_V2M-MPS2.c:367:3
	mov	r1, r0
	str	r1, [sp]                        @ 4-byte Spill
	cbz	r0, .LBB21_3
	b	.LBB21_1
.LBB21_1:
	ldr	r0, [sp]                        @ 4-byte Reload
	cmp	r0, #1
	beq	.LBB21_4
	b	.LBB21_2
.LBB21_2:
	ldr	r0, [sp]                        @ 4-byte Reload
	cmp	r0, #2
	beq	.LBB21_5
	b	.LBB21_10
.LBB21_3:
.Ltmp69:
	.loc	4 370 7 is_stmt 1               @ C:/Users/aj4775/AppData/Local/arm/packs/Keil/V2M-MPS2_IOTKit_BSP/1.5.2/CMSIS/Driver/USART_V2M-MPS2.c:370:7
	ldr	r0, [sp, #4]
	.loc	4 370 14 is_stmt 0              @ C:/Users/aj4775/AppData/Local/arm/packs/Keil/V2M-MPS2_IOTKit_BSP/1.5.2/CMSIS/Driver/USART_V2M-MPS2.c:370:14
	ldr	r1, [r0, #20]
	.loc	4 370 26                        @ C:/Users/aj4775/AppData/Local/arm/packs/Keil/V2M-MPS2_IOTKit_BSP/1.5.2/CMSIS/Driver/USART_V2M-MPS2.c:370:26
	ldrb	r0, [r1, #7]
	and	r0, r0, #253
	strb	r0, [r1, #7]
	.loc	4 373 23 is_stmt 1              @ C:/Users/aj4775/AppData/Local/arm/packs/Keil/V2M-MPS2_IOTKit_BSP/1.5.2/CMSIS/Driver/USART_V2M-MPS2.c:373:23
	ldr	r0, [sp, #4]
	.loc	4 373 30 is_stmt 0              @ C:/Users/aj4775/AppData/Local/arm/packs/Keil/V2M-MPS2_IOTKit_BSP/1.5.2/CMSIS/Driver/USART_V2M-MPS2.c:373:30
	ldrsb.w	r0, [r0, #16]
	.loc	4 373 7                         @ C:/Users/aj4775/AppData/Local/arm/packs/Keil/V2M-MPS2_IOTKit_BSP/1.5.2/CMSIS/Driver/USART_V2M-MPS2.c:373:7
	bl	__NVIC_DisableIRQ
	.loc	4 374 28 is_stmt 1              @ C:/Users/aj4775/AppData/Local/arm/packs/Keil/V2M-MPS2_IOTKit_BSP/1.5.2/CMSIS/Driver/USART_V2M-MPS2.c:374:28
	ldr	r0, [sp, #4]
	.loc	4 374 35 is_stmt 0              @ C:/Users/aj4775/AppData/Local/arm/packs/Keil/V2M-MPS2_IOTKit_BSP/1.5.2/CMSIS/Driver/USART_V2M-MPS2.c:374:35
	ldrsb.w	r0, [r0, #16]
	.loc	4 374 7                         @ C:/Users/aj4775/AppData/Local/arm/packs/Keil/V2M-MPS2_IOTKit_BSP/1.5.2/CMSIS/Driver/USART_V2M-MPS2.c:374:7
	bl	__NVIC_ClearPendingIRQ
	.loc	4 375 23 is_stmt 1              @ C:/Users/aj4775/AppData/Local/arm/packs/Keil/V2M-MPS2_IOTKit_BSP/1.5.2/CMSIS/Driver/USART_V2M-MPS2.c:375:23
	ldr	r0, [sp, #4]
	.loc	4 375 30 is_stmt 0              @ C:/Users/aj4775/AppData/Local/arm/packs/Keil/V2M-MPS2_IOTKit_BSP/1.5.2/CMSIS/Driver/USART_V2M-MPS2.c:375:30
	ldrsb.w	r0, [r0, #17]
	.loc	4 375 7                         @ C:/Users/aj4775/AppData/Local/arm/packs/Keil/V2M-MPS2_IOTKit_BSP/1.5.2/CMSIS/Driver/USART_V2M-MPS2.c:375:7
	bl	__NVIC_DisableIRQ
	.loc	4 376 28 is_stmt 1              @ C:/Users/aj4775/AppData/Local/arm/packs/Keil/V2M-MPS2_IOTKit_BSP/1.5.2/CMSIS/Driver/USART_V2M-MPS2.c:376:28
	ldr	r0, [sp, #4]
	.loc	4 376 35 is_stmt 0              @ C:/Users/aj4775/AppData/Local/arm/packs/Keil/V2M-MPS2_IOTKit_BSP/1.5.2/CMSIS/Driver/USART_V2M-MPS2.c:376:35
	ldrsb.w	r0, [r0, #17]
	.loc	4 376 7                         @ C:/Users/aj4775/AppData/Local/arm/packs/Keil/V2M-MPS2_IOTKit_BSP/1.5.2/CMSIS/Driver/USART_V2M-MPS2.c:376:7
	bl	__NVIC_ClearPendingIRQ
	.loc	4 377 7 is_stmt 1               @ C:/Users/aj4775/AppData/Local/arm/packs/Keil/V2M-MPS2_IOTKit_BSP/1.5.2/CMSIS/Driver/USART_V2M-MPS2.c:377:7
	b	.LBB21_10
.LBB21_4:
	.loc	4 0 7 is_stmt 0                 @ C:/Users/aj4775/AppData/Local/arm/packs/Keil/V2M-MPS2_IOTKit_BSP/1.5.2/CMSIS/Driver/USART_V2M-MPS2.c:0:7
	mvn	r0, #3
	.loc	4 380 7 is_stmt 1               @ C:/Users/aj4775/AppData/Local/arm/packs/Keil/V2M-MPS2_IOTKit_BSP/1.5.2/CMSIS/Driver/USART_V2M-MPS2.c:380:7
	str	r0, [sp, #12]
	b	.LBB21_11
.LBB21_5:
.Ltmp70:
	.loc	4 383 12                        @ C:/Users/aj4775/AppData/Local/arm/packs/Keil/V2M-MPS2_IOTKit_BSP/1.5.2/CMSIS/Driver/USART_V2M-MPS2.c:383:12
	ldr	r0, [sp, #4]
	.loc	4 383 19 is_stmt 0              @ C:/Users/aj4775/AppData/Local/arm/packs/Keil/V2M-MPS2_IOTKit_BSP/1.5.2/CMSIS/Driver/USART_V2M-MPS2.c:383:19
	ldr	r0, [r0, #20]
	.loc	4 383 12                        @ C:/Users/aj4775/AppData/Local/arm/packs/Keil/V2M-MPS2_IOTKit_BSP/1.5.2/CMSIS/Driver/USART_V2M-MPS2.c:383:12
	ldrb	r0, [r0, #7]
.Ltmp71:
	.loc	4 383 11                        @ C:/Users/aj4775/AppData/Local/arm/packs/Keil/V2M-MPS2_IOTKit_BSP/1.5.2/CMSIS/Driver/USART_V2M-MPS2.c:383:11
	lsls	r0, r0, #31
	cbnz	r0, .LBB21_7
	b	.LBB21_6
.LBB21_6:
	.loc	4 0 11                          @ C:/Users/aj4775/AppData/Local/arm/packs/Keil/V2M-MPS2_IOTKit_BSP/1.5.2/CMSIS/Driver/USART_V2M-MPS2.c:0:11
	mov.w	r0, #-1
.Ltmp72:
	.loc	4 384 9 is_stmt 1               @ C:/Users/aj4775/AppData/Local/arm/packs/Keil/V2M-MPS2_IOTKit_BSP/1.5.2/CMSIS/Driver/USART_V2M-MPS2.c:384:9
	str	r0, [sp, #12]
	b	.LBB21_11
.Ltmp73:
.LBB21_7:
	.loc	4 386 12                        @ C:/Users/aj4775/AppData/Local/arm/packs/Keil/V2M-MPS2_IOTKit_BSP/1.5.2/CMSIS/Driver/USART_V2M-MPS2.c:386:12
	ldr	r0, [sp, #4]
	.loc	4 386 19 is_stmt 0              @ C:/Users/aj4775/AppData/Local/arm/packs/Keil/V2M-MPS2_IOTKit_BSP/1.5.2/CMSIS/Driver/USART_V2M-MPS2.c:386:19
	ldr	r0, [r0, #20]
	.loc	4 386 12                        @ C:/Users/aj4775/AppData/Local/arm/packs/Keil/V2M-MPS2_IOTKit_BSP/1.5.2/CMSIS/Driver/USART_V2M-MPS2.c:386:12
	ldrb	r0, [r0, #7]
.Ltmp74:
	.loc	4 386 11                        @ C:/Users/aj4775/AppData/Local/arm/packs/Keil/V2M-MPS2_IOTKit_BSP/1.5.2/CMSIS/Driver/USART_V2M-MPS2.c:386:11
	lsls	r0, r0, #30
	cmp	r0, #0
	bpl	.LBB21_9
	b	.LBB21_8
.LBB21_8:
	.loc	4 0 11                          @ C:/Users/aj4775/AppData/Local/arm/packs/Keil/V2M-MPS2_IOTKit_BSP/1.5.2/CMSIS/Driver/USART_V2M-MPS2.c:0:11
	movs	r0, #0
.Ltmp75:
	.loc	4 387 9 is_stmt 1               @ C:/Users/aj4775/AppData/Local/arm/packs/Keil/V2M-MPS2_IOTKit_BSP/1.5.2/CMSIS/Driver/USART_V2M-MPS2.c:387:9
	str	r0, [sp, #12]
	b	.LBB21_11
.Ltmp76:
.LBB21_9:
	.loc	4 391 7                         @ C:/Users/aj4775/AppData/Local/arm/packs/Keil/V2M-MPS2_IOTKit_BSP/1.5.2/CMSIS/Driver/USART_V2M-MPS2.c:391:7
	ldr	r0, [sp, #4]
	.loc	4 391 14 is_stmt 0              @ C:/Users/aj4775/AppData/Local/arm/packs/Keil/V2M-MPS2_IOTKit_BSP/1.5.2/CMSIS/Driver/USART_V2M-MPS2.c:391:14
	ldr	r1, [r0, #20]
	movs	r0, #0
	.loc	4 391 41                        @ C:/Users/aj4775/AppData/Local/arm/packs/Keil/V2M-MPS2_IOTKit_BSP/1.5.2/CMSIS/Driver/USART_V2M-MPS2.c:391:41
	strb	r0, [r1, #4]
	.loc	4 392 7 is_stmt 1               @ C:/Users/aj4775/AppData/Local/arm/packs/Keil/V2M-MPS2_IOTKit_BSP/1.5.2/CMSIS/Driver/USART_V2M-MPS2.c:392:7
	ldr	r1, [sp, #4]
	.loc	4 392 14 is_stmt 0              @ C:/Users/aj4775/AppData/Local/arm/packs/Keil/V2M-MPS2_IOTKit_BSP/1.5.2/CMSIS/Driver/USART_V2M-MPS2.c:392:14
	ldr	r1, [r1, #20]
	.loc	4 392 41                        @ C:/Users/aj4775/AppData/Local/arm/packs/Keil/V2M-MPS2_IOTKit_BSP/1.5.2/CMSIS/Driver/USART_V2M-MPS2.c:392:41
	strb	r0, [r1, #5]
	.loc	4 393 7 is_stmt 1               @ C:/Users/aj4775/AppData/Local/arm/packs/Keil/V2M-MPS2_IOTKit_BSP/1.5.2/CMSIS/Driver/USART_V2M-MPS2.c:393:7
	ldr	r1, [sp, #4]
	.loc	4 393 14 is_stmt 0              @ C:/Users/aj4775/AppData/Local/arm/packs/Keil/V2M-MPS2_IOTKit_BSP/1.5.2/CMSIS/Driver/USART_V2M-MPS2.c:393:14
	ldr	r1, [r1, #20]
	.loc	4 393 41                        @ C:/Users/aj4775/AppData/Local/arm/packs/Keil/V2M-MPS2_IOTKit_BSP/1.5.2/CMSIS/Driver/USART_V2M-MPS2.c:393:41
	strb	r0, [r1, #6]
	.loc	4 396 7 is_stmt 1               @ C:/Users/aj4775/AppData/Local/arm/packs/Keil/V2M-MPS2_IOTKit_BSP/1.5.2/CMSIS/Driver/USART_V2M-MPS2.c:396:7
	ldr	r0, [sp, #4]
	.loc	4 396 14 is_stmt 0              @ C:/Users/aj4775/AppData/Local/arm/packs/Keil/V2M-MPS2_IOTKit_BSP/1.5.2/CMSIS/Driver/USART_V2M-MPS2.c:396:14
	ldr	r1, [r0, #20]
	movs	r0, #3
	.loc	4 396 26                        @ C:/Users/aj4775/AppData/Local/arm/packs/Keil/V2M-MPS2_IOTKit_BSP/1.5.2/CMSIS/Driver/USART_V2M-MPS2.c:396:26
	strb	r0, [r1, #7]
	.loc	4 399 28 is_stmt 1              @ C:/Users/aj4775/AppData/Local/arm/packs/Keil/V2M-MPS2_IOTKit_BSP/1.5.2/CMSIS/Driver/USART_V2M-MPS2.c:399:28
	ldr	r0, [sp, #4]
	.loc	4 399 35 is_stmt 0              @ C:/Users/aj4775/AppData/Local/arm/packs/Keil/V2M-MPS2_IOTKit_BSP/1.5.2/CMSIS/Driver/USART_V2M-MPS2.c:399:35
	ldrsb.w	r0, [r0, #16]
	.loc	4 399 7                         @ C:/Users/aj4775/AppData/Local/arm/packs/Keil/V2M-MPS2_IOTKit_BSP/1.5.2/CMSIS/Driver/USART_V2M-MPS2.c:399:7
	bl	__NVIC_ClearPendingIRQ
	.loc	4 400 22 is_stmt 1              @ C:/Users/aj4775/AppData/Local/arm/packs/Keil/V2M-MPS2_IOTKit_BSP/1.5.2/CMSIS/Driver/USART_V2M-MPS2.c:400:22
	ldr	r0, [sp, #4]
	.loc	4 400 29 is_stmt 0              @ C:/Users/aj4775/AppData/Local/arm/packs/Keil/V2M-MPS2_IOTKit_BSP/1.5.2/CMSIS/Driver/USART_V2M-MPS2.c:400:29
	ldrsb.w	r0, [r0, #16]
	.loc	4 400 7                         @ C:/Users/aj4775/AppData/Local/arm/packs/Keil/V2M-MPS2_IOTKit_BSP/1.5.2/CMSIS/Driver/USART_V2M-MPS2.c:400:7
	bl	__NVIC_EnableIRQ
	.loc	4 401 28 is_stmt 1              @ C:/Users/aj4775/AppData/Local/arm/packs/Keil/V2M-MPS2_IOTKit_BSP/1.5.2/CMSIS/Driver/USART_V2M-MPS2.c:401:28
	ldr	r0, [sp, #4]
	.loc	4 401 35 is_stmt 0              @ C:/Users/aj4775/AppData/Local/arm/packs/Keil/V2M-MPS2_IOTKit_BSP/1.5.2/CMSIS/Driver/USART_V2M-MPS2.c:401:35
	ldrsb.w	r0, [r0, #17]
	.loc	4 401 7                         @ C:/Users/aj4775/AppData/Local/arm/packs/Keil/V2M-MPS2_IOTKit_BSP/1.5.2/CMSIS/Driver/USART_V2M-MPS2.c:401:7
	bl	__NVIC_ClearPendingIRQ
	.loc	4 402 22 is_stmt 1              @ C:/Users/aj4775/AppData/Local/arm/packs/Keil/V2M-MPS2_IOTKit_BSP/1.5.2/CMSIS/Driver/USART_V2M-MPS2.c:402:22
	ldr	r0, [sp, #4]
	.loc	4 402 29 is_stmt 0              @ C:/Users/aj4775/AppData/Local/arm/packs/Keil/V2M-MPS2_IOTKit_BSP/1.5.2/CMSIS/Driver/USART_V2M-MPS2.c:402:29
	ldrsb.w	r0, [r0, #17]
	.loc	4 402 7                         @ C:/Users/aj4775/AppData/Local/arm/packs/Keil/V2M-MPS2_IOTKit_BSP/1.5.2/CMSIS/Driver/USART_V2M-MPS2.c:402:7
	bl	__NVIC_EnableIRQ
	.loc	4 403 7 is_stmt 1               @ C:/Users/aj4775/AppData/Local/arm/packs/Keil/V2M-MPS2_IOTKit_BSP/1.5.2/CMSIS/Driver/USART_V2M-MPS2.c:403:7
	b	.LBB21_10
.Ltmp77:
.LBB21_10:
	.loc	4 0 7 is_stmt 0                 @ C:/Users/aj4775/AppData/Local/arm/packs/Keil/V2M-MPS2_IOTKit_BSP/1.5.2/CMSIS/Driver/USART_V2M-MPS2.c:0:7
	movs	r0, #0
	.loc	4 407 3 is_stmt 1               @ C:/Users/aj4775/AppData/Local/arm/packs/Keil/V2M-MPS2_IOTKit_BSP/1.5.2/CMSIS/Driver/USART_V2M-MPS2.c:407:3
	str	r0, [sp, #12]
	b	.LBB21_11
.LBB21_11:
	.loc	4 408 1                         @ C:/Users/aj4775/AppData/Local/arm/packs/Keil/V2M-MPS2_IOTKit_BSP/1.5.2/CMSIS/Driver/USART_V2M-MPS2.c:408:1
	ldr	r0, [sp, #12]
	.loc	4 408 1 epilogue_begin is_stmt 0 @ C:/Users/aj4775/AppData/Local/arm/packs/Keil/V2M-MPS2_IOTKit_BSP/1.5.2/CMSIS/Driver/USART_V2M-MPS2.c:408:1
	add	sp, #16
	pop	{r7, pc}
.Ltmp78:
.Lfunc_end21:
	.size	USART_PowerControl, .Lfunc_end21-USART_PowerControl
	.cfi_endproc
	.cantunwind
	.fnend
                                        @ -- End function
	.section	.text.__NVIC_DisableIRQ,"ax",%progbits
	.p2align	2                               @ -- Begin function __NVIC_DisableIRQ
	.type	__NVIC_DisableIRQ,%function
	.code	16                              @ @__NVIC_DisableIRQ
	.thumb_func
__NVIC_DisableIRQ:
.Lfunc_begin22:
	.loc	7 2397 0 is_stmt 1              @ C:/Users/aj4775/AppData/Local/arm/packs/ARM/CMSIS/6.1.0/CMSIS/Core/Include\core_cm33.h:2397:0
	.fnstart
	.cfi_startproc
@ %bb.0:
	.pad	#4
	sub	sp, #4
	.cfi_def_cfa_offset 4
                                        @ kill: def $r1 killed $r0
	strb.w	r0, [sp, #3]
.Ltmp79:
	.loc	7 2398 17 prologue_end          @ C:/Users/aj4775/AppData/Local/arm/packs/ARM/CMSIS/6.1.0/CMSIS/Core/Include\core_cm33.h:2398:17
	ldrsb.w	r0, [sp, #3]
.Ltmp80:
	.loc	7 2398 7 is_stmt 0              @ C:/Users/aj4775/AppData/Local/arm/packs/ARM/CMSIS/6.1.0/CMSIS/Core/Include\core_cm33.h:2398:7
	cmp	r0, #0
	bmi	.LBB22_2
	b	.LBB22_1
.LBB22_1:
.Ltmp81:
	.loc	7 2400 75 is_stmt 1             @ C:/Users/aj4775/AppData/Local/arm/packs/ARM/CMSIS/6.1.0/CMSIS/Core/Include\core_cm33.h:2400:75
	ldrsb.w	r1, [sp, #3]
	.loc	7 2400 81 is_stmt 0             @ C:/Users/aj4775/AppData/Local/arm/packs/ARM/CMSIS/6.1.0/CMSIS/Core/Include\core_cm33.h:2400:81
	and	r2, r1, #31
	movs	r0, #1
	.loc	7 2400 60                       @ C:/Users/aj4775/AppData/Local/arm/packs/ARM/CMSIS/6.1.0/CMSIS/Core/Include\core_cm33.h:2400:60
	lsls	r0, r2
	.loc	7 2400 5                        @ C:/Users/aj4775/AppData/Local/arm/packs/ARM/CMSIS/6.1.0/CMSIS/Core/Include\core_cm33.h:2400:5
	lsrs	r2, r1, #5
	movw	r1, #57728
	movt	r1, #57344
	.loc	7 2400 43                       @ C:/Users/aj4775/AppData/Local/arm/packs/ARM/CMSIS/6.1.0/CMSIS/Core/Include\core_cm33.h:2400:43
	str.w	r0, [r1, r2, lsl #2]
	.loc	7 2401 5 is_stmt 1              @ C:/Users/aj4775/AppData/Local/arm/packs/ARM/CMSIS/6.1.0/CMSIS/Core/Include\core_cm33.h:2401:5
	dsb	sy
	.loc	7 2402 5                        @ C:/Users/aj4775/AppData/Local/arm/packs/ARM/CMSIS/6.1.0/CMSIS/Core/Include\core_cm33.h:2402:5
	isb	sy
	.loc	7 2403 3                        @ C:/Users/aj4775/AppData/Local/arm/packs/ARM/CMSIS/6.1.0/CMSIS/Core/Include\core_cm33.h:2403:3
	b	.LBB22_2
.Ltmp82:
.LBB22_2:
	.loc	7 2404 1 epilogue_begin         @ C:/Users/aj4775/AppData/Local/arm/packs/ARM/CMSIS/6.1.0/CMSIS/Core/Include\core_cm33.h:2404:1
	add	sp, #4
	bx	lr
.Ltmp83:
.Lfunc_end22:
	.size	__NVIC_DisableIRQ, .Lfunc_end22-__NVIC_DisableIRQ
	.cfi_endproc
	.cantunwind
	.fnend
                                        @ -- End function
	.section	.text.__NVIC_ClearPendingIRQ,"ax",%progbits
	.p2align	2                               @ -- Begin function __NVIC_ClearPendingIRQ
	.type	__NVIC_ClearPendingIRQ,%function
	.code	16                              @ @__NVIC_ClearPendingIRQ
	.thumb_func
__NVIC_ClearPendingIRQ:
.Lfunc_begin23:
	.loc	7 2450 0                        @ C:/Users/aj4775/AppData/Local/arm/packs/ARM/CMSIS/6.1.0/CMSIS/Core/Include\core_cm33.h:2450:0
	.fnstart
	.cfi_startproc
@ %bb.0:
	.pad	#4
	sub	sp, #4
	.cfi_def_cfa_offset 4
                                        @ kill: def $r1 killed $r0
	strb.w	r0, [sp, #3]
.Ltmp84:
	.loc	7 2451 17 prologue_end          @ C:/Users/aj4775/AppData/Local/arm/packs/ARM/CMSIS/6.1.0/CMSIS/Core/Include\core_cm33.h:2451:17
	ldrsb.w	r0, [sp, #3]
.Ltmp85:
	.loc	7 2451 7 is_stmt 0              @ C:/Users/aj4775/AppData/Local/arm/packs/ARM/CMSIS/6.1.0/CMSIS/Core/Include\core_cm33.h:2451:7
	cmp	r0, #0
	bmi	.LBB23_2
	b	.LBB23_1
.LBB23_1:
.Ltmp86:
	.loc	7 2453 75 is_stmt 1             @ C:/Users/aj4775/AppData/Local/arm/packs/ARM/CMSIS/6.1.0/CMSIS/Core/Include\core_cm33.h:2453:75
	ldrsb.w	r1, [sp, #3]
	.loc	7 2453 81 is_stmt 0             @ C:/Users/aj4775/AppData/Local/arm/packs/ARM/CMSIS/6.1.0/CMSIS/Core/Include\core_cm33.h:2453:81
	and	r2, r1, #31
	movs	r0, #1
	.loc	7 2453 60                       @ C:/Users/aj4775/AppData/Local/arm/packs/ARM/CMSIS/6.1.0/CMSIS/Core/Include\core_cm33.h:2453:60
	lsls	r0, r2
	.loc	7 2453 5                        @ C:/Users/aj4775/AppData/Local/arm/packs/ARM/CMSIS/6.1.0/CMSIS/Core/Include\core_cm33.h:2453:5
	lsrs	r2, r1, #5
	movw	r1, #57984
	movt	r1, #57344
	.loc	7 2453 43                       @ C:/Users/aj4775/AppData/Local/arm/packs/ARM/CMSIS/6.1.0/CMSIS/Core/Include\core_cm33.h:2453:43
	str.w	r0, [r1, r2, lsl #2]
	.loc	7 2454 3 is_stmt 1              @ C:/Users/aj4775/AppData/Local/arm/packs/ARM/CMSIS/6.1.0/CMSIS/Core/Include\core_cm33.h:2454:3
	b	.LBB23_2
.Ltmp87:
.LBB23_2:
	.loc	7 2455 1 epilogue_begin         @ C:/Users/aj4775/AppData/Local/arm/packs/ARM/CMSIS/6.1.0/CMSIS/Core/Include\core_cm33.h:2455:1
	add	sp, #4
	bx	lr
.Ltmp88:
.Lfunc_end23:
	.size	__NVIC_ClearPendingIRQ, .Lfunc_end23-__NVIC_ClearPendingIRQ
	.cfi_endproc
	.cantunwind
	.fnend
                                        @ -- End function
	.section	.text.__NVIC_EnableIRQ,"ax",%progbits
	.p2align	2                               @ -- Begin function __NVIC_EnableIRQ
	.type	__NVIC_EnableIRQ,%function
	.code	16                              @ @__NVIC_EnableIRQ
	.thumb_func
__NVIC_EnableIRQ:
.Lfunc_begin24:
	.loc	7 2359 0                        @ C:/Users/aj4775/AppData/Local/arm/packs/ARM/CMSIS/6.1.0/CMSIS/Core/Include\core_cm33.h:2359:0
	.fnstart
	.cfi_startproc
@ %bb.0:
	.pad	#4
	sub	sp, #4
	.cfi_def_cfa_offset 4
                                        @ kill: def $r1 killed $r0
	strb.w	r0, [sp, #3]
.Ltmp89:
	.loc	7 2360 17 prologue_end          @ C:/Users/aj4775/AppData/Local/arm/packs/ARM/CMSIS/6.1.0/CMSIS/Core/Include\core_cm33.h:2360:17
	ldrsb.w	r0, [sp, #3]
.Ltmp90:
	.loc	7 2360 7 is_stmt 0              @ C:/Users/aj4775/AppData/Local/arm/packs/ARM/CMSIS/6.1.0/CMSIS/Core/Include\core_cm33.h:2360:7
	cmp	r0, #0
	bmi	.LBB24_2
	b	.LBB24_1
.LBB24_1:
.Ltmp91:
	.loc	7 2362 5 is_stmt 1              @ C:/Users/aj4775/AppData/Local/arm/packs/ARM/CMSIS/6.1.0/CMSIS/Core/Include\core_cm33.h:2362:5
	@APP
	@NO_APP
	.loc	7 2363 75                       @ C:/Users/aj4775/AppData/Local/arm/packs/ARM/CMSIS/6.1.0/CMSIS/Core/Include\core_cm33.h:2363:75
	ldrsb.w	r1, [sp, #3]
	.loc	7 2363 81 is_stmt 0             @ C:/Users/aj4775/AppData/Local/arm/packs/ARM/CMSIS/6.1.0/CMSIS/Core/Include\core_cm33.h:2363:81
	and	r2, r1, #31
	movs	r0, #1
	.loc	7 2363 60                       @ C:/Users/aj4775/AppData/Local/arm/packs/ARM/CMSIS/6.1.0/CMSIS/Core/Include\core_cm33.h:2363:60
	lsls	r0, r2
	.loc	7 2363 5                        @ C:/Users/aj4775/AppData/Local/arm/packs/ARM/CMSIS/6.1.0/CMSIS/Core/Include\core_cm33.h:2363:5
	lsrs	r2, r1, #5
	movw	r1, #57600
	movt	r1, #57344
	.loc	7 2363 43                       @ C:/Users/aj4775/AppData/Local/arm/packs/ARM/CMSIS/6.1.0/CMSIS/Core/Include\core_cm33.h:2363:43
	str.w	r0, [r1, r2, lsl #2]
	.loc	7 2364 5 is_stmt 1              @ C:/Users/aj4775/AppData/Local/arm/packs/ARM/CMSIS/6.1.0/CMSIS/Core/Include\core_cm33.h:2364:5
	@APP
	@NO_APP
	.loc	7 2365 3                        @ C:/Users/aj4775/AppData/Local/arm/packs/ARM/CMSIS/6.1.0/CMSIS/Core/Include\core_cm33.h:2365:3
	b	.LBB24_2
.Ltmp92:
.LBB24_2:
	.loc	7 2366 1 epilogue_begin         @ C:/Users/aj4775/AppData/Local/arm/packs/ARM/CMSIS/6.1.0/CMSIS/Core/Include\core_cm33.h:2366:1
	add	sp, #4
	bx	lr
.Ltmp93:
.Lfunc_end24:
	.size	__NVIC_EnableIRQ, .Lfunc_end24-__NVIC_EnableIRQ
	.cfi_endproc
	.cantunwind
	.fnend
                                        @ -- End function
	.section	.text.USART_Send,"ax",%progbits
	.p2align	2                               @ -- Begin function USART_Send
	.type	USART_Send,%function
	.code	16                              @ @USART_Send
	.thumb_func
USART_Send:
.Lfunc_begin25:
	.loc	4 422 0                         @ C:/Users/aj4775/AppData/Local/arm/packs/Keil/V2M-MPS2_IOTKit_BSP/1.5.2/CMSIS/Driver/USART_V2M-MPS2.c:422:0
	.fnstart
	.cfi_startproc
@ %bb.0:
	.pad	#16
	sub	sp, #16
	.cfi_def_cfa_offset 16
	str	r0, [sp, #8]
	str	r1, [sp, #4]
	str	r2, [sp]
.Ltmp94:
	.loc	4 424 8 prologue_end            @ C:/Users/aj4775/AppData/Local/arm/packs/Keil/V2M-MPS2_IOTKit_BSP/1.5.2/CMSIS/Driver/USART_V2M-MPS2.c:424:8
	ldr	r0, [sp, #8]
	.loc	4 424 22 is_stmt 0              @ C:/Users/aj4775/AppData/Local/arm/packs/Keil/V2M-MPS2_IOTKit_BSP/1.5.2/CMSIS/Driver/USART_V2M-MPS2.c:424:22
	cbz	r0, .LBB25_2
	b	.LBB25_1
.LBB25_1:
	.loc	4 424 26                        @ C:/Users/aj4775/AppData/Local/arm/packs/Keil/V2M-MPS2_IOTKit_BSP/1.5.2/CMSIS/Driver/USART_V2M-MPS2.c:424:26
	ldr	r0, [sp, #4]
.Ltmp95:
	.loc	4 424 7                         @ C:/Users/aj4775/AppData/Local/arm/packs/Keil/V2M-MPS2_IOTKit_BSP/1.5.2/CMSIS/Driver/USART_V2M-MPS2.c:424:7
	cbnz	r0, .LBB25_3
	b	.LBB25_2
.LBB25_2:
	.loc	4 0 7                           @ C:/Users/aj4775/AppData/Local/arm/packs/Keil/V2M-MPS2_IOTKit_BSP/1.5.2/CMSIS/Driver/USART_V2M-MPS2.c:0:7
	mvn	r0, #4
.Ltmp96:
	.loc	4 426 5 is_stmt 1               @ C:/Users/aj4775/AppData/Local/arm/packs/Keil/V2M-MPS2_IOTKit_BSP/1.5.2/CMSIS/Driver/USART_V2M-MPS2.c:426:5
	str	r0, [sp, #12]
	b	.LBB25_9
.Ltmp97:
.LBB25_3:
	.loc	4 429 8                         @ C:/Users/aj4775/AppData/Local/arm/packs/Keil/V2M-MPS2_IOTKit_BSP/1.5.2/CMSIS/Driver/USART_V2M-MPS2.c:429:8
	ldr	r0, [sp]
	.loc	4 429 15 is_stmt 0              @ C:/Users/aj4775/AppData/Local/arm/packs/Keil/V2M-MPS2_IOTKit_BSP/1.5.2/CMSIS/Driver/USART_V2M-MPS2.c:429:15
	ldr	r0, [r0, #20]
	.loc	4 429 8                         @ C:/Users/aj4775/AppData/Local/arm/packs/Keil/V2M-MPS2_IOTKit_BSP/1.5.2/CMSIS/Driver/USART_V2M-MPS2.c:429:8
	ldrb	r0, [r0, #7]
.Ltmp98:
	.loc	4 429 7                         @ C:/Users/aj4775/AppData/Local/arm/packs/Keil/V2M-MPS2_IOTKit_BSP/1.5.2/CMSIS/Driver/USART_V2M-MPS2.c:429:7
	lsls	r0, r0, #29
	cmp	r0, #0
	bmi	.LBB25_5
	b	.LBB25_4
.LBB25_4:
	.loc	4 0 7                           @ C:/Users/aj4775/AppData/Local/arm/packs/Keil/V2M-MPS2_IOTKit_BSP/1.5.2/CMSIS/Driver/USART_V2M-MPS2.c:0:7
	mov.w	r0, #-1
.Ltmp99:
	.loc	4 431 5 is_stmt 1               @ C:/Users/aj4775/AppData/Local/arm/packs/Keil/V2M-MPS2_IOTKit_BSP/1.5.2/CMSIS/Driver/USART_V2M-MPS2.c:431:5
	str	r0, [sp, #12]
	b	.LBB25_9
.Ltmp100:
.LBB25_5:
	.loc	4 434 8                         @ C:/Users/aj4775/AppData/Local/arm/packs/Keil/V2M-MPS2_IOTKit_BSP/1.5.2/CMSIS/Driver/USART_V2M-MPS2.c:434:8
	ldr	r0, [sp]
	.loc	4 434 15 is_stmt 0              @ C:/Users/aj4775/AppData/Local/arm/packs/Keil/V2M-MPS2_IOTKit_BSP/1.5.2/CMSIS/Driver/USART_V2M-MPS2.c:434:15
	ldr	r0, [r0, #20]
	.loc	4 434 28                        @ C:/Users/aj4775/AppData/Local/arm/packs/Keil/V2M-MPS2_IOTKit_BSP/1.5.2/CMSIS/Driver/USART_V2M-MPS2.c:434:28
	ldrb	r0, [r0, #4]
	.loc	4 434 43                        @ C:/Users/aj4775/AppData/Local/arm/packs/Keil/V2M-MPS2_IOTKit_BSP/1.5.2/CMSIS/Driver/USART_V2M-MPS2.c:434:43
	cbnz	r0, .LBB25_7
	b	.LBB25_6
.LBB25_6:
	.loc	4 435 8 is_stmt 1               @ C:/Users/aj4775/AppData/Local/arm/packs/Keil/V2M-MPS2_IOTKit_BSP/1.5.2/CMSIS/Driver/USART_V2M-MPS2.c:435:8
	ldr	r0, [sp]
	.loc	4 435 15 is_stmt 0              @ C:/Users/aj4775/AppData/Local/arm/packs/Keil/V2M-MPS2_IOTKit_BSP/1.5.2/CMSIS/Driver/USART_V2M-MPS2.c:435:15
	ldr	r0, [r0, #12]
	.loc	4 435 20                        @ C:/Users/aj4775/AppData/Local/arm/packs/Keil/V2M-MPS2_IOTKit_BSP/1.5.2/CMSIS/Driver/USART_V2M-MPS2.c:435:20
	ldr	r0, [r0, #4]
.Ltmp101:
	.loc	4 434 7 is_stmt 1               @ C:/Users/aj4775/AppData/Local/arm/packs/Keil/V2M-MPS2_IOTKit_BSP/1.5.2/CMSIS/Driver/USART_V2M-MPS2.c:434:7
	lsls	r0, r0, #31
	cbz	r0, .LBB25_8
	b	.LBB25_7
.LBB25_7:
	.loc	4 0 7 is_stmt 0                 @ C:/Users/aj4775/AppData/Local/arm/packs/Keil/V2M-MPS2_IOTKit_BSP/1.5.2/CMSIS/Driver/USART_V2M-MPS2.c:0:7
	mvn	r0, #1
.Ltmp102:
	.loc	4 437 5 is_stmt 1               @ C:/Users/aj4775/AppData/Local/arm/packs/Keil/V2M-MPS2_IOTKit_BSP/1.5.2/CMSIS/Driver/USART_V2M-MPS2.c:437:5
	str	r0, [sp, #12]
	b	.LBB25_9
.Ltmp103:
.LBB25_8:
	.loc	4 441 3                         @ C:/Users/aj4775/AppData/Local/arm/packs/Keil/V2M-MPS2_IOTKit_BSP/1.5.2/CMSIS/Driver/USART_V2M-MPS2.c:441:3
	ldr	r0, [sp]
	.loc	4 441 10 is_stmt 0              @ C:/Users/aj4775/AppData/Local/arm/packs/Keil/V2M-MPS2_IOTKit_BSP/1.5.2/CMSIS/Driver/USART_V2M-MPS2.c:441:10
	ldr	r1, [r0, #20]
	movs	r0, #1
	.loc	4 441 31                        @ C:/Users/aj4775/AppData/Local/arm/packs/Keil/V2M-MPS2_IOTKit_BSP/1.5.2/CMSIS/Driver/USART_V2M-MPS2.c:441:31
	strb	r0, [r1, #4]
	.loc	4 444 42 is_stmt 1              @ C:/Users/aj4775/AppData/Local/arm/packs/Keil/V2M-MPS2_IOTKit_BSP/1.5.2/CMSIS/Driver/USART_V2M-MPS2.c:444:42
	ldr	r0, [sp, #8]
	.loc	4 444 3 is_stmt 0               @ C:/Users/aj4775/AppData/Local/arm/packs/Keil/V2M-MPS2_IOTKit_BSP/1.5.2/CMSIS/Driver/USART_V2M-MPS2.c:444:3
	ldr	r1, [sp]
	.loc	4 444 10                        @ C:/Users/aj4775/AppData/Local/arm/packs/Keil/V2M-MPS2_IOTKit_BSP/1.5.2/CMSIS/Driver/USART_V2M-MPS2.c:444:10
	ldr	r1, [r1, #24]
	.loc	4 444 23                        @ C:/Users/aj4775/AppData/Local/arm/packs/Keil/V2M-MPS2_IOTKit_BSP/1.5.2/CMSIS/Driver/USART_V2M-MPS2.c:444:23
	str	r0, [r1, #12]
	.loc	4 445 25 is_stmt 1              @ C:/Users/aj4775/AppData/Local/arm/packs/Keil/V2M-MPS2_IOTKit_BSP/1.5.2/CMSIS/Driver/USART_V2M-MPS2.c:445:25
	ldr	r0, [sp, #4]
	.loc	4 445 3 is_stmt 0               @ C:/Users/aj4775/AppData/Local/arm/packs/Keil/V2M-MPS2_IOTKit_BSP/1.5.2/CMSIS/Driver/USART_V2M-MPS2.c:445:3
	ldr	r1, [sp]
	.loc	4 445 10                        @ C:/Users/aj4775/AppData/Local/arm/packs/Keil/V2M-MPS2_IOTKit_BSP/1.5.2/CMSIS/Driver/USART_V2M-MPS2.c:445:10
	ldr	r1, [r1, #24]
	.loc	4 445 23                        @ C:/Users/aj4775/AppData/Local/arm/packs/Keil/V2M-MPS2_IOTKit_BSP/1.5.2/CMSIS/Driver/USART_V2M-MPS2.c:445:23
	str	r0, [r1, #4]
	.loc	4 446 3 is_stmt 1               @ C:/Users/aj4775/AppData/Local/arm/packs/Keil/V2M-MPS2_IOTKit_BSP/1.5.2/CMSIS/Driver/USART_V2M-MPS2.c:446:3
	ldr	r0, [sp]
	.loc	4 446 10 is_stmt 0              @ C:/Users/aj4775/AppData/Local/arm/packs/Keil/V2M-MPS2_IOTKit_BSP/1.5.2/CMSIS/Driver/USART_V2M-MPS2.c:446:10
	ldr	r1, [r0, #24]
	movs	r0, #0
	.loc	4 446 23                        @ C:/Users/aj4775/AppData/Local/arm/packs/Keil/V2M-MPS2_IOTKit_BSP/1.5.2/CMSIS/Driver/USART_V2M-MPS2.c:446:23
	str	r0, [r1, #20]
	.loc	4 449 3 is_stmt 1               @ C:/Users/aj4775/AppData/Local/arm/packs/Keil/V2M-MPS2_IOTKit_BSP/1.5.2/CMSIS/Driver/USART_V2M-MPS2.c:449:3
	ldr	r1, [sp]
	.loc	4 449 10 is_stmt 0              @ C:/Users/aj4775/AppData/Local/arm/packs/Keil/V2M-MPS2_IOTKit_BSP/1.5.2/CMSIS/Driver/USART_V2M-MPS2.c:449:10
	ldr	r2, [r1, #12]
	.loc	4 449 20                        @ C:/Users/aj4775/AppData/Local/arm/packs/Keil/V2M-MPS2_IOTKit_BSP/1.5.2/CMSIS/Driver/USART_V2M-MPS2.c:449:20
	ldr	r1, [r2, #8]
	orr	r1, r1, #4
	str	r1, [r2, #8]
	.loc	4 452 22 is_stmt 1              @ C:/Users/aj4775/AppData/Local/arm/packs/Keil/V2M-MPS2_IOTKit_BSP/1.5.2/CMSIS/Driver/USART_V2M-MPS2.c:452:22
	ldr	r1, [sp]
	.loc	4 452 10 is_stmt 0              @ C:/Users/aj4775/AppData/Local/arm/packs/Keil/V2M-MPS2_IOTKit_BSP/1.5.2/CMSIS/Driver/USART_V2M-MPS2.c:452:10
	ldr	r2, [r1, #12]
	.loc	4 452 29                        @ C:/Users/aj4775/AppData/Local/arm/packs/Keil/V2M-MPS2_IOTKit_BSP/1.5.2/CMSIS/Driver/USART_V2M-MPS2.c:452:29
	ldr	r3, [r1, #24]
	.loc	4 452 35                        @ C:/Users/aj4775/AppData/Local/arm/packs/Keil/V2M-MPS2_IOTKit_BSP/1.5.2/CMSIS/Driver/USART_V2M-MPS2.c:452:35
	ldr	r1, [r3, #12]
	.loc	4 452 55                        @ C:/Users/aj4775/AppData/Local/arm/packs/Keil/V2M-MPS2_IOTKit_BSP/1.5.2/CMSIS/Driver/USART_V2M-MPS2.c:452:55
	ldr	r3, [r3, #20]
	.loc	4 452 22                        @ C:/Users/aj4775/AppData/Local/arm/packs/Keil/V2M-MPS2_IOTKit_BSP/1.5.2/CMSIS/Driver/USART_V2M-MPS2.c:452:22
	ldrb	r1, [r1, r3]
	.loc	4 452 20                        @ C:/Users/aj4775/AppData/Local/arm/packs/Keil/V2M-MPS2_IOTKit_BSP/1.5.2/CMSIS/Driver/USART_V2M-MPS2.c:452:20
	str	r1, [r2]
	.loc	4 454 3 is_stmt 1               @ C:/Users/aj4775/AppData/Local/arm/packs/Keil/V2M-MPS2_IOTKit_BSP/1.5.2/CMSIS/Driver/USART_V2M-MPS2.c:454:3
	str	r0, [sp, #12]
	b	.LBB25_9
.LBB25_9:
	.loc	4 455 1                         @ C:/Users/aj4775/AppData/Local/arm/packs/Keil/V2M-MPS2_IOTKit_BSP/1.5.2/CMSIS/Driver/USART_V2M-MPS2.c:455:1
	ldr	r0, [sp, #12]
	.loc	4 455 1 epilogue_begin is_stmt 0 @ C:/Users/aj4775/AppData/Local/arm/packs/Keil/V2M-MPS2_IOTKit_BSP/1.5.2/CMSIS/Driver/USART_V2M-MPS2.c:455:1
	add	sp, #16
	bx	lr
.Ltmp104:
.Lfunc_end25:
	.size	USART_Send, .Lfunc_end25-USART_Send
	.cfi_endproc
	.cantunwind
	.fnend
                                        @ -- End function
	.section	.text.USART_Receive,"ax",%progbits
	.p2align	2                               @ -- Begin function USART_Receive
	.type	USART_Receive,%function
	.code	16                              @ @USART_Receive
	.thumb_func
USART_Receive:
.Lfunc_begin26:
	.loc	4 469 0 is_stmt 1               @ C:/Users/aj4775/AppData/Local/arm/packs/Keil/V2M-MPS2_IOTKit_BSP/1.5.2/CMSIS/Driver/USART_V2M-MPS2.c:469:0
	.fnstart
	.cfi_startproc
@ %bb.0:
	.pad	#16
	sub	sp, #16
	.cfi_def_cfa_offset 16
	str	r0, [sp, #8]
	str	r1, [sp, #4]
	str	r2, [sp]
.Ltmp105:
	.loc	4 471 8 prologue_end            @ C:/Users/aj4775/AppData/Local/arm/packs/Keil/V2M-MPS2_IOTKit_BSP/1.5.2/CMSIS/Driver/USART_V2M-MPS2.c:471:8
	ldr	r0, [sp, #8]
	.loc	4 471 22 is_stmt 0              @ C:/Users/aj4775/AppData/Local/arm/packs/Keil/V2M-MPS2_IOTKit_BSP/1.5.2/CMSIS/Driver/USART_V2M-MPS2.c:471:22
	cbz	r0, .LBB26_2
	b	.LBB26_1
.LBB26_1:
	.loc	4 471 26                        @ C:/Users/aj4775/AppData/Local/arm/packs/Keil/V2M-MPS2_IOTKit_BSP/1.5.2/CMSIS/Driver/USART_V2M-MPS2.c:471:26
	ldr	r0, [sp, #4]
.Ltmp106:
	.loc	4 471 7                         @ C:/Users/aj4775/AppData/Local/arm/packs/Keil/V2M-MPS2_IOTKit_BSP/1.5.2/CMSIS/Driver/USART_V2M-MPS2.c:471:7
	cbnz	r0, .LBB26_3
	b	.LBB26_2
.LBB26_2:
	.loc	4 0 7                           @ C:/Users/aj4775/AppData/Local/arm/packs/Keil/V2M-MPS2_IOTKit_BSP/1.5.2/CMSIS/Driver/USART_V2M-MPS2.c:0:7
	mvn	r0, #4
.Ltmp107:
	.loc	4 473 5 is_stmt 1               @ C:/Users/aj4775/AppData/Local/arm/packs/Keil/V2M-MPS2_IOTKit_BSP/1.5.2/CMSIS/Driver/USART_V2M-MPS2.c:473:5
	str	r0, [sp, #12]
	b	.LBB26_9
.Ltmp108:
.LBB26_3:
	.loc	4 476 8                         @ C:/Users/aj4775/AppData/Local/arm/packs/Keil/V2M-MPS2_IOTKit_BSP/1.5.2/CMSIS/Driver/USART_V2M-MPS2.c:476:8
	ldr	r0, [sp]
	.loc	4 476 15 is_stmt 0              @ C:/Users/aj4775/AppData/Local/arm/packs/Keil/V2M-MPS2_IOTKit_BSP/1.5.2/CMSIS/Driver/USART_V2M-MPS2.c:476:15
	ldr	r0, [r0, #20]
	.loc	4 476 8                         @ C:/Users/aj4775/AppData/Local/arm/packs/Keil/V2M-MPS2_IOTKit_BSP/1.5.2/CMSIS/Driver/USART_V2M-MPS2.c:476:8
	ldrb	r0, [r0, #7]
.Ltmp109:
	.loc	4 476 7                         @ C:/Users/aj4775/AppData/Local/arm/packs/Keil/V2M-MPS2_IOTKit_BSP/1.5.2/CMSIS/Driver/USART_V2M-MPS2.c:476:7
	lsls	r0, r0, #29
	cmp	r0, #0
	bmi	.LBB26_5
	b	.LBB26_4
.LBB26_4:
	.loc	4 0 7                           @ C:/Users/aj4775/AppData/Local/arm/packs/Keil/V2M-MPS2_IOTKit_BSP/1.5.2/CMSIS/Driver/USART_V2M-MPS2.c:0:7
	mov.w	r0, #-1
.Ltmp110:
	.loc	4 478 5 is_stmt 1               @ C:/Users/aj4775/AppData/Local/arm/packs/Keil/V2M-MPS2_IOTKit_BSP/1.5.2/CMSIS/Driver/USART_V2M-MPS2.c:478:5
	str	r0, [sp, #12]
	b	.LBB26_9
.Ltmp111:
.LBB26_5:
	.loc	4 482 8                         @ C:/Users/aj4775/AppData/Local/arm/packs/Keil/V2M-MPS2_IOTKit_BSP/1.5.2/CMSIS/Driver/USART_V2M-MPS2.c:482:8
	ldr	r0, [sp]
	.loc	4 482 15 is_stmt 0              @ C:/Users/aj4775/AppData/Local/arm/packs/Keil/V2M-MPS2_IOTKit_BSP/1.5.2/CMSIS/Driver/USART_V2M-MPS2.c:482:15
	ldr	r0, [r0, #20]
	.loc	4 482 28                        @ C:/Users/aj4775/AppData/Local/arm/packs/Keil/V2M-MPS2_IOTKit_BSP/1.5.2/CMSIS/Driver/USART_V2M-MPS2.c:482:28
	ldrb	r0, [r0, #5]
	.loc	4 482 43                        @ C:/Users/aj4775/AppData/Local/arm/packs/Keil/V2M-MPS2_IOTKit_BSP/1.5.2/CMSIS/Driver/USART_V2M-MPS2.c:482:43
	cbnz	r0, .LBB26_7
	b	.LBB26_6
.LBB26_6:
	.loc	4 483 8 is_stmt 1               @ C:/Users/aj4775/AppData/Local/arm/packs/Keil/V2M-MPS2_IOTKit_BSP/1.5.2/CMSIS/Driver/USART_V2M-MPS2.c:483:8
	ldr	r0, [sp]
	.loc	4 483 15 is_stmt 0              @ C:/Users/aj4775/AppData/Local/arm/packs/Keil/V2M-MPS2_IOTKit_BSP/1.5.2/CMSIS/Driver/USART_V2M-MPS2.c:483:15
	ldr	r0, [r0, #12]
	.loc	4 483 20                        @ C:/Users/aj4775/AppData/Local/arm/packs/Keil/V2M-MPS2_IOTKit_BSP/1.5.2/CMSIS/Driver/USART_V2M-MPS2.c:483:20
	ldr	r0, [r0, #4]
.Ltmp112:
	.loc	4 482 7 is_stmt 1               @ C:/Users/aj4775/AppData/Local/arm/packs/Keil/V2M-MPS2_IOTKit_BSP/1.5.2/CMSIS/Driver/USART_V2M-MPS2.c:482:7
	lsls	r0, r0, #30
	cmp	r0, #0
	bpl	.LBB26_8
	b	.LBB26_7
.LBB26_7:
	.loc	4 0 7 is_stmt 0                 @ C:/Users/aj4775/AppData/Local/arm/packs/Keil/V2M-MPS2_IOTKit_BSP/1.5.2/CMSIS/Driver/USART_V2M-MPS2.c:0:7
	mvn	r0, #1
.Ltmp113:
	.loc	4 484 5 is_stmt 1               @ C:/Users/aj4775/AppData/Local/arm/packs/Keil/V2M-MPS2_IOTKit_BSP/1.5.2/CMSIS/Driver/USART_V2M-MPS2.c:484:5
	str	r0, [sp, #12]
	b	.LBB26_9
.Ltmp114:
.LBB26_8:
	.loc	4 488 25                        @ C:/Users/aj4775/AppData/Local/arm/packs/Keil/V2M-MPS2_IOTKit_BSP/1.5.2/CMSIS/Driver/USART_V2M-MPS2.c:488:25
	ldr	r0, [sp, #4]
	.loc	4 488 3 is_stmt 0               @ C:/Users/aj4775/AppData/Local/arm/packs/Keil/V2M-MPS2_IOTKit_BSP/1.5.2/CMSIS/Driver/USART_V2M-MPS2.c:488:3
	ldr	r1, [sp]
	.loc	4 488 10                        @ C:/Users/aj4775/AppData/Local/arm/packs/Keil/V2M-MPS2_IOTKit_BSP/1.5.2/CMSIS/Driver/USART_V2M-MPS2.c:488:10
	ldr	r1, [r1, #24]
	.loc	4 488 23                        @ C:/Users/aj4775/AppData/Local/arm/packs/Keil/V2M-MPS2_IOTKit_BSP/1.5.2/CMSIS/Driver/USART_V2M-MPS2.c:488:23
	str	r0, [r1]
	.loc	4 491 3 is_stmt 1               @ C:/Users/aj4775/AppData/Local/arm/packs/Keil/V2M-MPS2_IOTKit_BSP/1.5.2/CMSIS/Driver/USART_V2M-MPS2.c:491:3
	ldr	r0, [sp]
	.loc	4 491 10 is_stmt 0              @ C:/Users/aj4775/AppData/Local/arm/packs/Keil/V2M-MPS2_IOTKit_BSP/1.5.2/CMSIS/Driver/USART_V2M-MPS2.c:491:10
	ldr	r1, [r0, #20]
	movs	r0, #0
	.loc	4 491 35                        @ C:/Users/aj4775/AppData/Local/arm/packs/Keil/V2M-MPS2_IOTKit_BSP/1.5.2/CMSIS/Driver/USART_V2M-MPS2.c:491:35
	strb	r0, [r1, #6]
	.loc	4 494 36 is_stmt 1              @ C:/Users/aj4775/AppData/Local/arm/packs/Keil/V2M-MPS2_IOTKit_BSP/1.5.2/CMSIS/Driver/USART_V2M-MPS2.c:494:36
	ldr	r1, [sp, #8]
	.loc	4 494 3 is_stmt 0               @ C:/Users/aj4775/AppData/Local/arm/packs/Keil/V2M-MPS2_IOTKit_BSP/1.5.2/CMSIS/Driver/USART_V2M-MPS2.c:494:3
	ldr	r2, [sp]
	.loc	4 494 10                        @ C:/Users/aj4775/AppData/Local/arm/packs/Keil/V2M-MPS2_IOTKit_BSP/1.5.2/CMSIS/Driver/USART_V2M-MPS2.c:494:10
	ldr	r2, [r2, #24]
	.loc	4 494 23                        @ C:/Users/aj4775/AppData/Local/arm/packs/Keil/V2M-MPS2_IOTKit_BSP/1.5.2/CMSIS/Driver/USART_V2M-MPS2.c:494:23
	str	r1, [r2, #8]
	.loc	4 495 3 is_stmt 1               @ C:/Users/aj4775/AppData/Local/arm/packs/Keil/V2M-MPS2_IOTKit_BSP/1.5.2/CMSIS/Driver/USART_V2M-MPS2.c:495:3
	ldr	r1, [sp]
	.loc	4 495 10 is_stmt 0              @ C:/Users/aj4775/AppData/Local/arm/packs/Keil/V2M-MPS2_IOTKit_BSP/1.5.2/CMSIS/Driver/USART_V2M-MPS2.c:495:10
	ldr	r1, [r1, #24]
	.loc	4 495 23                        @ C:/Users/aj4775/AppData/Local/arm/packs/Keil/V2M-MPS2_IOTKit_BSP/1.5.2/CMSIS/Driver/USART_V2M-MPS2.c:495:23
	str	r0, [r1, #16]
	.loc	4 498 3 is_stmt 1               @ C:/Users/aj4775/AppData/Local/arm/packs/Keil/V2M-MPS2_IOTKit_BSP/1.5.2/CMSIS/Driver/USART_V2M-MPS2.c:498:3
	ldr	r1, [sp]
	.loc	4 498 10 is_stmt 0              @ C:/Users/aj4775/AppData/Local/arm/packs/Keil/V2M-MPS2_IOTKit_BSP/1.5.2/CMSIS/Driver/USART_V2M-MPS2.c:498:10
	ldr	r2, [r1, #20]
	movs	r1, #1
	.loc	4 498 31                        @ C:/Users/aj4775/AppData/Local/arm/packs/Keil/V2M-MPS2_IOTKit_BSP/1.5.2/CMSIS/Driver/USART_V2M-MPS2.c:498:31
	strb	r1, [r2, #5]
	.loc	4 501 3 is_stmt 1               @ C:/Users/aj4775/AppData/Local/arm/packs/Keil/V2M-MPS2_IOTKit_BSP/1.5.2/CMSIS/Driver/USART_V2M-MPS2.c:501:3
	ldr	r1, [sp]
	.loc	4 501 10 is_stmt 0              @ C:/Users/aj4775/AppData/Local/arm/packs/Keil/V2M-MPS2_IOTKit_BSP/1.5.2/CMSIS/Driver/USART_V2M-MPS2.c:501:10
	ldr	r2, [r1, #12]
	.loc	4 501 20                        @ C:/Users/aj4775/AppData/Local/arm/packs/Keil/V2M-MPS2_IOTKit_BSP/1.5.2/CMSIS/Driver/USART_V2M-MPS2.c:501:20
	ldr	r1, [r2, #8]
	orr	r1, r1, #8
	str	r1, [r2, #8]
	.loc	4 503 3 is_stmt 1               @ C:/Users/aj4775/AppData/Local/arm/packs/Keil/V2M-MPS2_IOTKit_BSP/1.5.2/CMSIS/Driver/USART_V2M-MPS2.c:503:3
	str	r0, [sp, #12]
	b	.LBB26_9
.LBB26_9:
	.loc	4 504 1                         @ C:/Users/aj4775/AppData/Local/arm/packs/Keil/V2M-MPS2_IOTKit_BSP/1.5.2/CMSIS/Driver/USART_V2M-MPS2.c:504:1
	ldr	r0, [sp, #12]
	.loc	4 504 1 epilogue_begin is_stmt 0 @ C:/Users/aj4775/AppData/Local/arm/packs/Keil/V2M-MPS2_IOTKit_BSP/1.5.2/CMSIS/Driver/USART_V2M-MPS2.c:504:1
	add	sp, #16
	bx	lr
.Ltmp115:
.Lfunc_end26:
	.size	USART_Receive, .Lfunc_end26-USART_Receive
	.cfi_endproc
	.cantunwind
	.fnend
                                        @ -- End function
	.section	.text.USART_Transfer,"ax",%progbits
	.p2align	2                               @ -- Begin function USART_Transfer
	.type	USART_Transfer,%function
	.code	16                              @ @USART_Transfer
	.thumb_func
USART_Transfer:
.Lfunc_begin27:
	.loc	4 521 0 is_stmt 1               @ C:/Users/aj4775/AppData/Local/arm/packs/Keil/V2M-MPS2_IOTKit_BSP/1.5.2/CMSIS/Driver/USART_V2M-MPS2.c:521:0
	.fnstart
	.cfi_startproc
@ %bb.0:
	.pad	#16
	sub	sp, #16
	.cfi_def_cfa_offset 16
	str	r0, [sp, #12]
	str	r1, [sp, #8]
	str	r2, [sp, #4]
	str	r3, [sp]
	mvn	r0, #3
.Ltmp116:
	.loc	4 528 3 prologue_end epilogue_begin @ C:/Users/aj4775/AppData/Local/arm/packs/Keil/V2M-MPS2_IOTKit_BSP/1.5.2/CMSIS/Driver/USART_V2M-MPS2.c:528:3
	add	sp, #16
	bx	lr
.Ltmp117:
.Lfunc_end27:
	.size	USART_Transfer, .Lfunc_end27-USART_Transfer
	.cfi_endproc
	.cantunwind
	.fnend
                                        @ -- End function
	.section	.text.USART_GetTxCount,"ax",%progbits
	.p2align	2                               @ -- Begin function USART_GetTxCount
	.type	USART_GetTxCount,%function
	.code	16                              @ @USART_GetTxCount
	.thumb_func
USART_GetTxCount:
.Lfunc_begin28:
	.loc	4 537 0                         @ C:/Users/aj4775/AppData/Local/arm/packs/Keil/V2M-MPS2_IOTKit_BSP/1.5.2/CMSIS/Driver/USART_V2M-MPS2.c:537:0
	.fnstart
	.cfi_startproc
@ %bb.0:
	.pad	#4
	sub	sp, #4
	.cfi_def_cfa_offset 4
	str	r0, [sp]
.Ltmp118:
	.loc	4 539 10 prologue_end           @ C:/Users/aj4775/AppData/Local/arm/packs/Keil/V2M-MPS2_IOTKit_BSP/1.5.2/CMSIS/Driver/USART_V2M-MPS2.c:539:10
	ldr	r0, [sp]
	.loc	4 539 17 is_stmt 0              @ C:/Users/aj4775/AppData/Local/arm/packs/Keil/V2M-MPS2_IOTKit_BSP/1.5.2/CMSIS/Driver/USART_V2M-MPS2.c:539:17
	ldr	r0, [r0, #24]
	.loc	4 539 23                        @ C:/Users/aj4775/AppData/Local/arm/packs/Keil/V2M-MPS2_IOTKit_BSP/1.5.2/CMSIS/Driver/USART_V2M-MPS2.c:539:23
	ldr	r0, [r0, #20]
	.loc	4 539 3 epilogue_begin          @ C:/Users/aj4775/AppData/Local/arm/packs/Keil/V2M-MPS2_IOTKit_BSP/1.5.2/CMSIS/Driver/USART_V2M-MPS2.c:539:3
	add	sp, #4
	bx	lr
.Ltmp119:
.Lfunc_end28:
	.size	USART_GetTxCount, .Lfunc_end28-USART_GetTxCount
	.cfi_endproc
	.cantunwind
	.fnend
                                        @ -- End function
	.section	.text.USART_GetRxCount,"ax",%progbits
	.p2align	2                               @ -- Begin function USART_GetRxCount
	.type	USART_GetRxCount,%function
	.code	16                              @ @USART_GetRxCount
	.thumb_func
USART_GetRxCount:
.Lfunc_begin29:
	.loc	4 549 0 is_stmt 1               @ C:/Users/aj4775/AppData/Local/arm/packs/Keil/V2M-MPS2_IOTKit_BSP/1.5.2/CMSIS/Driver/USART_V2M-MPS2.c:549:0
	.fnstart
	.cfi_startproc
@ %bb.0:
	.pad	#4
	sub	sp, #4
	.cfi_def_cfa_offset 4
	str	r0, [sp]
.Ltmp120:
	.loc	4 551 10 prologue_end           @ C:/Users/aj4775/AppData/Local/arm/packs/Keil/V2M-MPS2_IOTKit_BSP/1.5.2/CMSIS/Driver/USART_V2M-MPS2.c:551:10
	ldr	r0, [sp]
	.loc	4 551 17 is_stmt 0              @ C:/Users/aj4775/AppData/Local/arm/packs/Keil/V2M-MPS2_IOTKit_BSP/1.5.2/CMSIS/Driver/USART_V2M-MPS2.c:551:17
	ldr	r0, [r0, #24]
	.loc	4 551 23                        @ C:/Users/aj4775/AppData/Local/arm/packs/Keil/V2M-MPS2_IOTKit_BSP/1.5.2/CMSIS/Driver/USART_V2M-MPS2.c:551:23
	ldr	r0, [r0, #16]
	.loc	4 551 3 epilogue_begin          @ C:/Users/aj4775/AppData/Local/arm/packs/Keil/V2M-MPS2_IOTKit_BSP/1.5.2/CMSIS/Driver/USART_V2M-MPS2.c:551:3
	add	sp, #4
	bx	lr
.Ltmp121:
.Lfunc_end29:
	.size	USART_GetRxCount, .Lfunc_end29-USART_GetRxCount
	.cfi_endproc
	.cantunwind
	.fnend
                                        @ -- End function
	.section	.text.USART_Control,"ax",%progbits
	.p2align	2                               @ -- Begin function USART_Control
	.type	USART_Control,%function
	.code	16                              @ @USART_Control
	.thumb_func
USART_Control:
.Lfunc_begin30:
	.loc	4 567 0 is_stmt 1               @ C:/Users/aj4775/AppData/Local/arm/packs/Keil/V2M-MPS2_IOTKit_BSP/1.5.2/CMSIS/Driver/USART_V2M-MPS2.c:567:0
	.fnstart
	.cfi_startproc
@ %bb.0:
	.pad	#20
	sub	sp, #20
	.cfi_def_cfa_offset 20
	str	r0, [sp, #12]
	str	r1, [sp, #8]
	str	r2, [sp, #4]
.Ltmp122:
	.loc	4 569 8 prologue_end            @ C:/Users/aj4775/AppData/Local/arm/packs/Keil/V2M-MPS2_IOTKit_BSP/1.5.2/CMSIS/Driver/USART_V2M-MPS2.c:569:8
	ldr	r0, [sp, #4]
	.loc	4 569 15 is_stmt 0              @ C:/Users/aj4775/AppData/Local/arm/packs/Keil/V2M-MPS2_IOTKit_BSP/1.5.2/CMSIS/Driver/USART_V2M-MPS2.c:569:15
	ldr	r0, [r0, #20]
	.loc	4 569 8                         @ C:/Users/aj4775/AppData/Local/arm/packs/Keil/V2M-MPS2_IOTKit_BSP/1.5.2/CMSIS/Driver/USART_V2M-MPS2.c:569:8
	ldrb	r0, [r0, #7]
.Ltmp123:
	.loc	4 569 7                         @ C:/Users/aj4775/AppData/Local/arm/packs/Keil/V2M-MPS2_IOTKit_BSP/1.5.2/CMSIS/Driver/USART_V2M-MPS2.c:569:7
	lsls	r0, r0, #30
	cmp	r0, #0
	bmi	.LBB30_2
	b	.LBB30_1
.LBB30_1:
	.loc	4 0 7                           @ C:/Users/aj4775/AppData/Local/arm/packs/Keil/V2M-MPS2_IOTKit_BSP/1.5.2/CMSIS/Driver/USART_V2M-MPS2.c:0:7
	mov.w	r0, #-1
.Ltmp124:
	.loc	4 571 5 is_stmt 1               @ C:/Users/aj4775/AppData/Local/arm/packs/Keil/V2M-MPS2_IOTKit_BSP/1.5.2/CMSIS/Driver/USART_V2M-MPS2.c:571:5
	str	r0, [sp, #16]
	b	.LBB30_35
.Ltmp125:
.LBB30_2:
	.loc	4 574 11                        @ C:/Users/aj4775/AppData/Local/arm/packs/Keil/V2M-MPS2_IOTKit_BSP/1.5.2/CMSIS/Driver/USART_V2M-MPS2.c:574:11
	ldrb.w	r0, [sp, #12]
	.loc	4 574 3 is_stmt 0               @ C:/Users/aj4775/AppData/Local/arm/packs/Keil/V2M-MPS2_IOTKit_BSP/1.5.2/CMSIS/Driver/USART_V2M-MPS2.c:574:3
	subs	r0, #21
	mov	r1, r0
	str	r1, [sp]                        @ 4-byte Spill
	cmp	r0, #5
	bhi	.LBB30_11
@ %bb.3:
	ldr	r1, [sp]                        @ 4-byte Reload
.LCPI30_0:
	tbb	[pc, r1]
@ %bb.4:
	.loc	4 0 3                           @ C:/Users/aj4775/AppData/Local/arm/packs/Keil/V2M-MPS2_IOTKit_BSP/1.5.2/CMSIS/Driver/USART_V2M-MPS2.c:0:3
.LJTI30_0:
	.byte	(.LBB30_9-(.LCPI30_0+4))/2
	.byte	(.LBB30_10-(.LCPI30_0+4))/2
	.byte	(.LBB30_5-(.LCPI30_0+4))/2
	.byte	(.LBB30_6-(.LCPI30_0+4))/2
	.byte	(.LBB30_7-(.LCPI30_0+4))/2
	.byte	(.LBB30_8-(.LCPI30_0+4))/2
	.p2align	1
.LBB30_5:
	mvn	r0, #3
.Ltmp126:
	.loc	4 577 7 is_stmt 1               @ C:/Users/aj4775/AppData/Local/arm/packs/Keil/V2M-MPS2_IOTKit_BSP/1.5.2/CMSIS/Driver/USART_V2M-MPS2.c:577:7
	str	r0, [sp, #16]
	b	.LBB30_35
.LBB30_6:
	.loc	4 582 7                         @ C:/Users/aj4775/AppData/Local/arm/packs/Keil/V2M-MPS2_IOTKit_BSP/1.5.2/CMSIS/Driver/USART_V2M-MPS2.c:582:7
	ldr	r0, [sp, #4]
	.loc	4 582 14 is_stmt 0              @ C:/Users/aj4775/AppData/Local/arm/packs/Keil/V2M-MPS2_IOTKit_BSP/1.5.2/CMSIS/Driver/USART_V2M-MPS2.c:582:14
	ldr	r1, [r0, #12]
	.loc	4 582 24                        @ C:/Users/aj4775/AppData/Local/arm/packs/Keil/V2M-MPS2_IOTKit_BSP/1.5.2/CMSIS/Driver/USART_V2M-MPS2.c:582:24
	ldr	r0, [r1, #8]
	bic	r0, r0, #4
	str	r0, [r1, #8]
	.loc	4 584 7 is_stmt 1               @ C:/Users/aj4775/AppData/Local/arm/packs/Keil/V2M-MPS2_IOTKit_BSP/1.5.2/CMSIS/Driver/USART_V2M-MPS2.c:584:7
	ldr	r0, [sp, #4]
	.loc	4 584 14 is_stmt 0              @ C:/Users/aj4775/AppData/Local/arm/packs/Keil/V2M-MPS2_IOTKit_BSP/1.5.2/CMSIS/Driver/USART_V2M-MPS2.c:584:14
	ldr	r1, [r0, #20]
	movs	r0, #0
	.loc	4 584 35                        @ C:/Users/aj4775/AppData/Local/arm/packs/Keil/V2M-MPS2_IOTKit_BSP/1.5.2/CMSIS/Driver/USART_V2M-MPS2.c:584:35
	strb	r0, [r1, #4]
	.loc	4 585 7 is_stmt 1               @ C:/Users/aj4775/AppData/Local/arm/packs/Keil/V2M-MPS2_IOTKit_BSP/1.5.2/CMSIS/Driver/USART_V2M-MPS2.c:585:7
	str	r0, [sp, #16]
	b	.LBB30_35
.LBB30_7:
	.loc	4 590 7                         @ C:/Users/aj4775/AppData/Local/arm/packs/Keil/V2M-MPS2_IOTKit_BSP/1.5.2/CMSIS/Driver/USART_V2M-MPS2.c:590:7
	ldr	r0, [sp, #4]
	.loc	4 590 14 is_stmt 0              @ C:/Users/aj4775/AppData/Local/arm/packs/Keil/V2M-MPS2_IOTKit_BSP/1.5.2/CMSIS/Driver/USART_V2M-MPS2.c:590:14
	ldr	r1, [r0, #12]
	.loc	4 590 24                        @ C:/Users/aj4775/AppData/Local/arm/packs/Keil/V2M-MPS2_IOTKit_BSP/1.5.2/CMSIS/Driver/USART_V2M-MPS2.c:590:24
	ldr	r0, [r1, #8]
	bic	r0, r0, #8
	str	r0, [r1, #8]
	.loc	4 592 7 is_stmt 1               @ C:/Users/aj4775/AppData/Local/arm/packs/Keil/V2M-MPS2_IOTKit_BSP/1.5.2/CMSIS/Driver/USART_V2M-MPS2.c:592:7
	ldr	r0, [sp, #4]
	.loc	4 592 14 is_stmt 0              @ C:/Users/aj4775/AppData/Local/arm/packs/Keil/V2M-MPS2_IOTKit_BSP/1.5.2/CMSIS/Driver/USART_V2M-MPS2.c:592:14
	ldr	r1, [r0, #20]
	movs	r0, #0
	.loc	4 592 35                        @ C:/Users/aj4775/AppData/Local/arm/packs/Keil/V2M-MPS2_IOTKit_BSP/1.5.2/CMSIS/Driver/USART_V2M-MPS2.c:592:35
	strb	r0, [r1, #5]
	.loc	4 593 7 is_stmt 1               @ C:/Users/aj4775/AppData/Local/arm/packs/Keil/V2M-MPS2_IOTKit_BSP/1.5.2/CMSIS/Driver/USART_V2M-MPS2.c:593:7
	str	r0, [sp, #16]
	b	.LBB30_35
.LBB30_8:
	.loc	4 0 7 is_stmt 0                 @ C:/Users/aj4775/AppData/Local/arm/packs/Keil/V2M-MPS2_IOTKit_BSP/1.5.2/CMSIS/Driver/USART_V2M-MPS2.c:0:7
	mvn	r0, #3
	.loc	4 598 7 is_stmt 1               @ C:/Users/aj4775/AppData/Local/arm/packs/Keil/V2M-MPS2_IOTKit_BSP/1.5.2/CMSIS/Driver/USART_V2M-MPS2.c:598:7
	str	r0, [sp, #16]
	b	.LBB30_35
.LBB30_9:
	.loc	4 602 7                         @ C:/Users/aj4775/AppData/Local/arm/packs/Keil/V2M-MPS2_IOTKit_BSP/1.5.2/CMSIS/Driver/USART_V2M-MPS2.c:602:7
	ldr	r0, [sp, #4]
	.loc	4 602 14 is_stmt 0              @ C:/Users/aj4775/AppData/Local/arm/packs/Keil/V2M-MPS2_IOTKit_BSP/1.5.2/CMSIS/Driver/USART_V2M-MPS2.c:602:14
	ldr	r1, [r0, #20]
	.loc	4 602 26                        @ C:/Users/aj4775/AppData/Local/arm/packs/Keil/V2M-MPS2_IOTKit_BSP/1.5.2/CMSIS/Driver/USART_V2M-MPS2.c:602:26
	ldrb	r0, [r1, #7]
	orr	r0, r0, #8
	strb	r0, [r1, #7]
	.loc	4 604 29 is_stmt 1              @ C:/Users/aj4775/AppData/Local/arm/packs/Keil/V2M-MPS2_IOTKit_BSP/1.5.2/CMSIS/Driver/USART_V2M-MPS2.c:604:29
	ldr	r0, [sp, #8]
	.loc	4 604 33 is_stmt 0              @ C:/Users/aj4775/AppData/Local/arm/packs/Keil/V2M-MPS2_IOTKit_BSP/1.5.2/CMSIS/Driver/USART_V2M-MPS2.c:604:33
	and	r2, r0, #1
	.loc	4 604 7                         @ C:/Users/aj4775/AppData/Local/arm/packs/Keil/V2M-MPS2_IOTKit_BSP/1.5.2/CMSIS/Driver/USART_V2M-MPS2.c:604:7
	ldr	r0, [sp, #4]
	.loc	4 604 14                        @ C:/Users/aj4775/AppData/Local/arm/packs/Keil/V2M-MPS2_IOTKit_BSP/1.5.2/CMSIS/Driver/USART_V2M-MPS2.c:604:14
	ldr	r1, [r0, #12]
	.loc	4 604 24                        @ C:/Users/aj4775/AppData/Local/arm/packs/Keil/V2M-MPS2_IOTKit_BSP/1.5.2/CMSIS/Driver/USART_V2M-MPS2.c:604:24
	ldr	r0, [r1, #8]
	orrs	r0, r2
	str	r0, [r1, #8]
	movs	r0, #0
	.loc	4 605 7 is_stmt 1               @ C:/Users/aj4775/AppData/Local/arm/packs/Keil/V2M-MPS2_IOTKit_BSP/1.5.2/CMSIS/Driver/USART_V2M-MPS2.c:605:7
	str	r0, [sp, #16]
	b	.LBB30_35
.LBB30_10:
	.loc	4 609 7                         @ C:/Users/aj4775/AppData/Local/arm/packs/Keil/V2M-MPS2_IOTKit_BSP/1.5.2/CMSIS/Driver/USART_V2M-MPS2.c:609:7
	ldr	r0, [sp, #4]
	.loc	4 609 14 is_stmt 0              @ C:/Users/aj4775/AppData/Local/arm/packs/Keil/V2M-MPS2_IOTKit_BSP/1.5.2/CMSIS/Driver/USART_V2M-MPS2.c:609:14
	ldr	r1, [r0, #20]
	.loc	4 609 26                        @ C:/Users/aj4775/AppData/Local/arm/packs/Keil/V2M-MPS2_IOTKit_BSP/1.5.2/CMSIS/Driver/USART_V2M-MPS2.c:609:26
	ldrb	r0, [r1, #7]
	orr	r0, r0, #16
	strb	r0, [r1, #7]
	.loc	4 611 29 is_stmt 1              @ C:/Users/aj4775/AppData/Local/arm/packs/Keil/V2M-MPS2_IOTKit_BSP/1.5.2/CMSIS/Driver/USART_V2M-MPS2.c:611:29
	ldr	r0, [sp, #8]
	.loc	4 611 33 is_stmt 0              @ C:/Users/aj4775/AppData/Local/arm/packs/Keil/V2M-MPS2_IOTKit_BSP/1.5.2/CMSIS/Driver/USART_V2M-MPS2.c:611:33
	and	r2, r0, #1
	.loc	4 611 7                         @ C:/Users/aj4775/AppData/Local/arm/packs/Keil/V2M-MPS2_IOTKit_BSP/1.5.2/CMSIS/Driver/USART_V2M-MPS2.c:611:7
	ldr	r0, [sp, #4]
	.loc	4 611 14                        @ C:/Users/aj4775/AppData/Local/arm/packs/Keil/V2M-MPS2_IOTKit_BSP/1.5.2/CMSIS/Driver/USART_V2M-MPS2.c:611:14
	ldr	r1, [r0, #12]
	.loc	4 611 24                        @ C:/Users/aj4775/AppData/Local/arm/packs/Keil/V2M-MPS2_IOTKit_BSP/1.5.2/CMSIS/Driver/USART_V2M-MPS2.c:611:24
	ldr	r0, [r1, #8]
	orr.w	r0, r0, r2, lsl #1
	str	r0, [r1, #8]
	movs	r0, #0
	.loc	4 612 7 is_stmt 1               @ C:/Users/aj4775/AppData/Local/arm/packs/Keil/V2M-MPS2_IOTKit_BSP/1.5.2/CMSIS/Driver/USART_V2M-MPS2.c:612:7
	str	r0, [sp, #16]
	b	.LBB30_35
.LBB30_11:
	.loc	4 613 14                        @ C:/Users/aj4775/AppData/Local/arm/packs/Keil/V2M-MPS2_IOTKit_BSP/1.5.2/CMSIS/Driver/USART_V2M-MPS2.c:613:14
	b	.LBB30_12
.Ltmp127:
.LBB30_12:
	.loc	4 617 8                         @ C:/Users/aj4775/AppData/Local/arm/packs/Keil/V2M-MPS2_IOTKit_BSP/1.5.2/CMSIS/Driver/USART_V2M-MPS2.c:617:8
	ldr	r0, [sp, #4]
	.loc	4 617 15 is_stmt 0              @ C:/Users/aj4775/AppData/Local/arm/packs/Keil/V2M-MPS2_IOTKit_BSP/1.5.2/CMSIS/Driver/USART_V2M-MPS2.c:617:15
	ldr	r0, [r0, #20]
	.loc	4 617 28                        @ C:/Users/aj4775/AppData/Local/arm/packs/Keil/V2M-MPS2_IOTKit_BSP/1.5.2/CMSIS/Driver/USART_V2M-MPS2.c:617:28
	ldrb	r0, [r0, #4]
	.loc	4 617 43                        @ C:/Users/aj4775/AppData/Local/arm/packs/Keil/V2M-MPS2_IOTKit_BSP/1.5.2/CMSIS/Driver/USART_V2M-MPS2.c:617:43
	cbnz	r0, .LBB30_15
	b	.LBB30_13
.LBB30_13:
	.loc	4 618 8 is_stmt 1               @ C:/Users/aj4775/AppData/Local/arm/packs/Keil/V2M-MPS2_IOTKit_BSP/1.5.2/CMSIS/Driver/USART_V2M-MPS2.c:618:8
	ldr	r0, [sp, #4]
	.loc	4 618 15 is_stmt 0              @ C:/Users/aj4775/AppData/Local/arm/packs/Keil/V2M-MPS2_IOTKit_BSP/1.5.2/CMSIS/Driver/USART_V2M-MPS2.c:618:15
	ldr	r0, [r0, #20]
	.loc	4 618 28                        @ C:/Users/aj4775/AppData/Local/arm/packs/Keil/V2M-MPS2_IOTKit_BSP/1.5.2/CMSIS/Driver/USART_V2M-MPS2.c:618:28
	ldrb	r0, [r0, #5]
	.loc	4 618 43                        @ C:/Users/aj4775/AppData/Local/arm/packs/Keil/V2M-MPS2_IOTKit_BSP/1.5.2/CMSIS/Driver/USART_V2M-MPS2.c:618:43
	cbnz	r0, .LBB30_15
	b	.LBB30_14
.LBB30_14:
	.loc	4 619 8 is_stmt 1               @ C:/Users/aj4775/AppData/Local/arm/packs/Keil/V2M-MPS2_IOTKit_BSP/1.5.2/CMSIS/Driver/USART_V2M-MPS2.c:619:8
	ldr	r0, [sp, #4]
	.loc	4 619 15 is_stmt 0              @ C:/Users/aj4775/AppData/Local/arm/packs/Keil/V2M-MPS2_IOTKit_BSP/1.5.2/CMSIS/Driver/USART_V2M-MPS2.c:619:15
	ldr	r0, [r0, #12]
	.loc	4 619 20                        @ C:/Users/aj4775/AppData/Local/arm/packs/Keil/V2M-MPS2_IOTKit_BSP/1.5.2/CMSIS/Driver/USART_V2M-MPS2.c:619:20
	ldr	r0, [r0, #4]
.Ltmp128:
	.loc	4 617 7 is_stmt 1               @ C:/Users/aj4775/AppData/Local/arm/packs/Keil/V2M-MPS2_IOTKit_BSP/1.5.2/CMSIS/Driver/USART_V2M-MPS2.c:617:7
	lsls	r0, r0, #30
	cbz	r0, .LBB30_16
	b	.LBB30_15
.LBB30_15:
	.loc	4 0 7 is_stmt 0                 @ C:/Users/aj4775/AppData/Local/arm/packs/Keil/V2M-MPS2_IOTKit_BSP/1.5.2/CMSIS/Driver/USART_V2M-MPS2.c:0:7
	mvn	r0, #1
.Ltmp129:
	.loc	4 620 5 is_stmt 1               @ C:/Users/aj4775/AppData/Local/arm/packs/Keil/V2M-MPS2_IOTKit_BSP/1.5.2/CMSIS/Driver/USART_V2M-MPS2.c:620:5
	str	r0, [sp, #16]
	b	.LBB30_35
.Ltmp130:
.LBB30_16:
	.loc	4 623 11                        @ C:/Users/aj4775/AppData/Local/arm/packs/Keil/V2M-MPS2_IOTKit_BSP/1.5.2/CMSIS/Driver/USART_V2M-MPS2.c:623:11
	ldrb.w	r0, [sp, #12]
	.loc	4 623 3 is_stmt 0               @ C:/Users/aj4775/AppData/Local/arm/packs/Keil/V2M-MPS2_IOTKit_BSP/1.5.2/CMSIS/Driver/USART_V2M-MPS2.c:623:3
	cmp	r0, #1
	bne	.LBB30_18
	b	.LBB30_17
.LBB30_17:
.Ltmp131:
	.loc	4 624 39 is_stmt 1              @ C:/Users/aj4775/AppData/Local/arm/packs/Keil/V2M-MPS2_IOTKit_BSP/1.5.2/CMSIS/Driver/USART_V2M-MPS2.c:624:39
	b	.LBB30_19
.LBB30_18:
	.loc	4 0 39 is_stmt 0                @ C:/Users/aj4775/AppData/Local/arm/packs/Keil/V2M-MPS2_IOTKit_BSP/1.5.2/CMSIS/Driver/USART_V2M-MPS2.c:0:39
	mvn	r0, #3
	.loc	4 626 14 is_stmt 1              @ C:/Users/aj4775/AppData/Local/arm/packs/Keil/V2M-MPS2_IOTKit_BSP/1.5.2/CMSIS/Driver/USART_V2M-MPS2.c:626:14
	str	r0, [sp, #16]
	b	.LBB30_35
.Ltmp132:
.LBB30_19:
	.loc	4 630 3                         @ C:/Users/aj4775/AppData/Local/arm/packs/Keil/V2M-MPS2_IOTKit_BSP/1.5.2/CMSIS/Driver/USART_V2M-MPS2.c:630:3
	ldrb.w	r0, [sp, #13]
	lsls	r0, r0, #29
	cbnz	r0, .LBB30_21
	b	.LBB30_20
.LBB30_20:
.Ltmp133:
	.loc	4 631 33                        @ C:/Users/aj4775/AppData/Local/arm/packs/Keil/V2M-MPS2_IOTKit_BSP/1.5.2/CMSIS/Driver/USART_V2M-MPS2.c:631:33
	b	.LBB30_22
.LBB30_21:
	.loc	4 0 33 is_stmt 0                @ C:/Users/aj4775/AppData/Local/arm/packs/Keil/V2M-MPS2_IOTKit_BSP/1.5.2/CMSIS/Driver/USART_V2M-MPS2.c:0:33
	mvn	r0, #8
	.loc	4 632 14 is_stmt 1              @ C:/Users/aj4775/AppData/Local/arm/packs/Keil/V2M-MPS2_IOTKit_BSP/1.5.2/CMSIS/Driver/USART_V2M-MPS2.c:632:14
	str	r0, [sp, #16]
	b	.LBB30_35
.Ltmp134:
.LBB30_22:
	.loc	4 636 3                         @ C:/Users/aj4775/AppData/Local/arm/packs/Keil/V2M-MPS2_IOTKit_BSP/1.5.2/CMSIS/Driver/USART_V2M-MPS2.c:636:3
	ldrb.w	r0, [sp, #13]
	tst.w	r0, #48
	bne	.LBB30_24
	b	.LBB30_23
.LBB30_23:
.Ltmp135:
	.loc	4 637 33                        @ C:/Users/aj4775/AppData/Local/arm/packs/Keil/V2M-MPS2_IOTKit_BSP/1.5.2/CMSIS/Driver/USART_V2M-MPS2.c:637:33
	b	.LBB30_25
.LBB30_24:
	.loc	4 0 33 is_stmt 0                @ C:/Users/aj4775/AppData/Local/arm/packs/Keil/V2M-MPS2_IOTKit_BSP/1.5.2/CMSIS/Driver/USART_V2M-MPS2.c:0:33
	mvn	r0, #9
	.loc	4 638 14 is_stmt 1              @ C:/Users/aj4775/AppData/Local/arm/packs/Keil/V2M-MPS2_IOTKit_BSP/1.5.2/CMSIS/Driver/USART_V2M-MPS2.c:638:14
	str	r0, [sp, #16]
	b	.LBB30_35
.Ltmp136:
.LBB30_25:
	.loc	4 642 3                         @ C:/Users/aj4775/AppData/Local/arm/packs/Keil/V2M-MPS2_IOTKit_BSP/1.5.2/CMSIS/Driver/USART_V2M-MPS2.c:642:3
	ldrb.w	r0, [sp, #13]
	tst.w	r0, #192
	bne	.LBB30_27
	b	.LBB30_26
.LBB30_26:
.Ltmp137:
	.loc	4 643 33                        @ C:/Users/aj4775/AppData/Local/arm/packs/Keil/V2M-MPS2_IOTKit_BSP/1.5.2/CMSIS/Driver/USART_V2M-MPS2.c:643:33
	b	.LBB30_28
.LBB30_27:
	.loc	4 0 33 is_stmt 0                @ C:/Users/aj4775/AppData/Local/arm/packs/Keil/V2M-MPS2_IOTKit_BSP/1.5.2/CMSIS/Driver/USART_V2M-MPS2.c:0:33
	mvn	r0, #10
	.loc	4 644 14 is_stmt 1              @ C:/Users/aj4775/AppData/Local/arm/packs/Keil/V2M-MPS2_IOTKit_BSP/1.5.2/CMSIS/Driver/USART_V2M-MPS2.c:644:14
	str	r0, [sp, #16]
	b	.LBB30_35
.Ltmp138:
.LBB30_28:
	.loc	4 648 3                         @ C:/Users/aj4775/AppData/Local/arm/packs/Keil/V2M-MPS2_IOTKit_BSP/1.5.2/CMSIS/Driver/USART_V2M-MPS2.c:648:3
	ldrb.w	r0, [sp, #14]
	lsls	r0, r0, #30
	cbnz	r0, .LBB30_30
	b	.LBB30_29
.LBB30_29:
.Ltmp139:
	.loc	4 649 39                        @ C:/Users/aj4775/AppData/Local/arm/packs/Keil/V2M-MPS2_IOTKit_BSP/1.5.2/CMSIS/Driver/USART_V2M-MPS2.c:649:39
	b	.LBB30_31
.LBB30_30:
	.loc	4 0 39 is_stmt 0                @ C:/Users/aj4775/AppData/Local/arm/packs/Keil/V2M-MPS2_IOTKit_BSP/1.5.2/CMSIS/Driver/USART_V2M-MPS2.c:0:39
	mvn	r0, #11
	.loc	4 650 14 is_stmt 1              @ C:/Users/aj4775/AppData/Local/arm/packs/Keil/V2M-MPS2_IOTKit_BSP/1.5.2/CMSIS/Driver/USART_V2M-MPS2.c:650:14
	str	r0, [sp, #16]
	b	.LBB30_35
.Ltmp140:
.LBB30_31:
	.loc	4 654 8                         @ C:/Users/aj4775/AppData/Local/arm/packs/Keil/V2M-MPS2_IOTKit_BSP/1.5.2/CMSIS/Driver/USART_V2M-MPS2.c:654:8
	movw	r0, :lower16:SystemCoreClock
	movt	r0, :upper16:SystemCoreClock
	ldr	r0, [r0]
	.loc	4 654 24 is_stmt 0              @ C:/Users/aj4775/AppData/Local/arm/packs/Keil/V2M-MPS2_IOTKit_BSP/1.5.2/CMSIS/Driver/USART_V2M-MPS2.c:654:24
	ldr	r1, [sp, #8]
	.loc	4 654 23                        @ C:/Users/aj4775/AppData/Local/arm/packs/Keil/V2M-MPS2_IOTKit_BSP/1.5.2/CMSIS/Driver/USART_V2M-MPS2.c:654:23
	udiv	r0, r0, r1
.Ltmp141:
	.loc	4 654 7                         @ C:/Users/aj4775/AppData/Local/arm/packs/Keil/V2M-MPS2_IOTKit_BSP/1.5.2/CMSIS/Driver/USART_V2M-MPS2.c:654:7
	cmp	r0, #15
	bhi	.LBB30_33
	b	.LBB30_32
.LBB30_32:
	.loc	4 0 7                           @ C:/Users/aj4775/AppData/Local/arm/packs/Keil/V2M-MPS2_IOTKit_BSP/1.5.2/CMSIS/Driver/USART_V2M-MPS2.c:0:7
	mvn	r0, #7
.Ltmp142:
	.loc	4 655 5 is_stmt 1               @ C:/Users/aj4775/AppData/Local/arm/packs/Keil/V2M-MPS2_IOTKit_BSP/1.5.2/CMSIS/Driver/USART_V2M-MPS2.c:655:5
	str	r0, [sp, #16]
	b	.LBB30_35
.LBB30_33:
	.loc	4 657 27                        @ C:/Users/aj4775/AppData/Local/arm/packs/Keil/V2M-MPS2_IOTKit_BSP/1.5.2/CMSIS/Driver/USART_V2M-MPS2.c:657:27
	movw	r0, :lower16:SystemCoreClock
	movt	r0, :upper16:SystemCoreClock
	ldr	r0, [r0]
	.loc	4 657 43 is_stmt 0              @ C:/Users/aj4775/AppData/Local/arm/packs/Keil/V2M-MPS2_IOTKit_BSP/1.5.2/CMSIS/Driver/USART_V2M-MPS2.c:657:43
	ldr	r1, [sp, #8]
	.loc	4 657 42                        @ C:/Users/aj4775/AppData/Local/arm/packs/Keil/V2M-MPS2_IOTKit_BSP/1.5.2/CMSIS/Driver/USART_V2M-MPS2.c:657:42
	udiv	r0, r0, r1
	.loc	4 657 5                         @ C:/Users/aj4775/AppData/Local/arm/packs/Keil/V2M-MPS2_IOTKit_BSP/1.5.2/CMSIS/Driver/USART_V2M-MPS2.c:657:5
	ldr	r1, [sp, #4]
	.loc	4 657 12                        @ C:/Users/aj4775/AppData/Local/arm/packs/Keil/V2M-MPS2_IOTKit_BSP/1.5.2/CMSIS/Driver/USART_V2M-MPS2.c:657:12
	ldr	r1, [r1, #12]
	.loc	4 657 25                        @ C:/Users/aj4775/AppData/Local/arm/packs/Keil/V2M-MPS2_IOTKit_BSP/1.5.2/CMSIS/Driver/USART_V2M-MPS2.c:657:25
	str	r0, [r1, #16]
	b	.LBB30_34
.Ltmp143:
.LBB30_34:
	.loc	4 660 3 is_stmt 1               @ C:/Users/aj4775/AppData/Local/arm/packs/Keil/V2M-MPS2_IOTKit_BSP/1.5.2/CMSIS/Driver/USART_V2M-MPS2.c:660:3
	ldr	r0, [sp, #4]
	.loc	4 660 10 is_stmt 0              @ C:/Users/aj4775/AppData/Local/arm/packs/Keil/V2M-MPS2_IOTKit_BSP/1.5.2/CMSIS/Driver/USART_V2M-MPS2.c:660:10
	ldr	r1, [r0, #20]
	.loc	4 660 22                        @ C:/Users/aj4775/AppData/Local/arm/packs/Keil/V2M-MPS2_IOTKit_BSP/1.5.2/CMSIS/Driver/USART_V2M-MPS2.c:660:22
	ldrb	r0, [r1, #7]
	orr	r0, r0, #4
	strb	r0, [r1, #7]
	movs	r0, #0
	.loc	4 662 3 is_stmt 1               @ C:/Users/aj4775/AppData/Local/arm/packs/Keil/V2M-MPS2_IOTKit_BSP/1.5.2/CMSIS/Driver/USART_V2M-MPS2.c:662:3
	str	r0, [sp, #16]
	b	.LBB30_35
.LBB30_35:
	.loc	4 663 1                         @ C:/Users/aj4775/AppData/Local/arm/packs/Keil/V2M-MPS2_IOTKit_BSP/1.5.2/CMSIS/Driver/USART_V2M-MPS2.c:663:1
	ldr	r0, [sp, #16]
	.loc	4 663 1 epilogue_begin is_stmt 0 @ C:/Users/aj4775/AppData/Local/arm/packs/Keil/V2M-MPS2_IOTKit_BSP/1.5.2/CMSIS/Driver/USART_V2M-MPS2.c:663:1
	add	sp, #20
	bx	lr
.Ltmp144:
.Lfunc_end30:
	.size	USART_Control, .Lfunc_end30-USART_Control
	.cfi_endproc
	.cantunwind
	.fnend
                                        @ -- End function
	.section	.text.USART_GetStatus,"ax",%progbits
	.p2align	2                               @ -- Begin function USART_GetStatus
	.type	USART_GetStatus,%function
	.code	16                              @ @USART_GetStatus
	.thumb_func
USART_GetStatus:
.Lfunc_begin31:
	.loc	4 671 0 is_stmt 1               @ C:/Users/aj4775/AppData/Local/arm/packs/Keil/V2M-MPS2_IOTKit_BSP/1.5.2/CMSIS/Driver/USART_V2M-MPS2.c:671:0
	.fnstart
	.cfi_startproc
@ %bb.0:
	.pad	#8
	sub	sp, #8
	.cfi_def_cfa_offset 8
	str	r0, [sp]
.Ltmp145:
	.loc	4 674 29 prologue_end           @ C:/Users/aj4775/AppData/Local/arm/packs/Keil/V2M-MPS2_IOTKit_BSP/1.5.2/CMSIS/Driver/USART_V2M-MPS2.c:674:29
	ldr	r0, [sp]
	.loc	4 674 36 is_stmt 0              @ C:/Users/aj4775/AppData/Local/arm/packs/Keil/V2M-MPS2_IOTKit_BSP/1.5.2/CMSIS/Driver/USART_V2M-MPS2.c:674:36
	ldr	r0, [r0, #20]
	.loc	4 674 29                        @ C:/Users/aj4775/AppData/Local/arm/packs/Keil/V2M-MPS2_IOTKit_BSP/1.5.2/CMSIS/Driver/USART_V2M-MPS2.c:674:29
	ldrb	r1, [r0, #4]
	.loc	4 674 27                        @ C:/Users/aj4775/AppData/Local/arm/packs/Keil/V2M-MPS2_IOTKit_BSP/1.5.2/CMSIS/Driver/USART_V2M-MPS2.c:674:27
	ldr	r0, [sp, #4]
	bfi	r0, r1, #0, #1
	str	r0, [sp, #4]
	.loc	4 675 29 is_stmt 1              @ C:/Users/aj4775/AppData/Local/arm/packs/Keil/V2M-MPS2_IOTKit_BSP/1.5.2/CMSIS/Driver/USART_V2M-MPS2.c:675:29
	ldr	r0, [sp]
	.loc	4 675 36 is_stmt 0              @ C:/Users/aj4775/AppData/Local/arm/packs/Keil/V2M-MPS2_IOTKit_BSP/1.5.2/CMSIS/Driver/USART_V2M-MPS2.c:675:36
	ldr	r0, [r0, #20]
	.loc	4 675 29                        @ C:/Users/aj4775/AppData/Local/arm/packs/Keil/V2M-MPS2_IOTKit_BSP/1.5.2/CMSIS/Driver/USART_V2M-MPS2.c:675:29
	ldrb	r1, [r0, #5]
	.loc	4 675 27                        @ C:/Users/aj4775/AppData/Local/arm/packs/Keil/V2M-MPS2_IOTKit_BSP/1.5.2/CMSIS/Driver/USART_V2M-MPS2.c:675:27
	ldr	r0, [sp, #4]
	and	r1, r1, #1
	bic	r0, r0, #2
	orr.w	r0, r0, r1, lsl #1
	str	r0, [sp, #4]
	.loc	4 676 29 is_stmt 1              @ C:/Users/aj4775/AppData/Local/arm/packs/Keil/V2M-MPS2_IOTKit_BSP/1.5.2/CMSIS/Driver/USART_V2M-MPS2.c:676:29
	ldr	r0, [sp]
	.loc	4 676 36 is_stmt 0              @ C:/Users/aj4775/AppData/Local/arm/packs/Keil/V2M-MPS2_IOTKit_BSP/1.5.2/CMSIS/Driver/USART_V2M-MPS2.c:676:36
	ldr	r0, [r0, #20]
	.loc	4 676 29                        @ C:/Users/aj4775/AppData/Local/arm/packs/Keil/V2M-MPS2_IOTKit_BSP/1.5.2/CMSIS/Driver/USART_V2M-MPS2.c:676:29
	ldrb	r1, [r0, #6]
	.loc	4 676 27                        @ C:/Users/aj4775/AppData/Local/arm/packs/Keil/V2M-MPS2_IOTKit_BSP/1.5.2/CMSIS/Driver/USART_V2M-MPS2.c:676:27
	ldr	r0, [sp, #4]
	and	r1, r1, #1
	bic	r0, r0, #8
	orr.w	r0, r0, r1, lsl #3
	str	r0, [sp, #4]
	.loc	4 678 3 is_stmt 1               @ C:/Users/aj4775/AppData/Local/arm/packs/Keil/V2M-MPS2_IOTKit_BSP/1.5.2/CMSIS/Driver/USART_V2M-MPS2.c:678:3
	ldr	r0, [sp, #4]
	.loc	4 678 3 epilogue_begin is_stmt 0 @ C:/Users/aj4775/AppData/Local/arm/packs/Keil/V2M-MPS2_IOTKit_BSP/1.5.2/CMSIS/Driver/USART_V2M-MPS2.c:678:3
	add	sp, #8
	bx	lr
.Ltmp146:
.Lfunc_end31:
	.size	USART_GetStatus, .Lfunc_end31-USART_GetStatus
	.cfi_endproc
	.cantunwind
	.fnend
                                        @ -- End function
	.section	.text.USART_SetModemControl,"ax",%progbits
	.p2align	2                               @ -- Begin function USART_SetModemControl
	.type	USART_SetModemControl,%function
	.code	16                              @ @USART_SetModemControl
	.thumb_func
USART_SetModemControl:
.Lfunc_begin32:
	.loc	4 690 0 is_stmt 1               @ C:/Users/aj4775/AppData/Local/arm/packs/Keil/V2M-MPS2_IOTKit_BSP/1.5.2/CMSIS/Driver/USART_V2M-MPS2.c:690:0
	.fnstart
	.cfi_startproc
@ %bb.0:
	.pad	#8
	sub	sp, #8
	.cfi_def_cfa_offset 8
                                        @ kill: def $r2 killed $r0
	strb.w	r0, [sp, #7]
	str	r1, [sp]
	mvn	r0, #3
.Ltmp147:
	.loc	4 694 3 prologue_end epilogue_begin @ C:/Users/aj4775/AppData/Local/arm/packs/Keil/V2M-MPS2_IOTKit_BSP/1.5.2/CMSIS/Driver/USART_V2M-MPS2.c:694:3
	add	sp, #8
	bx	lr
.Ltmp148:
.Lfunc_end32:
	.size	USART_SetModemControl, .Lfunc_end32-USART_SetModemControl
	.cfi_endproc
	.cantunwind
	.fnend
                                        @ -- End function
	.section	.text.USART_GetModemStatus,"ax",%progbits
	.p2align	2                               @ -- Begin function USART_GetModemStatus
	.type	USART_GetModemStatus,%function
	.code	16                              @ @USART_GetModemStatus
	.thumb_func
USART_GetModemStatus:
.Lfunc_begin33:
	.loc	4 703 0                         @ C:/Users/aj4775/AppData/Local/arm/packs/Keil/V2M-MPS2_IOTKit_BSP/1.5.2/CMSIS/Driver/USART_V2M-MPS2.c:703:0
	.fnstart
	.cfi_startproc
@ %bb.0:
	.pad	#8
	sub	sp, #8
	.cfi_def_cfa_offset 8
	str	r0, [sp]
	movs	r0, #0
.Ltmp149:
	.loc	4 704 26 prologue_end           @ C:/Users/aj4775/AppData/Local/arm/packs/Keil/V2M-MPS2_IOTKit_BSP/1.5.2/CMSIS/Driver/USART_V2M-MPS2.c:704:26
	str	r0, [sp, #4]
	.loc	4 708 3                         @ C:/Users/aj4775/AppData/Local/arm/packs/Keil/V2M-MPS2_IOTKit_BSP/1.5.2/CMSIS/Driver/USART_V2M-MPS2.c:708:3
	ldr	r0, [sp, #4]
	.loc	4 708 3 epilogue_begin is_stmt 0 @ C:/Users/aj4775/AppData/Local/arm/packs/Keil/V2M-MPS2_IOTKit_BSP/1.5.2/CMSIS/Driver/USART_V2M-MPS2.c:708:3
	add	sp, #8
	bx	lr
.Ltmp150:
.Lfunc_end33:
	.size	USART_GetModemStatus, .Lfunc_end33-USART_GetModemStatus
	.cfi_endproc
	.cantunwind
	.fnend
                                        @ -- End function
	.hidden	Driver_USART0                   @ @Driver_USART0
	.type	Driver_USART0,%object
	.section	.rodata.Driver_USART0,"a",%progbits
	.globl	Driver_USART0
	.p2align	2, 0x0
Driver_USART0:
	.long	USARTx_GetVersion
	.long	USART0_GetCapabilities
	.long	USART0_Initialize
	.long	USART0_Uninitialize
	.long	USART0_PowerControl
	.long	USART0_Send
	.long	USART0_Receive
	.long	USART0_Transfer
	.long	USART0_GetTxCount
	.long	USART0_GetRxCount
	.long	USART0_Control
	.long	USART0_GetStatus
	.long	USART0_SetModemControl
	.long	USART0_GetModemStatus
	.size	Driver_USART0, 56

	.type	USART0_pin_rx,%object           @ @USART0_pin_rx
	.section	.data.USART0_pin_rx,"aw",%progbits
	.p2align	2, 0x0
USART0_pin_rx:
	.long	1074794496
	.byte	0                               @ 0x0
	.zero	3
	.size	USART0_pin_rx, 8

	.type	USART0_pin_tx,%object           @ @USART0_pin_tx
	.section	.data.USART0_pin_tx,"aw",%progbits
	.p2align	2, 0x0
USART0_pin_tx:
	.long	1074794496
	.byte	1                               @ 0x1
	.zero	3
	.size	USART0_pin_tx, 8

	.type	USART0_Info,%object             @ @USART0_Info
	.section	.bss.USART0_Info,"aw",%nobits
	.p2align	2, 0x0
USART0_Info:
	.zero	8
	.size	USART0_Info, 8

	.type	USART0_TransferInfo,%object     @ @USART0_TransferInfo
	.section	.bss.USART0_TransferInfo,"aw",%nobits
	.p2align	2, 0x0
USART0_TransferInfo:
	.zero	24
	.size	USART0_TransferInfo, 24

	.type	USART0_Resources,%object        @ @USART0_Resources
	.section	.rodata.USART0_Resources,"a",%progbits
	.p2align	2, 0x0
USART0_Resources:
	.byte	1                               @ 0x1
	.byte	6                               @ 0x6
	.byte	0                               @ 0x0
	.byte	0                               @ 0x0
	.long	USART0_pin_rx
	.long	USART0_pin_tx
	.long	1075838976
	.byte	32                              @ 0x20
	.byte	33                              @ 0x21
	.zero	2
	.long	USART0_Info
	.long	USART0_TransferInfo
	.size	USART0_Resources, 28

	.type	usart_driver_version,%object    @ @usart_driver_version
	.section	.rodata.usart_driver_version,"a",%progbits
	.p2align	1, 0x0
usart_driver_version:
	.short	516                             @ 0x204
	.short	256                             @ 0x100
	.size	usart_driver_version, 4

	.section	".note.GNU-stack","",%progbits
	.eabi_attribute	30, 6	@ Tag_ABI_optimization_goals
	.ARM_attribute	16, 1	@ Tag_AV_eba